
kernel.elf:     file format elf64-littleaarch64


Disassembly of section .init:

0000000000080000 <_start>:
   80000:	1000000c 	adr	x12, 80000 <_start>
   80004:	58000f21 	ldr	x1, 801e8 <StartSecondarySpin+0x34>
   80008:	b900002c 	str	w12, [x1]
   8000c:	58000f20 	ldr	x0, 801f0 <StartSecondarySpin+0x3c>
   80010:	58000f41 	ldr	x1, 801f8 <StartSecondarySpin+0x44>
   80014:	b9000020 	str	w0, [x1]
   80018:	58000f40 	ldr	x0, 80200 <StartSecondarySpin+0x4c>
   8001c:	58000f61 	ldr	x1, 80208 <StartSecondarySpin+0x54>
   80020:	b9000020 	str	w0, [x1]
   80024:	d2800020 	mov	x0, #0x1                   	// #1
   80028:	58000f41 	ldr	x1, 80210 <StartSecondarySpin+0x5c>
   8002c:	b9000020 	str	w0, [x1]
   80030:	d2801300 	mov	x0, #0x98                  	// #152
   80034:	b2610000 	orr	x0, x0, #0x80000000
   80038:	58000f01 	ldr	x1, 80218 <StartSecondarySpin+0x64>
   8003c:	b9000020 	str	w0, [x1]
   80040:	d5380000 	mrs	x0, midr_el1
   80044:	58000ee1 	ldr	x1, 80220 <StartSecondarySpin+0x6c>
   80048:	b9000020 	str	w0, [x1]

000000000008004c <multicore_start>:
   8004c:	58000ee2 	ldr	x2, 80228 <StartSecondarySpin+0x74>
   80050:	58000f03 	ldr	x3, 80230 <StartSecondarySpin+0x7c>
   80054:	58000f24 	ldr	x4, 80238 <StartSecondarySpin+0x84>
   80058:	d53800a6 	mrs	x6, mpidr_el1
   8005c:	f24004c6 	ands	x6, x6, #0x3
   80060:	540001c0 	b.eq	80098 <set_stacks>  // b.none
   80064:	58000ee2 	ldr	x2, 80240 <StartSecondarySpin+0x8c>
   80068:	58000f03 	ldr	x3, 80248 <StartSecondarySpin+0x94>
   8006c:	58000f24 	ldr	x4, 80250 <StartSecondarySpin+0x9c>
   80070:	f10004df 	cmp	x6, #0x1
   80074:	54000120 	b.eq	80098 <set_stacks>  // b.none
   80078:	58000f02 	ldr	x2, 80258 <StartSecondarySpin+0xa4>
   8007c:	58000f23 	ldr	x3, 80260 <StartSecondarySpin+0xac>
   80080:	58000f44 	ldr	x4, 80268 <StartSecondarySpin+0xb4>
   80084:	f10008df 	cmp	x6, #0x2
   80088:	54000080 	b.eq	80098 <set_stacks>  // b.none
   8008c:	58000f22 	ldr	x2, 80270 <StartSecondarySpin+0xbc>
   80090:	58000f43 	ldr	x3, 80278 <StartSecondarySpin+0xc4>
   80094:	58000f64 	ldr	x4, 80280 <StartSecondarySpin+0xcc>

0000000000080098 <set_stacks>:
   80098:	9100005f 	mov	sp, x2
   8009c:	d51c4103 	msr	sp_el1, x3
   800a0:	d5184104 	msr	sp_el0, x4
   800a4:	d5380000 	mrs	x0, midr_el1
   800a8:	d53800a1 	mrs	x1, mpidr_el1
   800ac:	d51c0000 	msr	vpidr_el2, x0
   800b0:	d51c00a1 	msr	vmpidr_el2, x1
   800b4:	d53ce100 	mrs	x0, cnthctl_el2
   800b8:	b2400400 	orr	x0, x0, #0x3
   800bc:	d51ce100 	msr	cnthctl_el2, x0
   800c0:	d51ce07f 	msr	cntvoff_el2, xzr
   800c4:	d2867fe0 	mov	x0, #0x33ff                	// #13311
   800c8:	d51c1140 	msr	cptr_el2, x0
   800cc:	d51c117f 	msr	hstr_el2, xzr
   800d0:	d2a00600 	mov	x0, #0x300000              	// #3145728
   800d4:	d5181040 	msr	cpacr_el1, x0
   800d8:	d2b00000 	mov	x0, #0x80000000            	// #2147483648
   800dc:	d51c1100 	msr	hcr_el2, x0
   800e0:	d2810000 	mov	x0, #0x800                 	// #2048
   800e4:	f2a61a00 	movk	x0, #0x30d0, lsl #16
   800e8:	b27e0000 	orr	x0, x0, #0x4
   800ec:	b2740000 	orr	x0, x0, #0x1000
   800f0:	d5181000 	msr	sctlr_el1, x0
   800f4:	d28078a0 	mov	x0, #0x3c5                 	// #965
   800f8:	d51c4000 	msr	spsr_el2, x0
   800fc:	10000060 	adr	x0, 80108 <exit_el1>
   80100:	d51c4020 	msr	elr_el2, x0
   80104:	d69f03e0 	eret

0000000000080108 <exit_el1>:
   80108:	58000c00 	ldr	x0, 80288 <StartSecondarySpin+0xd4>
   8010c:	d518c000 	msr	vbar_el1, x0
   80110:	d53800a6 	mrs	x6, mpidr_el1
   80114:	924004c6 	and	x6, x6, #0x3
   80118:	b40000c6 	cbz	x6, 80130 <cpu0_exit_multicore_park>
   8011c:	580007a1 	ldr	x1, 80210 <StartSecondarySpin+0x5c>
   80120:	b9400020 	ldr	w0, [x1]
   80124:	11000400 	add	w0, w0, #0x1
   80128:	b9000020 	str	w0, [x1]
   8012c:	14000022 	b	801b4 <StartSecondarySpin>

0000000000080130 <cpu0_exit_multicore_park>:
   80130:	58000b03 	ldr	x3, 80290 <StartSecondarySpin+0xdc>
   80134:	58000b20 	ldr	x0, 80298 <StartSecondarySpin+0xe4>
   80138:	eb03001f 	cmp	x0, x3
   8013c:	54000082 	b.cs	8014c <.bss_cleared>  // b.hs, b.nlast

0000000000080140 <.bss_zero_loop>:
   80140:	b800441f 	str	wzr, [x0], #4
   80144:	eb00007f 	cmp	x3, x0
   80148:	54ffffc8 	b.hi	80140 <.bss_zero_loop>  // b.pmore

000000000008014c <.bss_cleared>:
   8014c:	d2801c01 	mov	x1, #0xe0                  	// #224
   80150:	58000a82 	ldr	x2, 802a0 <StartSecondarySpin+0xec>
   80154:	f9000022 	str	x2, [x1]
   80158:	d503209f 	sev
   8015c:	580005a3 	ldr	x3, 80210 <StartSecondarySpin+0x5c>

0000000000080160 <.WaitCore1ACK>:
   80160:	b9400061 	ldr	w1, [x3]
   80164:	7100083f 	cmp	w1, #0x2
   80168:	54ffffc1 	b.ne	80160 <.WaitCore1ACK>  // b.any
   8016c:	d2801d01 	mov	x1, #0xe8                  	// #232
   80170:	58000982 	ldr	x2, 802a0 <StartSecondarySpin+0xec>
   80174:	f9000022 	str	x2, [x1]
   80178:	d503209f 	sev
   8017c:	580004a3 	ldr	x3, 80210 <StartSecondarySpin+0x5c>

0000000000080180 <.WaitCore2ACK>:
   80180:	b9400061 	ldr	w1, [x3]
   80184:	71000c3f 	cmp	w1, #0x3
   80188:	54ffffc1 	b.ne	80180 <.WaitCore2ACK>  // b.any
   8018c:	d2801e01 	mov	x1, #0xf0                  	// #240
   80190:	58000882 	ldr	x2, 802a0 <StartSecondarySpin+0xec>
   80194:	f9000022 	str	x2, [x1]
   80198:	d503209f 	sev
   8019c:	580003a3 	ldr	x3, 80210 <StartSecondarySpin+0x5c>

00000000000801a0 <.WaitCore3ACK>:
   801a0:	b9400061 	ldr	w1, [x3]
   801a4:	7100103f 	cmp	w1, #0x4
   801a8:	54ffffc1 	b.ne	801a0 <.WaitCore3ACK>  // b.any
   801ac:	14000ba9 	b	83050 <kernel_main>

00000000000801b0 <hang>:
   801b0:	14000000 	b	801b0 <hang>

00000000000801b4 <StartSecondarySpin>:
   801b4:	d503205f 	wfe
   801b8:	d2801982 	mov	x2, #0xcc                  	// #204
   801bc:	f2a80002 	movk	x2, #0x4000, lsl #16
   801c0:	d53800a0 	mrs	x0, mpidr_el1
   801c4:	d37c0c00 	ubfiz	x0, x0, #4, #4
   801c8:	b8626801 	ldr	w1, [x0, x2]
   801cc:	34ffff41 	cbz	w1, 801b4 <StartSecondarySpin>
   801d0:	b8226801 	str	w1, [x0, x2]
   801d4:	2a0103e1 	mov	w1, w1
   801d8:	d5033fbf 	dmb	sy
   801dc:	d63f0020 	blr	x1
   801e0:	d5033fbf 	dmb	sy
   801e4:	17fffff4 	b	801b4 <StartSecondarySpin>
   801e8:	00092b08 	.word	0x00092b08
   801ec:	00000000 	.word	0x00000000
   801f0:	3f000000 	.word	0x3f000000
   801f4:	00000000 	.word	0x00000000
   801f8:	00092b00 	.word	0x00092b00
   801fc:	00000000 	.word	0x00000000
   80200:	c0000000 	.word	0xc0000000
   80204:	00000000 	.word	0x00000000
   80208:	00092b04 	.word	0x00092b04
   8020c:	00000000 	.word	0x00000000
   80210:	00092b0c 	.word	0x00092b0c
   80214:	00000000 	.word	0x00000000
   80218:	00092b18 	.word	0x00092b18
   8021c:	00000000 	.word	0x00000000
   80220:	00092b14 	.word	0x00092b14
   80224:	00000000 	.word	0x00000000
   80228:	000a6b30 	.word	0x000a6b30
   8022c:	00000000 	.word	0x00000000
   80230:	000a6930 	.word	0x000a6930
   80234:	00000000 	.word	0x00000000
   80238:	0009e930 	.word	0x0009e930
   8023c:	00000000 	.word	0x00000000
   80240:	000a7330 	.word	0x000a7330
   80244:	00000000 	.word	0x00000000
   80248:	000a7130 	.word	0x000a7130
   8024c:	00000000 	.word	0x00000000
   80250:	000a6d30 	.word	0x000a6d30
   80254:	00000000 	.word	0x00000000
   80258:	000a7b30 	.word	0x000a7b30
   8025c:	00000000 	.word	0x00000000
   80260:	000a7930 	.word	0x000a7930
   80264:	00000000 	.word	0x00000000
   80268:	000a7530 	.word	0x000a7530
   8026c:	00000000 	.word	0x00000000
   80270:	000a8330 	.word	0x000a8330
   80274:	00000000 	.word	0x00000000
   80278:	000a8130 	.word	0x000a8130
   8027c:	00000000 	.word	0x00000000
   80280:	000a7d30 	.word	0x000a7d30
   80284:	00000000 	.word	0x00000000
   80288:	00080800 	.word	0x00080800
   8028c:	00000000 	.word	0x00000000
   80290:	0009e724 	.word	0x0009e724
   80294:	00000000 	.word	0x00000000
   80298:	00093880 	.word	0x00093880
   8029c:	00000000 	.word	0x00000000
   802a0:	0008004c 	.word	0x0008004c
   802a4:	00000000 	.word	0x00000000

00000000000802a8 <irq_handler_stub>:
   802a8:	a9bf7bfd 	stp	x29, x30, [sp, #-16]!
   802ac:	a9bf4ff2 	stp	x18, x19, [sp, #-16]!
   802b0:	a9bf47f0 	stp	x16, x17, [sp, #-16]!
   802b4:	a9bf3fee 	stp	x14, x15, [sp, #-16]!
   802b8:	a9bf37ec 	stp	x12, x13, [sp, #-16]!
   802bc:	a9bf2fea 	stp	x10, x11, [sp, #-16]!
   802c0:	a9bf27e8 	stp	x8, x9, [sp, #-16]!
   802c4:	a9bf1fe6 	stp	x6, x7, [sp, #-16]!
   802c8:	a9bf17e4 	stp	x4, x5, [sp, #-16]!
   802cc:	a9bf0fe2 	stp	x2, x3, [sp, #-16]!
   802d0:	a9bf07e0 	stp	x0, x1, [sp, #-16]!
   802d4:	580065a0 	ldr	x0, 80f88 <VectorTable+0x788>
   802d8:	f9400000 	ldr	x0, [x0]
   802dc:	b4000040 	cbz	x0, 802e4 <no_irqset>
   802e0:	d63f0000 	blr	x0

00000000000802e4 <no_irqset>:
   802e4:	a8c107e0 	ldp	x0, x1, [sp], #16
   802e8:	a8c10fe2 	ldp	x2, x3, [sp], #16
   802ec:	a8c117e4 	ldp	x4, x5, [sp], #16
   802f0:	a8c11fe6 	ldp	x6, x7, [sp], #16
   802f4:	a8c127e8 	ldp	x8, x9, [sp], #16
   802f8:	a8c12fea 	ldp	x10, x11, [sp], #16
   802fc:	a8c137ec 	ldp	x12, x13, [sp], #16
   80300:	a8c13fee 	ldp	x14, x15, [sp], #16
   80304:	a8c147f0 	ldp	x16, x17, [sp], #16
   80308:	a8c14ff2 	ldp	x18, x19, [sp], #16
   8030c:	a8c17bfd 	ldp	x29, x30, [sp], #16
   80310:	d69f03e0 	eret

0000000000080314 <fiq_handler_stub>:
   80314:	a9bf7bfd 	stp	x29, x30, [sp, #-16]!
   80318:	a9bf4ff2 	stp	x18, x19, [sp, #-16]!
   8031c:	a9bf47f0 	stp	x16, x17, [sp, #-16]!
   80320:	a9bf3fee 	stp	x14, x15, [sp, #-16]!
   80324:	a9bf37ec 	stp	x12, x13, [sp, #-16]!
   80328:	a9bf2fea 	stp	x10, x11, [sp, #-16]!
   8032c:	a9bf27e8 	stp	x8, x9, [sp, #-16]!
   80330:	a9bf1fe6 	stp	x6, x7, [sp, #-16]!
   80334:	a9bf17e4 	stp	x4, x5, [sp, #-16]!
   80338:	a9bf0fe2 	stp	x2, x3, [sp, #-16]!
   8033c:	a9bf07e0 	stp	x0, x1, [sp, #-16]!
   80340:	58006280 	ldr	x0, 80f90 <VectorTable+0x790>
   80344:	f9400000 	ldr	x0, [x0]
   80348:	b4000040 	cbz	x0, 80350 <no_fiqset>
   8034c:	d63f0000 	blr	x0

0000000000080350 <no_fiqset>:
   80350:	a8c107e0 	ldp	x0, x1, [sp], #16
   80354:	a8c10fe2 	ldp	x2, x3, [sp], #16
   80358:	a8c117e4 	ldp	x4, x5, [sp], #16
   8035c:	a8c11fe6 	ldp	x6, x7, [sp], #16
   80360:	a8c127e8 	ldp	x8, x9, [sp], #16
   80364:	a8c12fea 	ldp	x10, x11, [sp], #16
   80368:	a8c137ec 	ldp	x12, x13, [sp], #16
   8036c:	a8c13fee 	ldp	x14, x15, [sp], #16
   80370:	a8c147f0 	ldp	x16, x17, [sp], #16
   80374:	a8c14ff2 	ldp	x18, x19, [sp], #16
   80378:	a8c17bfd 	ldp	x29, x30, [sp], #16
   8037c:	d69f03e0 	eret
   80380:	d503201f 	nop
   80384:	d503201f 	nop
   80388:	d503201f 	nop
   8038c:	d503201f 	nop
   80390:	d503201f 	nop
   80394:	d503201f 	nop
   80398:	d503201f 	nop
   8039c:	d503201f 	nop
   803a0:	d503201f 	nop
   803a4:	d503201f 	nop
   803a8:	d503201f 	nop
   803ac:	d503201f 	nop
   803b0:	d503201f 	nop
   803b4:	d503201f 	nop
   803b8:	d503201f 	nop
   803bc:	d503201f 	nop
   803c0:	d503201f 	nop
   803c4:	d503201f 	nop
   803c8:	d503201f 	nop
   803cc:	d503201f 	nop
   803d0:	d503201f 	nop
   803d4:	d503201f 	nop
   803d8:	d503201f 	nop
   803dc:	d503201f 	nop
   803e0:	d503201f 	nop
   803e4:	d503201f 	nop
   803e8:	d503201f 	nop
   803ec:	d503201f 	nop
   803f0:	d503201f 	nop
   803f4:	d503201f 	nop
   803f8:	d503201f 	nop
   803fc:	d503201f 	nop
   80400:	d503201f 	nop
   80404:	d503201f 	nop
   80408:	d503201f 	nop
   8040c:	d503201f 	nop
   80410:	d503201f 	nop
   80414:	d503201f 	nop
   80418:	d503201f 	nop
   8041c:	d503201f 	nop
   80420:	d503201f 	nop
   80424:	d503201f 	nop
   80428:	d503201f 	nop
   8042c:	d503201f 	nop
   80430:	d503201f 	nop
   80434:	d503201f 	nop
   80438:	d503201f 	nop
   8043c:	d503201f 	nop
   80440:	d503201f 	nop
   80444:	d503201f 	nop
   80448:	d503201f 	nop
   8044c:	d503201f 	nop
   80450:	d503201f 	nop
   80454:	d503201f 	nop
   80458:	d503201f 	nop
   8045c:	d503201f 	nop
   80460:	d503201f 	nop
   80464:	d503201f 	nop
   80468:	d503201f 	nop
   8046c:	d503201f 	nop
   80470:	d503201f 	nop
   80474:	d503201f 	nop
   80478:	d503201f 	nop
   8047c:	d503201f 	nop
   80480:	d503201f 	nop
   80484:	d503201f 	nop
   80488:	d503201f 	nop
   8048c:	d503201f 	nop
   80490:	d503201f 	nop
   80494:	d503201f 	nop
   80498:	d503201f 	nop
   8049c:	d503201f 	nop
   804a0:	d503201f 	nop
   804a4:	d503201f 	nop
   804a8:	d503201f 	nop
   804ac:	d503201f 	nop
   804b0:	d503201f 	nop
   804b4:	d503201f 	nop
   804b8:	d503201f 	nop
   804bc:	d503201f 	nop
   804c0:	d503201f 	nop
   804c4:	d503201f 	nop
   804c8:	d503201f 	nop
   804cc:	d503201f 	nop
   804d0:	d503201f 	nop
   804d4:	d503201f 	nop
   804d8:	d503201f 	nop
   804dc:	d503201f 	nop
   804e0:	d503201f 	nop
   804e4:	d503201f 	nop
   804e8:	d503201f 	nop
   804ec:	d503201f 	nop
   804f0:	d503201f 	nop
   804f4:	d503201f 	nop
   804f8:	d503201f 	nop
   804fc:	d503201f 	nop
   80500:	d503201f 	nop
   80504:	d503201f 	nop
   80508:	d503201f 	nop
   8050c:	d503201f 	nop
   80510:	d503201f 	nop
   80514:	d503201f 	nop
   80518:	d503201f 	nop
   8051c:	d503201f 	nop
   80520:	d503201f 	nop
   80524:	d503201f 	nop
   80528:	d503201f 	nop
   8052c:	d503201f 	nop
   80530:	d503201f 	nop
   80534:	d503201f 	nop
   80538:	d503201f 	nop
   8053c:	d503201f 	nop
   80540:	d503201f 	nop
   80544:	d503201f 	nop
   80548:	d503201f 	nop
   8054c:	d503201f 	nop
   80550:	d503201f 	nop
   80554:	d503201f 	nop
   80558:	d503201f 	nop
   8055c:	d503201f 	nop
   80560:	d503201f 	nop
   80564:	d503201f 	nop
   80568:	d503201f 	nop
   8056c:	d503201f 	nop
   80570:	d503201f 	nop
   80574:	d503201f 	nop
   80578:	d503201f 	nop
   8057c:	d503201f 	nop
   80580:	d503201f 	nop
   80584:	d503201f 	nop
   80588:	d503201f 	nop
   8058c:	d503201f 	nop
   80590:	d503201f 	nop
   80594:	d503201f 	nop
   80598:	d503201f 	nop
   8059c:	d503201f 	nop
   805a0:	d503201f 	nop
   805a4:	d503201f 	nop
   805a8:	d503201f 	nop
   805ac:	d503201f 	nop
   805b0:	d503201f 	nop
   805b4:	d503201f 	nop
   805b8:	d503201f 	nop
   805bc:	d503201f 	nop
   805c0:	d503201f 	nop
   805c4:	d503201f 	nop
   805c8:	d503201f 	nop
   805cc:	d503201f 	nop
   805d0:	d503201f 	nop
   805d4:	d503201f 	nop
   805d8:	d503201f 	nop
   805dc:	d503201f 	nop
   805e0:	d503201f 	nop
   805e4:	d503201f 	nop
   805e8:	d503201f 	nop
   805ec:	d503201f 	nop
   805f0:	d503201f 	nop
   805f4:	d503201f 	nop
   805f8:	d503201f 	nop
   805fc:	d503201f 	nop
   80600:	d503201f 	nop
   80604:	d503201f 	nop
   80608:	d503201f 	nop
   8060c:	d503201f 	nop
   80610:	d503201f 	nop
   80614:	d503201f 	nop
   80618:	d503201f 	nop
   8061c:	d503201f 	nop
   80620:	d503201f 	nop
   80624:	d503201f 	nop
   80628:	d503201f 	nop
   8062c:	d503201f 	nop
   80630:	d503201f 	nop
   80634:	d503201f 	nop
   80638:	d503201f 	nop
   8063c:	d503201f 	nop
   80640:	d503201f 	nop
   80644:	d503201f 	nop
   80648:	d503201f 	nop
   8064c:	d503201f 	nop
   80650:	d503201f 	nop
   80654:	d503201f 	nop
   80658:	d503201f 	nop
   8065c:	d503201f 	nop
   80660:	d503201f 	nop
   80664:	d503201f 	nop
   80668:	d503201f 	nop
   8066c:	d503201f 	nop
   80670:	d503201f 	nop
   80674:	d503201f 	nop
   80678:	d503201f 	nop
   8067c:	d503201f 	nop
   80680:	d503201f 	nop
   80684:	d503201f 	nop
   80688:	d503201f 	nop
   8068c:	d503201f 	nop
   80690:	d503201f 	nop
   80694:	d503201f 	nop
   80698:	d503201f 	nop
   8069c:	d503201f 	nop
   806a0:	d503201f 	nop
   806a4:	d503201f 	nop
   806a8:	d503201f 	nop
   806ac:	d503201f 	nop
   806b0:	d503201f 	nop
   806b4:	d503201f 	nop
   806b8:	d503201f 	nop
   806bc:	d503201f 	nop
   806c0:	d503201f 	nop
   806c4:	d503201f 	nop
   806c8:	d503201f 	nop
   806cc:	d503201f 	nop
   806d0:	d503201f 	nop
   806d4:	d503201f 	nop
   806d8:	d503201f 	nop
   806dc:	d503201f 	nop
   806e0:	d503201f 	nop
   806e4:	d503201f 	nop
   806e8:	d503201f 	nop
   806ec:	d503201f 	nop
   806f0:	d503201f 	nop
   806f4:	d503201f 	nop
   806f8:	d503201f 	nop
   806fc:	d503201f 	nop
   80700:	d503201f 	nop
   80704:	d503201f 	nop
   80708:	d503201f 	nop
   8070c:	d503201f 	nop
   80710:	d503201f 	nop
   80714:	d503201f 	nop
   80718:	d503201f 	nop
   8071c:	d503201f 	nop
   80720:	d503201f 	nop
   80724:	d503201f 	nop
   80728:	d503201f 	nop
   8072c:	d503201f 	nop
   80730:	d503201f 	nop
   80734:	d503201f 	nop
   80738:	d503201f 	nop
   8073c:	d503201f 	nop
   80740:	d503201f 	nop
   80744:	d503201f 	nop
   80748:	d503201f 	nop
   8074c:	d503201f 	nop
   80750:	d503201f 	nop
   80754:	d503201f 	nop
   80758:	d503201f 	nop
   8075c:	d503201f 	nop
   80760:	d503201f 	nop
   80764:	d503201f 	nop
   80768:	d503201f 	nop
   8076c:	d503201f 	nop
   80770:	d503201f 	nop
   80774:	d503201f 	nop
   80778:	d503201f 	nop
   8077c:	d503201f 	nop
   80780:	d503201f 	nop
   80784:	d503201f 	nop
   80788:	d503201f 	nop
   8078c:	d503201f 	nop
   80790:	d503201f 	nop
   80794:	d503201f 	nop
   80798:	d503201f 	nop
   8079c:	d503201f 	nop
   807a0:	d503201f 	nop
   807a4:	d503201f 	nop
   807a8:	d503201f 	nop
   807ac:	d503201f 	nop
   807b0:	d503201f 	nop
   807b4:	d503201f 	nop
   807b8:	d503201f 	nop
   807bc:	d503201f 	nop
   807c0:	d503201f 	nop
   807c4:	d503201f 	nop
   807c8:	d503201f 	nop
   807cc:	d503201f 	nop
   807d0:	d503201f 	nop
   807d4:	d503201f 	nop
   807d8:	d503201f 	nop
   807dc:	d503201f 	nop
   807e0:	d503201f 	nop
   807e4:	d503201f 	nop
   807e8:	d503201f 	nop
   807ec:	d503201f 	nop
   807f0:	d503201f 	nop
   807f4:	d503201f 	nop
   807f8:	d503201f 	nop
   807fc:	d503201f 	nop

0000000000080800 <VectorTable>:
   80800:	17fffe00 	b	80000 <_start>
   80804:	d503201f 	nop
   80808:	d503201f 	nop
   8080c:	d503201f 	nop
   80810:	d503201f 	nop
   80814:	d503201f 	nop
   80818:	d503201f 	nop
   8081c:	d503201f 	nop
   80820:	d503201f 	nop
   80824:	d503201f 	nop
   80828:	d503201f 	nop
   8082c:	d503201f 	nop
   80830:	d503201f 	nop
   80834:	d503201f 	nop
   80838:	d503201f 	nop
   8083c:	d503201f 	nop
   80840:	d503201f 	nop
   80844:	d503201f 	nop
   80848:	d503201f 	nop
   8084c:	d503201f 	nop
   80850:	d503201f 	nop
   80854:	d503201f 	nop
   80858:	d503201f 	nop
   8085c:	d503201f 	nop
   80860:	d503201f 	nop
   80864:	d503201f 	nop
   80868:	d503201f 	nop
   8086c:	d503201f 	nop
   80870:	d503201f 	nop
   80874:	d503201f 	nop
   80878:	d503201f 	nop
   8087c:	d503201f 	nop
   80880:	17fffe4c 	b	801b0 <hang>
   80884:	d503201f 	nop
   80888:	d503201f 	nop
   8088c:	d503201f 	nop
   80890:	d503201f 	nop
   80894:	d503201f 	nop
   80898:	d503201f 	nop
   8089c:	d503201f 	nop
   808a0:	d503201f 	nop
   808a4:	d503201f 	nop
   808a8:	d503201f 	nop
   808ac:	d503201f 	nop
   808b0:	d503201f 	nop
   808b4:	d503201f 	nop
   808b8:	d503201f 	nop
   808bc:	d503201f 	nop
   808c0:	d503201f 	nop
   808c4:	d503201f 	nop
   808c8:	d503201f 	nop
   808cc:	d503201f 	nop
   808d0:	d503201f 	nop
   808d4:	d503201f 	nop
   808d8:	d503201f 	nop
   808dc:	d503201f 	nop
   808e0:	d503201f 	nop
   808e4:	d503201f 	nop
   808e8:	d503201f 	nop
   808ec:	d503201f 	nop
   808f0:	d503201f 	nop
   808f4:	d503201f 	nop
   808f8:	d503201f 	nop
   808fc:	d503201f 	nop
   80900:	17fffe2c 	b	801b0 <hang>
   80904:	d503201f 	nop
   80908:	d503201f 	nop
   8090c:	d503201f 	nop
   80910:	d503201f 	nop
   80914:	d503201f 	nop
   80918:	d503201f 	nop
   8091c:	d503201f 	nop
   80920:	d503201f 	nop
   80924:	d503201f 	nop
   80928:	d503201f 	nop
   8092c:	d503201f 	nop
   80930:	d503201f 	nop
   80934:	d503201f 	nop
   80938:	d503201f 	nop
   8093c:	d503201f 	nop
   80940:	d503201f 	nop
   80944:	d503201f 	nop
   80948:	d503201f 	nop
   8094c:	d503201f 	nop
   80950:	d503201f 	nop
   80954:	d503201f 	nop
   80958:	d503201f 	nop
   8095c:	d503201f 	nop
   80960:	d503201f 	nop
   80964:	d503201f 	nop
   80968:	d503201f 	nop
   8096c:	d503201f 	nop
   80970:	d503201f 	nop
   80974:	d503201f 	nop
   80978:	d503201f 	nop
   8097c:	d503201f 	nop
   80980:	17fffe0c 	b	801b0 <hang>
   80984:	d503201f 	nop
   80988:	d503201f 	nop
   8098c:	d503201f 	nop
   80990:	d503201f 	nop
   80994:	d503201f 	nop
   80998:	d503201f 	nop
   8099c:	d503201f 	nop
   809a0:	d503201f 	nop
   809a4:	d503201f 	nop
   809a8:	d503201f 	nop
   809ac:	d503201f 	nop
   809b0:	d503201f 	nop
   809b4:	d503201f 	nop
   809b8:	d503201f 	nop
   809bc:	d503201f 	nop
   809c0:	d503201f 	nop
   809c4:	d503201f 	nop
   809c8:	d503201f 	nop
   809cc:	d503201f 	nop
   809d0:	d503201f 	nop
   809d4:	d503201f 	nop
   809d8:	d503201f 	nop
   809dc:	d503201f 	nop
   809e0:	d503201f 	nop
   809e4:	d503201f 	nop
   809e8:	d503201f 	nop
   809ec:	d503201f 	nop
   809f0:	d503201f 	nop
   809f4:	d503201f 	nop
   809f8:	d503201f 	nop
   809fc:	d503201f 	nop
   80a00:	17fffdec 	b	801b0 <hang>
   80a04:	d503201f 	nop
   80a08:	d503201f 	nop
   80a0c:	d503201f 	nop
   80a10:	d503201f 	nop
   80a14:	d503201f 	nop
   80a18:	d503201f 	nop
   80a1c:	d503201f 	nop
   80a20:	d503201f 	nop
   80a24:	d503201f 	nop
   80a28:	d503201f 	nop
   80a2c:	d503201f 	nop
   80a30:	d503201f 	nop
   80a34:	d503201f 	nop
   80a38:	d503201f 	nop
   80a3c:	d503201f 	nop
   80a40:	d503201f 	nop
   80a44:	d503201f 	nop
   80a48:	d503201f 	nop
   80a4c:	d503201f 	nop
   80a50:	d503201f 	nop
   80a54:	d503201f 	nop
   80a58:	d503201f 	nop
   80a5c:	d503201f 	nop
   80a60:	d503201f 	nop
   80a64:	d503201f 	nop
   80a68:	d503201f 	nop
   80a6c:	d503201f 	nop
   80a70:	d503201f 	nop
   80a74:	d503201f 	nop
   80a78:	d503201f 	nop
   80a7c:	d503201f 	nop
   80a80:	17fffe0a 	b	802a8 <irq_handler_stub>
   80a84:	d503201f 	nop
   80a88:	d503201f 	nop
   80a8c:	d503201f 	nop
   80a90:	d503201f 	nop
   80a94:	d503201f 	nop
   80a98:	d503201f 	nop
   80a9c:	d503201f 	nop
   80aa0:	d503201f 	nop
   80aa4:	d503201f 	nop
   80aa8:	d503201f 	nop
   80aac:	d503201f 	nop
   80ab0:	d503201f 	nop
   80ab4:	d503201f 	nop
   80ab8:	d503201f 	nop
   80abc:	d503201f 	nop
   80ac0:	d503201f 	nop
   80ac4:	d503201f 	nop
   80ac8:	d503201f 	nop
   80acc:	d503201f 	nop
   80ad0:	d503201f 	nop
   80ad4:	d503201f 	nop
   80ad8:	d503201f 	nop
   80adc:	d503201f 	nop
   80ae0:	d503201f 	nop
   80ae4:	d503201f 	nop
   80ae8:	d503201f 	nop
   80aec:	d503201f 	nop
   80af0:	d503201f 	nop
   80af4:	d503201f 	nop
   80af8:	d503201f 	nop
   80afc:	d503201f 	nop
   80b00:	17fffe05 	b	80314 <fiq_handler_stub>
   80b04:	d503201f 	nop
   80b08:	d503201f 	nop
   80b0c:	d503201f 	nop
   80b10:	d503201f 	nop
   80b14:	d503201f 	nop
   80b18:	d503201f 	nop
   80b1c:	d503201f 	nop
   80b20:	d503201f 	nop
   80b24:	d503201f 	nop
   80b28:	d503201f 	nop
   80b2c:	d503201f 	nop
   80b30:	d503201f 	nop
   80b34:	d503201f 	nop
   80b38:	d503201f 	nop
   80b3c:	d503201f 	nop
   80b40:	d503201f 	nop
   80b44:	d503201f 	nop
   80b48:	d503201f 	nop
   80b4c:	d503201f 	nop
   80b50:	d503201f 	nop
   80b54:	d503201f 	nop
   80b58:	d503201f 	nop
   80b5c:	d503201f 	nop
   80b60:	d503201f 	nop
   80b64:	d503201f 	nop
   80b68:	d503201f 	nop
   80b6c:	d503201f 	nop
   80b70:	d503201f 	nop
   80b74:	d503201f 	nop
   80b78:	d503201f 	nop
   80b7c:	d503201f 	nop
   80b80:	17fffd8c 	b	801b0 <hang>
   80b84:	d503201f 	nop
   80b88:	d503201f 	nop
   80b8c:	d503201f 	nop
   80b90:	d503201f 	nop
   80b94:	d503201f 	nop
   80b98:	d503201f 	nop
   80b9c:	d503201f 	nop
   80ba0:	d503201f 	nop
   80ba4:	d503201f 	nop
   80ba8:	d503201f 	nop
   80bac:	d503201f 	nop
   80bb0:	d503201f 	nop
   80bb4:	d503201f 	nop
   80bb8:	d503201f 	nop
   80bbc:	d503201f 	nop
   80bc0:	d503201f 	nop
   80bc4:	d503201f 	nop
   80bc8:	d503201f 	nop
   80bcc:	d503201f 	nop
   80bd0:	d503201f 	nop
   80bd4:	d503201f 	nop
   80bd8:	d503201f 	nop
   80bdc:	d503201f 	nop
   80be0:	d503201f 	nop
   80be4:	d503201f 	nop
   80be8:	d503201f 	nop
   80bec:	d503201f 	nop
   80bf0:	d503201f 	nop
   80bf4:	d503201f 	nop
   80bf8:	d503201f 	nop
   80bfc:	d503201f 	nop
   80c00:	17fffd6c 	b	801b0 <hang>
   80c04:	d503201f 	nop
   80c08:	d503201f 	nop
   80c0c:	d503201f 	nop
   80c10:	d503201f 	nop
   80c14:	d503201f 	nop
   80c18:	d503201f 	nop
   80c1c:	d503201f 	nop
   80c20:	d503201f 	nop
   80c24:	d503201f 	nop
   80c28:	d503201f 	nop
   80c2c:	d503201f 	nop
   80c30:	d503201f 	nop
   80c34:	d503201f 	nop
   80c38:	d503201f 	nop
   80c3c:	d503201f 	nop
   80c40:	d503201f 	nop
   80c44:	d503201f 	nop
   80c48:	d503201f 	nop
   80c4c:	d503201f 	nop
   80c50:	d503201f 	nop
   80c54:	d503201f 	nop
   80c58:	d503201f 	nop
   80c5c:	d503201f 	nop
   80c60:	d503201f 	nop
   80c64:	d503201f 	nop
   80c68:	d503201f 	nop
   80c6c:	d503201f 	nop
   80c70:	d503201f 	nop
   80c74:	d503201f 	nop
   80c78:	d503201f 	nop
   80c7c:	d503201f 	nop
   80c80:	17fffd4c 	b	801b0 <hang>
   80c84:	d503201f 	nop
   80c88:	d503201f 	nop
   80c8c:	d503201f 	nop
   80c90:	d503201f 	nop
   80c94:	d503201f 	nop
   80c98:	d503201f 	nop
   80c9c:	d503201f 	nop
   80ca0:	d503201f 	nop
   80ca4:	d503201f 	nop
   80ca8:	d503201f 	nop
   80cac:	d503201f 	nop
   80cb0:	d503201f 	nop
   80cb4:	d503201f 	nop
   80cb8:	d503201f 	nop
   80cbc:	d503201f 	nop
   80cc0:	d503201f 	nop
   80cc4:	d503201f 	nop
   80cc8:	d503201f 	nop
   80ccc:	d503201f 	nop
   80cd0:	d503201f 	nop
   80cd4:	d503201f 	nop
   80cd8:	d503201f 	nop
   80cdc:	d503201f 	nop
   80ce0:	d503201f 	nop
   80ce4:	d503201f 	nop
   80ce8:	d503201f 	nop
   80cec:	d503201f 	nop
   80cf0:	d503201f 	nop
   80cf4:	d503201f 	nop
   80cf8:	d503201f 	nop
   80cfc:	d503201f 	nop
   80d00:	17fffd2c 	b	801b0 <hang>
   80d04:	d503201f 	nop
   80d08:	d503201f 	nop
   80d0c:	d503201f 	nop
   80d10:	d503201f 	nop
   80d14:	d503201f 	nop
   80d18:	d503201f 	nop
   80d1c:	d503201f 	nop
   80d20:	d503201f 	nop
   80d24:	d503201f 	nop
   80d28:	d503201f 	nop
   80d2c:	d503201f 	nop
   80d30:	d503201f 	nop
   80d34:	d503201f 	nop
   80d38:	d503201f 	nop
   80d3c:	d503201f 	nop
   80d40:	d503201f 	nop
   80d44:	d503201f 	nop
   80d48:	d503201f 	nop
   80d4c:	d503201f 	nop
   80d50:	d503201f 	nop
   80d54:	d503201f 	nop
   80d58:	d503201f 	nop
   80d5c:	d503201f 	nop
   80d60:	d503201f 	nop
   80d64:	d503201f 	nop
   80d68:	d503201f 	nop
   80d6c:	d503201f 	nop
   80d70:	d503201f 	nop
   80d74:	d503201f 	nop
   80d78:	d503201f 	nop
   80d7c:	d503201f 	nop
   80d80:	17fffd0c 	b	801b0 <hang>
   80d84:	d503201f 	nop
   80d88:	d503201f 	nop
   80d8c:	d503201f 	nop
   80d90:	d503201f 	nop
   80d94:	d503201f 	nop
   80d98:	d503201f 	nop
   80d9c:	d503201f 	nop
   80da0:	d503201f 	nop
   80da4:	d503201f 	nop
   80da8:	d503201f 	nop
   80dac:	d503201f 	nop
   80db0:	d503201f 	nop
   80db4:	d503201f 	nop
   80db8:	d503201f 	nop
   80dbc:	d503201f 	nop
   80dc0:	d503201f 	nop
   80dc4:	d503201f 	nop
   80dc8:	d503201f 	nop
   80dcc:	d503201f 	nop
   80dd0:	d503201f 	nop
   80dd4:	d503201f 	nop
   80dd8:	d503201f 	nop
   80ddc:	d503201f 	nop
   80de0:	d503201f 	nop
   80de4:	d503201f 	nop
   80de8:	d503201f 	nop
   80dec:	d503201f 	nop
   80df0:	d503201f 	nop
   80df4:	d503201f 	nop
   80df8:	d503201f 	nop
   80dfc:	d503201f 	nop
   80e00:	17fffcec 	b	801b0 <hang>
   80e04:	d503201f 	nop
   80e08:	d503201f 	nop
   80e0c:	d503201f 	nop
   80e10:	d503201f 	nop
   80e14:	d503201f 	nop
   80e18:	d503201f 	nop
   80e1c:	d503201f 	nop
   80e20:	d503201f 	nop
   80e24:	d503201f 	nop
   80e28:	d503201f 	nop
   80e2c:	d503201f 	nop
   80e30:	d503201f 	nop
   80e34:	d503201f 	nop
   80e38:	d503201f 	nop
   80e3c:	d503201f 	nop
   80e40:	d503201f 	nop
   80e44:	d503201f 	nop
   80e48:	d503201f 	nop
   80e4c:	d503201f 	nop
   80e50:	d503201f 	nop
   80e54:	d503201f 	nop
   80e58:	d503201f 	nop
   80e5c:	d503201f 	nop
   80e60:	d503201f 	nop
   80e64:	d503201f 	nop
   80e68:	d503201f 	nop
   80e6c:	d503201f 	nop
   80e70:	d503201f 	nop
   80e74:	d503201f 	nop
   80e78:	d503201f 	nop
   80e7c:	d503201f 	nop
   80e80:	17fffccc 	b	801b0 <hang>
   80e84:	d503201f 	nop
   80e88:	d503201f 	nop
   80e8c:	d503201f 	nop
   80e90:	d503201f 	nop
   80e94:	d503201f 	nop
   80e98:	d503201f 	nop
   80e9c:	d503201f 	nop
   80ea0:	d503201f 	nop
   80ea4:	d503201f 	nop
   80ea8:	d503201f 	nop
   80eac:	d503201f 	nop
   80eb0:	d503201f 	nop
   80eb4:	d503201f 	nop
   80eb8:	d503201f 	nop
   80ebc:	d503201f 	nop
   80ec0:	d503201f 	nop
   80ec4:	d503201f 	nop
   80ec8:	d503201f 	nop
   80ecc:	d503201f 	nop
   80ed0:	d503201f 	nop
   80ed4:	d503201f 	nop
   80ed8:	d503201f 	nop
   80edc:	d503201f 	nop
   80ee0:	d503201f 	nop
   80ee4:	d503201f 	nop
   80ee8:	d503201f 	nop
   80eec:	d503201f 	nop
   80ef0:	d503201f 	nop
   80ef4:	d503201f 	nop
   80ef8:	d503201f 	nop
   80efc:	d503201f 	nop
   80f00:	17fffcac 	b	801b0 <hang>
   80f04:	d503201f 	nop
   80f08:	d503201f 	nop
   80f0c:	d503201f 	nop
   80f10:	d503201f 	nop
   80f14:	d503201f 	nop
   80f18:	d503201f 	nop
   80f1c:	d503201f 	nop
   80f20:	d503201f 	nop
   80f24:	d503201f 	nop
   80f28:	d503201f 	nop
   80f2c:	d503201f 	nop
   80f30:	d503201f 	nop
   80f34:	d503201f 	nop
   80f38:	d503201f 	nop
   80f3c:	d503201f 	nop
   80f40:	d503201f 	nop
   80f44:	d503201f 	nop
   80f48:	d503201f 	nop
   80f4c:	d503201f 	nop
   80f50:	d503201f 	nop
   80f54:	d503201f 	nop
   80f58:	d503201f 	nop
   80f5c:	d503201f 	nop
   80f60:	d503201f 	nop
   80f64:	d503201f 	nop
   80f68:	d503201f 	nop
   80f6c:	d503201f 	nop
   80f70:	d503201f 	nop
   80f74:	d503201f 	nop
   80f78:	d503201f 	nop
   80f7c:	d503201f 	nop
   80f80:	17fffc8c 	b	801b0 <hang>
   80f84:	00000000 	udf	#0
   80f88:	00092af0 	.word	0x00092af0
   80f8c:	00000000 	.word	0x00000000
   80f90:	00092af8 	.word	0x00092af8
   80f94:	00000000 	.word	0x00000000

Disassembly of section .text:

0000000000080fc0 <EnableInterrupts>:
   80fc0:	d50342ff 	msr	daifclr, #0x2
   80fc4:	d65f03c0 	ret

0000000000080fc8 <DisableInterrupts>:
   80fc8:	d50342df 	msr	daifset, #0x2
   80fcc:	d65f03c0 	ret

0000000000080fd0 <CoreExecute>:
   80fd0:	d5033fbf 	dmb	sy
   80fd4:	d0000082 	adrp	x2, 92000 <BitFont+0xbc0>
   80fd8:	b94b0c42 	ldr	w2, [x2, #2828]
   80fdc:	12001c00 	and	w0, w0, #0xff
   80fe0:	6b02001f 	cmp	w0, w2
   80fe4:	54000122 	b.cs	81008 <CoreExecuteFail>  // b.hs, b.nlast
   80fe8:	d37e1c00 	ubfiz	x0, x0, #2, #8
   80fec:	d2801182 	mov	x2, #0x8c                  	// #140
   80ff0:	f2a80002 	movk	x2, #0x4000, lsl #16
   80ff4:	b8207841 	str	w1, [x2, x0, lsl #2]
   80ff8:	d503209f 	sev
   80ffc:	d5033fbf 	dmb	sy
   81000:	52800020 	mov	w0, #0x1                   	// #1
   81004:	d65f03c0 	ret

0000000000081008 <CoreExecuteFail>:
   81008:	d5033fbf 	dmb	sy
   8100c:	d2800000 	mov	x0, #0x0                   	// #0
   81010:	d65f03c0 	ret

0000000000081014 <PUT32>:
   81014:	b9000001 	str	w1, [x0]
   81018:	d65f03c0 	ret

000000000008101c <GET32>:
   8101c:	b9400000 	ldr	w0, [x0]
   81020:	d65f03c0 	ret

0000000000081024 <ARMaddrToGPUaddr>:
   81024:	d2b80001 	mov	x1, #0xc0000000            	// #3221225472
   81028:	aa010000 	orr	x0, x0, x1
   8102c:	d65f03c0 	ret

0000000000081030 <GPUaddrToARMaddr>:
   81030:	92b80001 	mov	x1, #0xffffffff3fffffff    	// #-3221225473
   81034:	8a010000 	and	x0, x0, x1
   81038:	d65f03c0 	ret
   8103c:	00000000 	udf	#0

0000000000081040 <setIrqFuncAddress>:
   81040:	d50342df 	msr	daifset, #0x2
   81044:	580000a1 	ldr	x1, 81058 <setIrqFuncAddress+0x18>
   81048:	f9400022 	ldr	x2, [x1]
   8104c:	f9000020 	str	x0, [x1]
   81050:	aa0203e0 	mov	x0, x2
   81054:	d65f03c0 	ret
   81058:	00092af0 	.word	0x00092af0
   8105c:	00000000 	.word	0x00000000

0000000000081060 <setFiqFuncAddress>:
   81060:	d50342df 	msr	daifset, #0x2
   81064:	580000a1 	ldr	x1, 81078 <setFiqFuncAddress+0x18>
   81068:	f9400022 	ldr	x2, [x1]
   8106c:	f9000020 	str	x0, [x1]
   81070:	aa0203e0 	mov	x0, x2
   81074:	d65f03c0 	ret
   81078:	00092af8 	.word	0x00092af8
   8107c:	00000000 	.word	0x00000000

0000000000081080 <_doprnt>:
   81080:	a9ad7bfd 	stp	x29, x30, [sp, #-304]!
   81084:	910003fd 	mov	x29, sp
   81088:	a90153f3 	stp	x19, x20, [sp, #16]
   8108c:	aa0003f3 	mov	x19, x0
   81090:	a9025bf5 	stp	x21, x22, [sp, #32]
   81094:	aa0203f5 	mov	x21, x2
   81098:	a90363f7 	stp	x23, x24, [sp, #48]
   8109c:	a9046bf9 	stp	x25, x26, [sp, #64]
   810a0:	b940183a 	ldr	w26, [x1, #24]
   810a4:	39400000 	ldrb	w0, [x0]
   810a8:	a9400837 	ldp	x23, x2, [x1]
   810ac:	f9003be2 	str	x2, [sp, #112]
   810b0:	34004dc0 	cbz	w0, 81a68 <_doprnt+0x9e8>
   810b4:	aa0303f6 	mov	x22, x3
   810b8:	52800014 	mov	w20, #0x0                   	// #0
   810bc:	14000009 	b	810e0 <_doprnt+0x60>
   810c0:	aa1603e1 	mov	x1, x22
   810c4:	d63f02a0 	blr	x21
   810c8:	3100041f 	cmn	w0, #0x1
   810cc:	54000200 	b.eq	8110c <_doprnt+0x8c>  // b.none
   810d0:	11000694 	add	w20, w20, #0x1
   810d4:	91000673 	add	x19, x19, #0x1
   810d8:	39400260 	ldrb	w0, [x19]
   810dc:	340001a0 	cbz	w0, 81110 <_doprnt+0x90>
   810e0:	7100941f 	cmp	w0, #0x25
   810e4:	54fffee1 	b.ne	810c0 <_doprnt+0x40>  // b.any
   810e8:	39400661 	ldrb	w1, [x19, #1]
   810ec:	91000662 	add	x2, x19, #0x1
   810f0:	7100943f 	cmp	w1, #0x25
   810f4:	540001c1 	b.ne	8112c <_doprnt+0xac>  // b.any
   810f8:	aa0203f3 	mov	x19, x2
   810fc:	aa1603e1 	mov	x1, x22
   81100:	d63f02a0 	blr	x21
   81104:	3100041f 	cmn	w0, #0x1
   81108:	54fffe41 	b.ne	810d0 <_doprnt+0x50>  // b.any
   8110c:	12800014 	mov	w20, #0xffffffff            	// #-1
   81110:	a9425bf5 	ldp	x21, x22, [sp, #32]
   81114:	2a1403e0 	mov	w0, w20
   81118:	a94153f3 	ldp	x19, x20, [sp, #16]
   8111c:	a94363f7 	ldp	x23, x24, [sp, #48]
   81120:	a9446bf9 	ldp	x25, x26, [sp, #64]
   81124:	a8d37bfd 	ldp	x29, x30, [sp], #304
   81128:	d65f03c0 	ret
   8112c:	52800419 	mov	w25, #0x20                  	// #32
   81130:	52800009 	mov	w9, #0x0                   	// #0
   81134:	a90573fb 	stp	x27, x28, [sp, #80]
   81138:	5280001b 	mov	w27, #0x0                   	// #0
   8113c:	7100b43f 	cmp	w1, #0x2d
   81140:	54000700 	b.eq	81220 <_doprnt+0x1a0>  // b.none
   81144:	7100c03f 	cmp	w1, #0x30
   81148:	54000780 	b.eq	81238 <_doprnt+0x1b8>  // b.none
   8114c:	71008c3f 	cmp	w1, #0x23
   81150:	540006e0 	b.eq	8122c <_doprnt+0x1ac>  // b.none
   81154:	7100a83f 	cmp	w1, #0x2a
   81158:	54000761 	b.ne	81244 <_doprnt+0x1c4>  // b.any
   8115c:	37f822fa 	tbnz	w26, #31, 815b8 <_doprnt+0x538>
   81160:	91002ee3 	add	x3, x23, #0xb
   81164:	aa1703e1 	mov	x1, x23
   81168:	927df077 	and	x23, x3, #0xfffffffffffffff8
   8116c:	b9400038 	ldr	w24, [x1]
   81170:	91000442 	add	x2, x2, #0x1
   81174:	39400041 	ldrb	w1, [x2]
   81178:	37f82178 	tbnz	w24, #31, 815a4 <_doprnt+0x524>
   8117c:	7100037f 	cmp	w27, #0x0
   81180:	52800403 	mov	w3, #0x20                  	// #32
   81184:	5200037c 	eor	w28, w27, #0x1
   81188:	1a830339 	csel	w25, w25, w3, eq	// eq = none
   8118c:	7100b83f 	cmp	w1, #0x2e
   81190:	12800005 	mov	w5, #0xffffffff            	// #-1
   81194:	54000a80 	b.eq	812e4 <_doprnt+0x264>  // b.none
   81198:	7101b03f 	cmp	w1, #0x6c
   8119c:	54000700 	b.eq	8127c <_doprnt+0x1fc>  // b.none
   811a0:	7101a03f 	cmp	w1, #0x68
   811a4:	52800043 	mov	w3, #0x2                   	// #2
   811a8:	54002400 	b.eq	81628 <_doprnt+0x5a8>  // b.none
   811ac:	7101bc3f 	cmp	w1, #0x6f
   811b0:	54002d60 	b.eq	8175c <_doprnt+0x6dc>  // b.none
   811b4:	54000ae8 	b.hi	81310 <_doprnt+0x290>  // b.pmore
   811b8:	7101883f 	cmp	w1, #0x62
   811bc:	54001be0 	b.eq	81538 <_doprnt+0x4b8>  // b.none
   811c0:	54003689 	b.ls	81890 <_doprnt+0x810>  // b.plast
   811c4:	71018c3f 	cmp	w1, #0x63
   811c8:	54002dc0 	b.eq	81780 <_doprnt+0x700>  // b.none
   811cc:	7101903f 	cmp	w1, #0x64
   811d0:	54000060 	b.eq	811dc <_doprnt+0x15c>  // b.none
   811d4:	7101a43f 	cmp	w1, #0x69
   811d8:	54003441 	b.ne	81860 <_doprnt+0x7e0>  // b.any
   811dc:	37f83f9a 	tbnz	w26, #31, 819cc <_doprnt+0x94c>
   811e0:	91002ee0 	add	x0, x23, #0xb
   811e4:	927df000 	and	x0, x0, #0xfffffffffffffff8
   811e8:	f90047e0 	str	x0, [sp, #136]
   811ec:	b98002e0 	ldrsw	x0, [x23]
   811f0:	b9006fff 	str	wzr, [sp, #108]
   811f4:	52800006 	mov	w6, #0x0                   	// #0
   811f8:	b6f80080 	tbz	x0, #63, 81208 <_doprnt+0x188>
   811fc:	cb0003e0 	neg	x0, x0
   81200:	52800026 	mov	w6, #0x1                   	// #1
   81204:	b9006fe6 	str	w6, [sp, #108]
   81208:	91000453 	add	x19, x2, #0x1
   8120c:	52800008 	mov	w8, #0x0                   	// #0
   81210:	d2800147 	mov	x7, #0xa                   	// #10
   81214:	5280000a 	mov	w10, #0x0                   	// #0
   81218:	52800017 	mov	w23, #0x0                   	// #0
   8121c:	1400007f 	b	81418 <_doprnt+0x398>
   81220:	38401c41 	ldrb	w1, [x2, #1]!
   81224:	5280003b 	mov	w27, #0x1                   	// #1
   81228:	17ffffc5 	b	8113c <_doprnt+0xbc>
   8122c:	38401c41 	ldrb	w1, [x2, #1]!
   81230:	52800029 	mov	w9, #0x1                   	// #1
   81234:	17ffffc2 	b	8113c <_doprnt+0xbc>
   81238:	2a0103f9 	mov	w25, w1
   8123c:	38401c41 	ldrb	w1, [x2, #1]!
   81240:	17ffffbf 	b	8113c <_doprnt+0xbc>
   81244:	5100c023 	sub	w3, w1, #0x30
   81248:	52800018 	mov	w24, #0x0                   	// #0
   8124c:	12001c65 	and	w5, w3, #0xff
   81250:	52800146 	mov	w6, #0xa                   	// #10
   81254:	710024bf 	cmp	w5, #0x9
   81258:	54fff928 	b.hi	8117c <_doprnt+0xfc>  // b.pmore
   8125c:	d503201f 	nop
   81260:	38401c41 	ldrb	w1, [x2, #1]!
   81264:	1b060f18 	madd	w24, w24, w6, w3
   81268:	5100c023 	sub	w3, w1, #0x30
   8126c:	12001c65 	and	w5, w3, #0xff
   81270:	710024bf 	cmp	w5, #0x9
   81274:	54ffff69 	b.ls	81260 <_doprnt+0x1e0>  // b.plast
   81278:	17ffffc1 	b	8117c <_doprnt+0xfc>
   8127c:	39400441 	ldrb	w1, [x2, #1]
   81280:	91000442 	add	x2, x2, #0x1
   81284:	7101bc3f 	cmp	w1, #0x6f
   81288:	54002680 	b.eq	81758 <_doprnt+0x6d8>  // b.none
   8128c:	54000668 	b.hi	81358 <_doprnt+0x2d8>  // b.pmore
   81290:	71018c3f 	cmp	w1, #0x63
   81294:	54002760 	b.eq	81780 <_doprnt+0x700>  // b.none
   81298:	54002dc8 	b.hi	81850 <_doprnt+0x7d0>  // b.pmore
   8129c:	7101603f 	cmp	w1, #0x58
   812a0:	54003620 	b.eq	81964 <_doprnt+0x8e4>  // b.none
   812a4:	7101883f 	cmp	w1, #0x62
   812a8:	54002dc1 	b.ne	81860 <_doprnt+0x7e0>  // b.any
   812ac:	52800028 	mov	w8, #0x1                   	// #1
   812b0:	52800001 	mov	w1, #0x0                   	// #0
   812b4:	d2800047 	mov	x7, #0x2                   	// #2
   812b8:	5280000a 	mov	w10, #0x0                   	// #0
   812bc:	37f8315a 	tbnz	w26, #31, 818e4 <_doprnt+0x864>
   812c0:	91003ee0 	add	x0, x23, #0xf
   812c4:	927df000 	and	x0, x0, #0xfffffffffffffff8
   812c8:	f90047e0 	str	x0, [sp, #136]
   812cc:	f94002e0 	ldr	x0, [x23]
   812d0:	f100001f 	cmp	x0, #0x0
   812d4:	1a9f07e3 	cset	w3, ne	// ne = any
   812d8:	0a030021 	and	w1, w1, w3
   812dc:	b9006fe1 	str	w1, [sp, #108]
   812e0:	14000046 	b	813f8 <_doprnt+0x378>
   812e4:	39400441 	ldrb	w1, [x2, #1]
   812e8:	7100a83f 	cmp	w1, #0x2a
   812ec:	54000501 	b.ne	8138c <_doprnt+0x30c>  // b.any
   812f0:	37f82e3a 	tbnz	w26, #31, 818b4 <_doprnt+0x834>
   812f4:	91002ee3 	add	x3, x23, #0xb
   812f8:	aa1703e1 	mov	x1, x23
   812fc:	927df077 	and	x23, x3, #0xfffffffffffffff8
   81300:	b9400025 	ldr	w5, [x1]
   81304:	91000842 	add	x2, x2, #0x2
   81308:	39400041 	ldrb	w1, [x2]
   8130c:	17ffffa3 	b	81198 <_doprnt+0x118>
   81310:	7101d43f 	cmp	w1, #0x75
   81314:	54000580 	b.eq	813c4 <_doprnt+0x344>  // b.none
   81318:	54002a88 	b.hi	81868 <_doprnt+0x7e8>  // b.pmore
   8131c:	7101c03f 	cmp	w1, #0x70
   81320:	540025c0 	b.eq	817d8 <_doprnt+0x758>  // b.none
   81324:	7101cc3f 	cmp	w1, #0x73
   81328:	540029c1 	b.ne	81860 <_doprnt+0x7e0>  // b.any
   8132c:	37f82eda 	tbnz	w26, #31, 81904 <_doprnt+0x884>
   81330:	91003ee0 	add	x0, x23, #0xf
   81334:	927df000 	and	x0, x0, #0xfffffffffffffff8
   81338:	f90047e0 	str	x0, [sp, #136]
   8133c:	f94002e1 	ldr	x1, [x23]
   81340:	f0000060 	adrp	x0, 90000 <__sflush_r+0x40>
   81344:	91100000 	add	x0, x0, #0x400
   81348:	f100003f 	cmp	x1, #0x0
   8134c:	9a810000 	csel	x0, x0, x1, eq	// eq = none
   81350:	f9003fe0 	str	x0, [sp, #120]
   81354:	14000115 	b	817a8 <_doprnt+0x728>
   81358:	7101d43f 	cmp	w1, #0x75
   8135c:	54003700 	b.eq	81a3c <_doprnt+0x9bc>  // b.none
   81360:	54fffde9 	b.ls	8131c <_doprnt+0x29c>  // b.plast
   81364:	7101e03f 	cmp	w1, #0x78
   81368:	540027c1 	b.ne	81860 <_doprnt+0x7e0>  // b.any
   8136c:	7100053f 	cmp	w9, #0x1
   81370:	52800088 	mov	w8, #0x4                   	// #4
   81374:	52800001 	mov	w1, #0x0                   	// #0
   81378:	d2800207 	mov	x7, #0x10                  	// #16
   8137c:	5280000a 	mov	w10, #0x0                   	// #0
   81380:	54fff9e1 	b.ne	812bc <_doprnt+0x23c>  // b.any
   81384:	52800069 	mov	w9, #0x3                   	// #3
   81388:	17ffffcd 	b	812bc <_doprnt+0x23c>
   8138c:	5100c023 	sub	w3, w1, #0x30
   81390:	91000442 	add	x2, x2, #0x1
   81394:	12001c66 	and	w6, w3, #0xff
   81398:	52800005 	mov	w5, #0x0                   	// #0
   8139c:	710024df 	cmp	w6, #0x9
   813a0:	52800147 	mov	w7, #0xa                   	// #10
   813a4:	54ffefa8 	b.hi	81198 <_doprnt+0x118>  // b.pmore
   813a8:	38401c41 	ldrb	w1, [x2, #1]!
   813ac:	1b070ca5 	madd	w5, w5, w7, w3
   813b0:	5100c023 	sub	w3, w1, #0x30
   813b4:	12001c66 	and	w6, w3, #0xff
   813b8:	710024df 	cmp	w6, #0x9
   813bc:	54ffff69 	b.ls	813a8 <_doprnt+0x328>  // b.plast
   813c0:	17ffff76 	b	81198 <_doprnt+0x118>
   813c4:	52800008 	mov	w8, #0x0                   	// #0
   813c8:	d2800147 	mov	x7, #0xa                   	// #10
   813cc:	52800001 	mov	w1, #0x0                   	// #0
   813d0:	5280000a 	mov	w10, #0x0                   	// #0
   813d4:	37f8191a 	tbnz	w26, #31, 816f4 <_doprnt+0x674>
   813d8:	91002ee0 	add	x0, x23, #0xb
   813dc:	927df000 	and	x0, x0, #0xfffffffffffffff8
   813e0:	f90047e0 	str	x0, [sp, #136]
   813e4:	b94002e0 	ldr	w0, [x23]
   813e8:	f100001f 	cmp	x0, #0x0
   813ec:	1a9f07e3 	cset	w3, ne	// ne = any
   813f0:	0a030021 	and	w1, w1, w3
   813f4:	b9006fe1 	str	w1, [sp, #108]
   813f8:	b9406fe1 	ldr	w1, [sp, #108]
   813fc:	91000453 	add	x19, x2, #0x1
   81400:	34003081 	cbz	w1, 81a10 <_doprnt+0x990>
   81404:	52800601 	mov	w1, #0x30                  	// #48
   81408:	52800006 	mov	w6, #0x0                   	// #0
   8140c:	52800037 	mov	w23, #0x1                   	// #1
   81410:	b9006fff 	str	wzr, [sp, #108]
   81414:	390263e1 	strb	w1, [sp, #152]
   81418:	90000081 	adrp	x1, 91000 <__text_end__+0xc00>
   8141c:	91108021 	add	x1, x1, #0x420
   81420:	3903a3ff 	strb	wzr, [sp, #232]
   81424:	7100015f 	cmp	w10, #0x0
   81428:	91004029 	add	x9, x1, #0x10
   8142c:	9a810129 	csel	x9, x9, x1, eq	// eq = none
   81430:	35000d48 	cbnz	w8, 815d8 <_doprnt+0x558>
   81434:	9ac70802 	udiv	x2, x0, x7
   81438:	eb0000ff 	cmp	x7, x0
   8143c:	9b078040 	msub	x0, x2, x7, x0
   81440:	38606921 	ldrb	w1, [x9, x0]
   81444:	3903a7e1 	strb	w1, [sp, #233]
   81448:	54003148 	b.hi	81a70 <_doprnt+0x9f0>  // b.pmore
   8144c:	9103a3e3 	add	x3, sp, #0xe8
   81450:	52800020 	mov	w0, #0x1                   	// #1
   81454:	aa0303e8 	mov	x8, x3
   81458:	9ac70841 	udiv	x1, x2, x7
   8145c:	eb0200ff 	cmp	x7, x2
   81460:	11000400 	add	w0, w0, #0x1
   81464:	91000508 	add	x8, x8, #0x1
   81468:	9b07882a 	msub	x10, x1, x7, x2
   8146c:	aa0103e2 	mov	x2, x1
   81470:	386a6921 	ldrb	w1, [x9, x10]
   81474:	39000501 	strb	w1, [x8, #1]
   81478:	54ffff09 	b.ls	81458 <_doprnt+0x3d8>  // b.plast
   8147c:	93407c00 	sxtw	x0, w0
   81480:	910283e2 	add	x2, sp, #0xa0
   81484:	8b000063 	add	x3, x3, x0
   81488:	8b000042 	add	x2, x2, x0
   8148c:	910283e0 	add	x0, sp, #0xa0
   81490:	14000002 	b	81498 <_doprnt+0x418>
   81494:	39400061 	ldrb	w1, [x3]
   81498:	39000001 	strb	w1, [x0]
   8149c:	eb00005f 	cmp	x2, x0
   814a0:	d1000463 	sub	x3, x3, #0x1
   814a4:	91000400 	add	x0, x0, #0x1
   814a8:	54ffff61 	b.ne	81494 <_doprnt+0x414>  // b.any
   814ac:	910283e0 	add	x0, sp, #0xa0
   814b0:	b9006be5 	str	w5, [sp, #104]
   814b4:	b9007be6 	str	w6, [sp, #120]
   814b8:	94002ba2 	bl	8c340 <strlen>
   814bc:	b9406be5 	ldr	w5, [sp, #104]
   814c0:	b90083e0 	str	w0, [sp, #128]
   814c4:	b9407be6 	ldr	w6, [sp, #120]
   814c8:	37f80e25 	tbnz	w5, #31, 8168c <_doprnt+0x60c>
   814cc:	6b0000bf 	cmp	w5, w0
   814d0:	5400122d 	b.le	81714 <_doprnt+0x694>
   814d4:	4b0000a0 	sub	w0, w5, w0
   814d8:	b9006be0 	str	w0, [sp, #104]
   814dc:	0b0500c0 	add	w0, w6, w5
   814e0:	6b18001f 	cmp	w0, w24
   814e4:	54000f0b 	b.lt	816c4 <_doprnt+0x644>  // b.tstop
   814e8:	910283e0 	add	x0, sp, #0xa0
   814ec:	52800419 	mov	w25, #0x20                  	// #32
   814f0:	f9003fe0 	str	x0, [sp, #120]
   814f4:	b90087ff 	str	wzr, [sp, #132]
   814f8:	340002b7 	cbz	w23, 8154c <_doprnt+0x4cc>
   814fc:	910263f8 	add	x24, sp, #0x98
   81500:	d280001c 	mov	x28, #0x0                   	// #0
   81504:	14000004 	b	81514 <_doprnt+0x494>
   81508:	6b0102ff 	cmp	w23, w1
   8150c:	540001cd 	b.le	81544 <_doprnt+0x4c4>
   81510:	d280003c 	mov	x28, #0x1                   	// #1
   81514:	387c6b00 	ldrb	w0, [x24, x28]
   81518:	aa1603e1 	mov	x1, x22
   8151c:	d63f02a0 	blr	x21
   81520:	3100041f 	cmn	w0, #0x1
   81524:	91000781 	add	x1, x28, #0x1
   81528:	54ffff01 	b.ne	81508 <_doprnt+0x488>  // b.any
   8152c:	a94573fb 	ldp	x27, x28, [sp, #80]
   81530:	12800014 	mov	w20, #0xffffffff            	// #-1
   81534:	17fffef7 	b	81110 <_doprnt+0x90>
   81538:	52800028 	mov	w8, #0x1                   	// #1
   8153c:	d2800047 	mov	x7, #0x2                   	// #2
   81540:	17ffffa3 	b	813cc <_doprnt+0x34c>
   81544:	11000694 	add	w20, w20, #0x1
   81548:	0b1c0294 	add	w20, w20, w28
   8154c:	34000ebb 	cbz	w27, 81720 <_doprnt+0x6a0>
   81550:	b9406fe0 	ldr	w0, [sp, #108]
   81554:	340000e0 	cbz	w0, 81570 <_doprnt+0x4f0>
   81558:	aa1603e1 	mov	x1, x22
   8155c:	528005a0 	mov	w0, #0x2d                  	// #45
   81560:	d63f02a0 	blr	x21
   81564:	3100041f 	cmn	w0, #0x1
   81568:	54fffe20 	b.eq	8152c <_doprnt+0x4ac>  // b.none
   8156c:	11000694 	add	w20, w20, #0x1
   81570:	b9406be0 	ldr	w0, [sp, #104]
   81574:	0b140017 	add	w23, w0, w20
   81578:	35000080 	cbnz	w0, 81588 <_doprnt+0x508>
   8157c:	14000031 	b	81640 <_doprnt+0x5c0>
   81580:	6b17029f 	cmp	w20, w23
   81584:	54000620 	b.eq	81648 <_doprnt+0x5c8>  // b.none
   81588:	aa1603e1 	mov	x1, x22
   8158c:	52800600 	mov	w0, #0x30                  	// #48
   81590:	11000694 	add	w20, w20, #0x1
   81594:	d63f02a0 	blr	x21
   81598:	3100041f 	cmn	w0, #0x1
   8159c:	54ffff21 	b.ne	81580 <_doprnt+0x500>  // b.any
   815a0:	17ffffe3 	b	8152c <_doprnt+0x4ac>
   815a4:	4b1803f8 	neg	w24, w24
   815a8:	5280001c 	mov	w28, #0x0                   	// #0
   815ac:	5280003b 	mov	w27, #0x1                   	// #1
   815b0:	52800419 	mov	w25, #0x20                  	// #32
   815b4:	17fffef6 	b	8118c <_doprnt+0x10c>
   815b8:	11002343 	add	w3, w26, #0x8
   815bc:	7100007f 	cmp	w3, #0x0
   815c0:	540012ed 	b.le	8181c <_doprnt+0x79c>
   815c4:	91002ee4 	add	x4, x23, #0xb
   815c8:	aa1703e1 	mov	x1, x23
   815cc:	2a0303fa 	mov	w26, w3
   815d0:	927df097 	and	x23, x4, #0xfffffffffffffff8
   815d4:	17fffee6 	b	8116c <_doprnt+0xec>
   815d8:	9280000a 	mov	x10, #0xffffffffffffffff    	// #-1
   815dc:	9ac82402 	lsr	x2, x0, x8
   815e0:	9ac8214a 	lsl	x10, x10, x8
   815e4:	8a2a0000 	bic	x0, x0, x10
   815e8:	9103a3e3 	add	x3, sp, #0xe8
   815ec:	aa2a03ea 	mvn	x10, x10
   815f0:	38606921 	ldrb	w1, [x9, x0]
   815f4:	52800020 	mov	w0, #0x1                   	// #1
   815f8:	3903a7e1 	strb	w1, [sp, #233]
   815fc:	b4fff402 	cbz	x2, 8147c <_doprnt+0x3fc>
   81600:	aa0303e7 	mov	x7, x3
   81604:	d503201f 	nop
   81608:	8a020141 	and	x1, x10, x2
   8160c:	11000400 	add	w0, w0, #0x1
   81610:	910004e7 	add	x7, x7, #0x1
   81614:	9ac82442 	lsr	x2, x2, x8
   81618:	38616921 	ldrb	w1, [x9, x1]
   8161c:	390004e1 	strb	w1, [x7, #1]
   81620:	b5ffff42 	cbnz	x2, 81608 <_doprnt+0x588>
   81624:	17ffff96 	b	8147c <_doprnt+0x3fc>
   81628:	39400441 	ldrb	w1, [x2, #1]
   8162c:	7101a03f 	cmp	w1, #0x68
   81630:	54001520 	b.eq	818d4 <_doprnt+0x854>  // b.none
   81634:	91000442 	add	x2, x2, #0x1
   81638:	52800023 	mov	w3, #0x1                   	// #1
   8163c:	17fffedc 	b	811ac <_doprnt+0x12c>
   81640:	2a1403f7 	mov	w23, w20
   81644:	d503201f 	nop
   81648:	b94083e0 	ldr	w0, [sp, #128]
   8164c:	7100001f 	cmp	w0, #0x0
   81650:	540025ed 	b.le	81b0c <_doprnt+0xa8c>
   81654:	f9403ff8 	ldr	x24, [sp, #120]
   81658:	8b20c314 	add	x20, x24, w0, sxtw
   8165c:	14000004 	b	8166c <_doprnt+0x5ec>
   81660:	eb01029f 	cmp	x20, x1
   81664:	54000e40 	b.eq	8182c <_doprnt+0x7ac>  // b.none
   81668:	aa0103f8 	mov	x24, x1
   8166c:	39400300 	ldrb	w0, [x24]
   81670:	aa1603e1 	mov	x1, x22
   81674:	d63f02a0 	blr	x21
   81678:	3100041f 	cmn	w0, #0x1
   8167c:	91000701 	add	x1, x24, #0x1
   81680:	54ffff01 	b.ne	81660 <_doprnt+0x5e0>  // b.any
   81684:	a94573fb 	ldp	x27, x28, [sp, #80]
   81688:	17ffffaa 	b	81530 <_doprnt+0x4b0>
   8168c:	0b0000c0 	add	w0, w6, w0
   81690:	910283e1 	add	x1, sp, #0xa0
   81694:	f9003fe1 	str	x1, [sp, #120]
   81698:	7100c33f 	cmp	w25, #0x30
   8169c:	52800002 	mov	w2, #0x0                   	// #0
   816a0:	1a9f17e1 	cset	w1, eq	// eq = none
   816a4:	6b00031f 	cmp	w24, w0
   816a8:	0a010381 	and	w1, w28, w1
   816ac:	5400016c 	b.gt	816d8 <_doprnt+0x658>
   816b0:	b9006bff 	str	wzr, [sp, #104]
   816b4:	34000181 	cbz	w1, 816e4 <_doprnt+0x664>
   816b8:	b90087ff 	str	wzr, [sp, #132]
   816bc:	35fff217 	cbnz	w23, 814fc <_doprnt+0x47c>
   816c0:	17ffffa4 	b	81550 <_doprnt+0x4d0>
   816c4:	b9406be2 	ldr	w2, [sp, #104]
   816c8:	910283e1 	add	x1, sp, #0xa0
   816cc:	52800419 	mov	w25, #0x20                  	// #32
   816d0:	f9003fe1 	str	x1, [sp, #120]
   816d4:	52800001 	mov	w1, #0x0                   	// #0
   816d8:	4b000300 	sub	w0, w24, w0
   816dc:	b9006be0 	str	w0, [sp, #104]
   816e0:	35fffec1 	cbnz	w1, 816b8 <_doprnt+0x638>
   816e4:	b9406be0 	ldr	w0, [sp, #104]
   816e8:	b9006be2 	str	w2, [sp, #104]
   816ec:	b90087e0 	str	w0, [sp, #132]
   816f0:	17ffff82 	b	814f8 <_doprnt+0x478>
   816f4:	11002340 	add	w0, w26, #0x8
   816f8:	7100001f 	cmp	w0, #0x0
   816fc:	540017ed 	b.le	819f8 <_doprnt+0x978>
   81700:	91002ee3 	add	x3, x23, #0xb
   81704:	2a0003fa 	mov	w26, w0
   81708:	927df060 	and	x0, x3, #0xfffffffffffffff8
   8170c:	f90047e0 	str	x0, [sp, #136]
   81710:	17ffff35 	b	813e4 <_doprnt+0x364>
   81714:	2a0003e5 	mov	w5, w0
   81718:	b9006bff 	str	wzr, [sp, #104]
   8171c:	17ffff70 	b	814dc <_doprnt+0x45c>
   81720:	b94087e0 	ldr	w0, [sp, #132]
   81724:	34fff160 	cbz	w0, 81550 <_doprnt+0x4d0>
   81728:	0b140017 	add	w23, w0, w20
   8172c:	14000003 	b	81738 <_doprnt+0x6b8>
   81730:	6b17029f 	cmp	w20, w23
   81734:	54fff0e0 	b.eq	81550 <_doprnt+0x4d0>  // b.none
   81738:	aa1603e1 	mov	x1, x22
   8173c:	2a1903e0 	mov	w0, w25
   81740:	11000694 	add	w20, w20, #0x1
   81744:	d63f02a0 	blr	x21
   81748:	3100041f 	cmn	w0, #0x1
   8174c:	54ffff21 	b.ne	81730 <_doprnt+0x6b0>  // b.any
   81750:	a94573fb 	ldp	x27, x28, [sp, #80]
   81754:	17ffff77 	b	81530 <_doprnt+0x4b0>
   81758:	52800063 	mov	w3, #0x3                   	// #3
   8175c:	531f1929 	ubfiz	w9, w9, #1, #7
   81760:	52800068 	mov	w8, #0x3                   	// #3
   81764:	7100093f 	cmp	w9, #0x2
   81768:	d2800107 	mov	x7, #0x8                   	// #8
   8176c:	1a9f17e1 	cset	w1, eq	// eq = none
   81770:	5280000a 	mov	w10, #0x0                   	// #0
   81774:	71000c7f 	cmp	w3, #0x3
   81778:	54ffe2e1 	b.ne	813d4 <_doprnt+0x354>  // b.any
   8177c:	17fffed0 	b	812bc <_doprnt+0x23c>
   81780:	37f80d3a 	tbnz	w26, #31, 81924 <_doprnt+0x8a4>
   81784:	91002ee0 	add	x0, x23, #0xb
   81788:	927df000 	and	x0, x0, #0xfffffffffffffff8
   8178c:	f90047e0 	str	x0, [sp, #136]
   81790:	b94002e0 	ldr	w0, [x23]
   81794:	910283e1 	add	x1, sp, #0xa0
   81798:	390283e0 	strb	w0, [sp, #160]
   8179c:	aa0103e0 	mov	x0, x1
   817a0:	f9003fe1 	str	x1, [sp, #120]
   817a4:	390287ff 	strb	wzr, [sp, #161]
   817a8:	91000453 	add	x19, x2, #0x1
   817ac:	b9006be5 	str	w5, [sp, #104]
   817b0:	94002ae4 	bl	8c340 <strlen>
   817b4:	b90083e0 	str	w0, [sp, #128]
   817b8:	b9406be5 	ldr	w5, [sp, #104]
   817bc:	37f81185 	tbnz	w5, #31, 819ec <_doprnt+0x96c>
   817c0:	6b05001f 	cmp	w0, w5
   817c4:	52800017 	mov	w23, #0x0                   	// #0
   817c8:	1a85d000 	csel	w0, w0, w5, le
   817cc:	b9006fff 	str	wzr, [sp, #108]
   817d0:	b90083e0 	str	w0, [sp, #128]
   817d4:	17ffffb1 	b	81698 <_doprnt+0x618>
   817d8:	37f80b7a 	tbnz	w26, #31, 81944 <_doprnt+0x8c4>
   817dc:	91003ee0 	add	x0, x23, #0xf
   817e0:	927df000 	and	x0, x0, #0xfffffffffffffff8
   817e4:	f90047e0 	str	x0, [sp, #136]
   817e8:	f94002e0 	ldr	x0, [x23]
   817ec:	91000453 	add	x19, x2, #0x1
   817f0:	52800088 	mov	w8, #0x4                   	// #4
   817f4:	d2800207 	mov	x7, #0x10                  	// #16
   817f8:	5280000a 	mov	w10, #0x0                   	// #0
   817fc:	52800118 	mov	w24, #0x8                   	// #8
   81800:	52800619 	mov	w25, #0x30                  	// #48
   81804:	528f0601 	mov	w1, #0x7830                	// #30768
   81808:	52800006 	mov	w6, #0x0                   	// #0
   8180c:	52800057 	mov	w23, #0x2                   	// #2
   81810:	b9006fff 	str	wzr, [sp, #108]
   81814:	790133e1 	strh	w1, [sp, #152]
   81818:	17ffff00 	b	81418 <_doprnt+0x398>
   8181c:	f9403be1 	ldr	x1, [sp, #112]
   81820:	8b3ac021 	add	x1, x1, w26, sxtw
   81824:	2a0303fa 	mov	w26, w3
   81828:	17fffe51 	b	8116c <_doprnt+0xec>
   8182c:	b9407be0 	ldr	w0, [sp, #120]
   81830:	0b1802f8 	add	w24, w23, w24
   81834:	52800034 	mov	w20, #0x1                   	// #1
   81838:	4b000294 	sub	w20, w20, w0
   8183c:	0b180294 	add	w20, w20, w24
   81840:	f94047f7 	ldr	x23, [sp, #136]
   81844:	350009db 	cbnz	w27, 8197c <_doprnt+0x8fc>
   81848:	a94573fb 	ldp	x27, x28, [sp, #80]
   8184c:	17fffe23 	b	810d8 <_doprnt+0x58>
   81850:	7101903f 	cmp	w1, #0x64
   81854:	54000e80 	b.eq	81a24 <_doprnt+0x9a4>  // b.none
   81858:	7101a43f 	cmp	w1, #0x69
   8185c:	54000e40 	b.eq	81a24 <_doprnt+0x9a4>  // b.none
   81860:	a94573fb 	ldp	x27, x28, [sp, #80]
   81864:	17fffe17 	b	810c0 <_doprnt+0x40>
   81868:	7101e03f 	cmp	w1, #0x78
   8186c:	54ffffa1 	b.ne	81860 <_doprnt+0x7e0>  // b.any
   81870:	7100053f 	cmp	w9, #0x1
   81874:	52800088 	mov	w8, #0x4                   	// #4
   81878:	52800001 	mov	w1, #0x0                   	// #0
   8187c:	d2800207 	mov	x7, #0x10                  	// #16
   81880:	5280000a 	mov	w10, #0x0                   	// #0
   81884:	54ffda81 	b.ne	813d4 <_doprnt+0x354>  // b.any
   81888:	52800069 	mov	w9, #0x3                   	// #3
   8188c:	17fffed2 	b	813d4 <_doprnt+0x354>
   81890:	7101603f 	cmp	w1, #0x58
   81894:	54fffe61 	b.ne	81860 <_doprnt+0x7e0>  // b.any
   81898:	7100053f 	cmp	w9, #0x1
   8189c:	54000da0 	b.eq	81a50 <_doprnt+0x9d0>  // b.none
   818a0:	52800088 	mov	w8, #0x4                   	// #4
   818a4:	52800001 	mov	w1, #0x0                   	// #0
   818a8:	d2800207 	mov	x7, #0x10                  	// #16
   818ac:	5280002a 	mov	w10, #0x1                   	// #1
   818b0:	17ffffb1 	b	81774 <_doprnt+0x6f4>
   818b4:	11002343 	add	w3, w26, #0x8
   818b8:	7100007f 	cmp	w3, #0x0
   818bc:	5400058d 	b.le	8196c <_doprnt+0x8ec>
   818c0:	91002ee5 	add	x5, x23, #0xb
   818c4:	aa1703e1 	mov	x1, x23
   818c8:	2a0303fa 	mov	w26, w3
   818cc:	927df0b7 	and	x23, x5, #0xfffffffffffffff8
   818d0:	17fffe8c 	b	81300 <_doprnt+0x280>
   818d4:	39400841 	ldrb	w1, [x2, #2]
   818d8:	52800003 	mov	w3, #0x0                   	// #0
   818dc:	91000842 	add	x2, x2, #0x2
   818e0:	17fffe33 	b	811ac <_doprnt+0x12c>
   818e4:	11002340 	add	w0, w26, #0x8
   818e8:	7100001f 	cmp	w0, #0x0
   818ec:	5400064d 	b.le	819b4 <_doprnt+0x934>
   818f0:	91003ee3 	add	x3, x23, #0xf
   818f4:	2a0003fa 	mov	w26, w0
   818f8:	927df060 	and	x0, x3, #0xfffffffffffffff8
   818fc:	f90047e0 	str	x0, [sp, #136]
   81900:	17fffe73 	b	812cc <_doprnt+0x24c>
   81904:	11002340 	add	w0, w26, #0x8
   81908:	7100001f 	cmp	w0, #0x0
   8190c:	54000c4d 	b.le	81a94 <_doprnt+0xa14>
   81910:	91003ee1 	add	x1, x23, #0xf
   81914:	2a0003fa 	mov	w26, w0
   81918:	927df020 	and	x0, x1, #0xfffffffffffffff8
   8191c:	f90047e0 	str	x0, [sp, #136]
   81920:	17fffe87 	b	8133c <_doprnt+0x2bc>
   81924:	11002340 	add	w0, w26, #0x8
   81928:	7100001f 	cmp	w0, #0x0
   8192c:	54000a8d 	b.le	81a7c <_doprnt+0x9fc>
   81930:	91002ee1 	add	x1, x23, #0xb
   81934:	2a0003fa 	mov	w26, w0
   81938:	927df020 	and	x0, x1, #0xfffffffffffffff8
   8193c:	f90047e0 	str	x0, [sp, #136]
   81940:	17ffff94 	b	81790 <_doprnt+0x710>
   81944:	11002340 	add	w0, w26, #0x8
   81948:	7100001f 	cmp	w0, #0x0
   8194c:	54000b0d 	b.le	81aac <_doprnt+0xa2c>
   81950:	91003ee1 	add	x1, x23, #0xf
   81954:	2a0003fa 	mov	w26, w0
   81958:	927df020 	and	x0, x1, #0xfffffffffffffff8
   8195c:	f90047e0 	str	x0, [sp, #136]
   81960:	17ffffa2 	b	817e8 <_doprnt+0x768>
   81964:	52800063 	mov	w3, #0x3                   	// #3
   81968:	17ffffcc 	b	81898 <_doprnt+0x818>
   8196c:	f9403be1 	ldr	x1, [sp, #112]
   81970:	8b3ac021 	add	x1, x1, w26, sxtw
   81974:	2a0303fa 	mov	w26, w3
   81978:	17fffe62 	b	81300 <_doprnt+0x280>
   8197c:	b94087e0 	ldr	w0, [sp, #132]
   81980:	34fff640 	cbz	w0, 81848 <_doprnt+0x7c8>
   81984:	0b140017 	add	w23, w0, w20
   81988:	14000003 	b	81994 <_doprnt+0x914>
   8198c:	6b17029f 	cmp	w20, w23
   81990:	54000ac0 	b.eq	81ae8 <_doprnt+0xa68>  // b.none
   81994:	aa1603e1 	mov	x1, x22
   81998:	2a1903e0 	mov	w0, w25
   8199c:	11000694 	add	w20, w20, #0x1
   819a0:	d63f02a0 	blr	x21
   819a4:	3100041f 	cmn	w0, #0x1
   819a8:	54ffff21 	b.ne	8198c <_doprnt+0x90c>  // b.any
   819ac:	a94573fb 	ldp	x27, x28, [sp, #80]
   819b0:	17fffee0 	b	81530 <_doprnt+0x4b0>
   819b4:	f9403be3 	ldr	x3, [sp, #112]
   819b8:	f90047f7 	str	x23, [sp, #136]
   819bc:	8b3ac063 	add	x3, x3, w26, sxtw
   819c0:	2a0003fa 	mov	w26, w0
   819c4:	aa0303f7 	mov	x23, x3
   819c8:	17fffe41 	b	812cc <_doprnt+0x24c>
   819cc:	11002340 	add	w0, w26, #0x8
   819d0:	7100001f 	cmp	w0, #0x0
   819d4:	5400090d 	b.le	81af4 <_doprnt+0xa74>
   819d8:	91002ee1 	add	x1, x23, #0xb
   819dc:	2a0003fa 	mov	w26, w0
   819e0:	927df020 	and	x0, x1, #0xfffffffffffffff8
   819e4:	f90047e0 	str	x0, [sp, #136]
   819e8:	17fffe01 	b	811ec <_doprnt+0x16c>
   819ec:	52800017 	mov	w23, #0x0                   	// #0
   819f0:	b9006fff 	str	wzr, [sp, #108]
   819f4:	17ffff29 	b	81698 <_doprnt+0x618>
   819f8:	f9403be3 	ldr	x3, [sp, #112]
   819fc:	f90047f7 	str	x23, [sp, #136]
   81a00:	8b3ac063 	add	x3, x3, w26, sxtw
   81a04:	2a0003fa 	mov	w26, w0
   81a08:	aa0303f7 	mov	x23, x3
   81a0c:	17fffe76 	b	813e4 <_doprnt+0x364>
   81a10:	71000d3f 	cmp	w9, #0x3
   81a14:	54ffef80 	b.eq	81804 <_doprnt+0x784>  // b.none
   81a18:	52800006 	mov	w6, #0x0                   	// #0
   81a1c:	52800017 	mov	w23, #0x0                   	// #0
   81a20:	17fffe7e 	b	81418 <_doprnt+0x398>
   81a24:	37f8051a 	tbnz	w26, #31, 81ac4 <_doprnt+0xa44>
   81a28:	91003ee0 	add	x0, x23, #0xf
   81a2c:	927df000 	and	x0, x0, #0xfffffffffffffff8
   81a30:	f90047e0 	str	x0, [sp, #136]
   81a34:	f94002e0 	ldr	x0, [x23]
   81a38:	17fffdee 	b	811f0 <_doprnt+0x170>
   81a3c:	52800008 	mov	w8, #0x0                   	// #0
   81a40:	52800001 	mov	w1, #0x0                   	// #0
   81a44:	d2800147 	mov	x7, #0xa                   	// #10
   81a48:	5280000a 	mov	w10, #0x0                   	// #0
   81a4c:	17fffe1c 	b	812bc <_doprnt+0x23c>
   81a50:	2a0903ea 	mov	w10, w9
   81a54:	52800088 	mov	w8, #0x4                   	// #4
   81a58:	52800001 	mov	w1, #0x0                   	// #0
   81a5c:	d2800207 	mov	x7, #0x10                  	// #16
   81a60:	52800069 	mov	w9, #0x3                   	// #3
   81a64:	17ffff44 	b	81774 <_doprnt+0x6f4>
   81a68:	52800014 	mov	w20, #0x0                   	// #0
   81a6c:	17fffda9 	b	81110 <_doprnt+0x90>
   81a70:	9103a3e3 	add	x3, sp, #0xe8
   81a74:	52800020 	mov	w0, #0x1                   	// #1
   81a78:	17fffe81 	b	8147c <_doprnt+0x3fc>
   81a7c:	f9403be1 	ldr	x1, [sp, #112]
   81a80:	f90047f7 	str	x23, [sp, #136]
   81a84:	8b3ac021 	add	x1, x1, w26, sxtw
   81a88:	2a0003fa 	mov	w26, w0
   81a8c:	aa0103f7 	mov	x23, x1
   81a90:	17ffff40 	b	81790 <_doprnt+0x710>
   81a94:	f9403be1 	ldr	x1, [sp, #112]
   81a98:	f90047f7 	str	x23, [sp, #136]
   81a9c:	8b3ac021 	add	x1, x1, w26, sxtw
   81aa0:	2a0003fa 	mov	w26, w0
   81aa4:	aa0103f7 	mov	x23, x1
   81aa8:	17fffe25 	b	8133c <_doprnt+0x2bc>
   81aac:	f9403be1 	ldr	x1, [sp, #112]
   81ab0:	f90047f7 	str	x23, [sp, #136]
   81ab4:	8b3ac021 	add	x1, x1, w26, sxtw
   81ab8:	2a0003fa 	mov	w26, w0
   81abc:	aa0103f7 	mov	x23, x1
   81ac0:	17ffff4a 	b	817e8 <_doprnt+0x768>
   81ac4:	11002340 	add	w0, w26, #0x8
   81ac8:	7100001f 	cmp	w0, #0x0
   81acc:	5400024d 	b.le	81b14 <_doprnt+0xa94>
   81ad0:	91003ee1 	add	x1, x23, #0xf
   81ad4:	2a0003fa 	mov	w26, w0
   81ad8:	927df020 	and	x0, x1, #0xfffffffffffffff8
   81adc:	f90047e0 	str	x0, [sp, #136]
   81ae0:	f94002e0 	ldr	x0, [x23]
   81ae4:	17fffdc3 	b	811f0 <_doprnt+0x170>
   81ae8:	a94573fb 	ldp	x27, x28, [sp, #80]
   81aec:	f94047f7 	ldr	x23, [sp, #136]
   81af0:	17fffd7a 	b	810d8 <_doprnt+0x58>
   81af4:	f9403be1 	ldr	x1, [sp, #112]
   81af8:	f90047f7 	str	x23, [sp, #136]
   81afc:	8b3ac021 	add	x1, x1, w26, sxtw
   81b00:	2a0003fa 	mov	w26, w0
   81b04:	aa0103f7 	mov	x23, x1
   81b08:	17fffdb9 	b	811ec <_doprnt+0x16c>
   81b0c:	2a1703f4 	mov	w20, w23
   81b10:	17ffff4c 	b	81840 <_doprnt+0x7c0>
   81b14:	f9403be1 	ldr	x1, [sp, #112]
   81b18:	f90047f7 	str	x23, [sp, #136]
   81b1c:	8b3ac021 	add	x1, x1, w26, sxtw
   81b20:	2a0003fa 	mov	w26, w0
   81b24:	aa0103f7 	mov	x23, x1
   81b28:	f94002e0 	ldr	x0, [x23]
   81b2c:	17fffdb1 	b	811f0 <_doprnt+0x170>

0000000000081b30 <Init_EmbStdio>:
   81b30:	d0000081 	adrp	x1, 93000 <_impure_data+0x148>
   81b34:	f9444022 	ldr	x2, [x1, #2176]
   81b38:	f9044020 	str	x0, [x1, #2176]
   81b3c:	aa0203e0 	mov	x0, x2
   81b40:	d65f03c0 	ret
   81b44:	d503201f 	nop
   81b48:	d503201f 	nop
   81b4c:	d503201f 	nop

0000000000081b50 <printf>:
   81b50:	d10803ff 	sub	sp, sp, #0x200
   81b54:	128006e9 	mov	w9, #0xffffffc8            	// #-56
   81b58:	910703eb 	add	x11, sp, #0x1c0
   81b5c:	12800fea 	mov	w10, #0xffffff80            	// #-128
   81b60:	a9007bfd 	stp	x29, x30, [sp]
   81b64:	910003fd 	mov	x29, sp
   81b68:	a90573fb 	stp	x27, x28, [sp, #80]
   81b6c:	aa0003fc 	mov	x28, x0
   81b70:	910803fb 	add	x27, sp, #0x200
   81b74:	a90153f3 	stp	x19, x20, [sp, #16]
   81b78:	d0000080 	adrp	x0, 93000 <_impure_data+0x148>
   81b7c:	f9444014 	ldr	x20, [x0, #2176]
   81b80:	3d8053e0 	str	q0, [sp, #320]
   81b84:	3d8057e1 	str	q1, [sp, #336]
   81b88:	3d805be2 	str	q2, [sp, #352]
   81b8c:	3d805fe3 	str	q3, [sp, #368]
   81b90:	3d8063e4 	str	q4, [sp, #384]
   81b94:	3d8067e5 	str	q5, [sp, #400]
   81b98:	3d806be6 	str	q6, [sp, #416]
   81b9c:	3d806fe7 	str	q7, [sp, #432]
   81ba0:	a91c8be1 	stp	x1, x2, [sp, #456]
   81ba4:	a91d93e3 	stp	x3, x4, [sp, #472]
   81ba8:	a91e9be5 	stp	x5, x6, [sp, #488]
   81bac:	f900ffe7 	str	x7, [sp, #504]
   81bb0:	a9096ffb 	stp	x27, x27, [sp, #144]
   81bb4:	39400380 	ldrb	w0, [x28]
   81bb8:	f90053eb 	str	x11, [sp, #160]
   81bbc:	29152be9 	stp	w9, w10, [sp, #168]
   81bc0:	340048e0 	cbz	w0, 824dc <printf+0x98c>
   81bc4:	52800013 	mov	w19, #0x0                   	// #0
   81bc8:	a90363f7 	stp	x23, x24, [sp, #48]
   81bcc:	2a0903f8 	mov	w24, w9
   81bd0:	a9046bf9 	stp	x25, x26, [sp, #64]
   81bd4:	14000006 	b	81bec <printf+0x9c>
   81bd8:	11000673 	add	w19, w19, #0x1
   81bdc:	aa1903fc 	mov	x28, x25
   81be0:	d63f0280 	blr	x20
   81be4:	39400380 	ldrb	w0, [x28]
   81be8:	34002b80 	cbz	w0, 82158 <printf+0x608>
   81bec:	7100941f 	cmp	w0, #0x25
   81bf0:	91000799 	add	x25, x28, #0x1
   81bf4:	54ffff21 	b.ne	81bd8 <printf+0x88>  // b.any
   81bf8:	39400781 	ldrb	w1, [x28, #1]
   81bfc:	7100943f 	cmp	w1, #0x25
   81c00:	54000061 	b.ne	81c0c <printf+0xbc>  // b.any
   81c04:	91000b99 	add	x25, x28, #0x2
   81c08:	17fffff4 	b	81bd8 <printf+0x88>
   81c0c:	aa1903e8 	mov	x8, x25
   81c10:	52800005 	mov	w5, #0x0                   	// #0
   81c14:	52800017 	mov	w23, #0x0                   	// #0
   81c18:	a9025bf5 	stp	x21, x22, [sp, #32]
   81c1c:	52800415 	mov	w21, #0x20                  	// #32
   81c20:	7100b43f 	cmp	w1, #0x2d
   81c24:	54001300 	b.eq	81e84 <printf+0x334>  // b.none
   81c28:	7100c03f 	cmp	w1, #0x30
   81c2c:	54001380 	b.eq	81e9c <printf+0x34c>  // b.none
   81c30:	71008c3f 	cmp	w1, #0x23
   81c34:	540012e0 	b.eq	81e90 <printf+0x340>  // b.none
   81c38:	7100a83f 	cmp	w1, #0x2a
   81c3c:	54001361 	b.ne	81ea8 <printf+0x358>  // b.any
   81c40:	37f82498 	tbnz	w24, #31, 820d0 <printf+0x580>
   81c44:	91002f62 	add	x2, x27, #0xb
   81c48:	aa1b03e1 	mov	x1, x27
   81c4c:	927df05b 	and	x27, x2, #0xfffffffffffffff8
   81c50:	b940003a 	ldr	w26, [x1]
   81c54:	91000508 	add	x8, x8, #0x1
   81c58:	39400101 	ldrb	w1, [x8]
   81c5c:	37f8231a 	tbnz	w26, #31, 820bc <printf+0x56c>
   81c60:	710002ff 	cmp	w23, #0x0
   81c64:	52800402 	mov	w2, #0x20                  	// #32
   81c68:	520002f6 	eor	w22, w23, #0x1
   81c6c:	1a8202b5 	csel	w21, w21, w2, eq	// eq = none
   81c70:	7100b83f 	cmp	w1, #0x2e
   81c74:	12800004 	mov	w4, #0xffffffff            	// #-1
   81c78:	54001660 	b.eq	81f44 <printf+0x3f4>  // b.none
   81c7c:	7101b03f 	cmp	w1, #0x6c
   81c80:	540012e0 	b.eq	81edc <printf+0x38c>  // b.none
   81c84:	7101a03f 	cmp	w1, #0x68
   81c88:	52800042 	mov	w2, #0x2                   	// #2
   81c8c:	54002320 	b.eq	820f0 <printf+0x5a0>  // b.none
   81c90:	7101bc3f 	cmp	w1, #0x6f
   81c94:	54002be0 	b.eq	82210 <printf+0x6c0>  // b.none
   81c98:	540016c8 	b.hi	81f70 <printf+0x420>  // b.pmore
   81c9c:	71018c3f 	cmp	w1, #0x63
   81ca0:	54001c60 	b.eq	8202c <printf+0x4dc>  // b.none
   81ca4:	54003068 	b.hi	822b0 <printf+0x760>  // b.pmore
   81ca8:	7101603f 	cmp	w1, #0x58
   81cac:	54002ec0 	b.eq	82284 <printf+0x734>  // b.none
   81cb0:	7101883f 	cmp	w1, #0x62
   81cb4:	52800027 	mov	w7, #0x1                   	// #1
   81cb8:	d2800046 	mov	x6, #0x2                   	// #2
   81cbc:	54003021 	b.ne	822c0 <printf+0x770>  // b.any
   81cc0:	52800009 	mov	w9, #0x0                   	// #0
   81cc4:	52800003 	mov	w3, #0x0                   	// #0
   81cc8:	37f82758 	tbnz	w24, #31, 821b0 <printf+0x660>
   81ccc:	91002f60 	add	x0, x27, #0xb
   81cd0:	927df000 	and	x0, x0, #0xfffffffffffffff8
   81cd4:	f9003be0 	str	x0, [sp, #112]
   81cd8:	b9400360 	ldr	w0, [x27]
   81cdc:	f100001f 	cmp	x0, #0x0
   81ce0:	1a9f07e1 	cset	w1, ne	// ne = any
   81ce4:	0a010121 	and	w1, w9, w1
   81ce8:	12000022 	and	w2, w1, #0x1
   81cec:	b9007be2 	str	w2, [sp, #120]
   81cf0:	9100051c 	add	x28, x8, #0x1
   81cf4:	34003ca1 	cbz	w1, 82488 <printf+0x938>
   81cf8:	52800601 	mov	w1, #0x30                  	// #48
   81cfc:	52800005 	mov	w5, #0x0                   	// #0
   81d00:	52800039 	mov	w25, #0x1                   	// #1
   81d04:	b9007bff 	str	wzr, [sp, #120]
   81d08:	390223e1 	strb	w1, [sp, #136]
   81d0c:	90000081 	adrp	x1, 91000 <__text_end__+0xc00>
   81d10:	91108021 	add	x1, x1, #0x420
   81d14:	3903e3ff 	strb	wzr, [sp, #248]
   81d18:	7100007f 	cmp	w3, #0x0
   81d1c:	91004029 	add	x9, x1, #0x10
   81d20:	9a810129 	csel	x9, x9, x1, eq	// eq = none
   81d24:	35001f27 	cbnz	w7, 82108 <printf+0x5b8>
   81d28:	9ac60802 	udiv	x2, x0, x6
   81d2c:	eb0000df 	cmp	x6, x0
   81d30:	9b068040 	msub	x0, x2, x6, x0
   81d34:	38606921 	ldrb	w1, [x9, x0]
   81d38:	3903e7e1 	strb	w1, [sp, #249]
   81d3c:	54003d48 	b.hi	824e4 <printf+0x994>  // b.pmore
   81d40:	9103e3e3 	add	x3, sp, #0xf8
   81d44:	52800020 	mov	w0, #0x1                   	// #1
   81d48:	aa0303e7 	mov	x7, x3
   81d4c:	d503201f 	nop
   81d50:	9ac60841 	udiv	x1, x2, x6
   81d54:	eb0200df 	cmp	x6, x2
   81d58:	11000400 	add	w0, w0, #0x1
   81d5c:	910004e7 	add	x7, x7, #0x1
   81d60:	9b06882a 	msub	x10, x1, x6, x2
   81d64:	aa0103e2 	mov	x2, x1
   81d68:	386a6921 	ldrb	w1, [x9, x10]
   81d6c:	390004e1 	strb	w1, [x7, #1]
   81d70:	54ffff09 	b.ls	81d50 <printf+0x200>  // b.plast
   81d74:	93407c00 	sxtw	x0, w0
   81d78:	9102c3e2 	add	x2, sp, #0xb0
   81d7c:	8b000063 	add	x3, x3, x0
   81d80:	8b000042 	add	x2, x2, x0
   81d84:	9102c3e0 	add	x0, sp, #0xb0
   81d88:	14000002 	b	81d90 <printf+0x240>
   81d8c:	39400061 	ldrb	w1, [x3]
   81d90:	39000001 	strb	w1, [x0]
   81d94:	eb02001f 	cmp	x0, x2
   81d98:	d1000463 	sub	x3, x3, #0x1
   81d9c:	91000400 	add	x0, x0, #0x1
   81da0:	54ffff61 	b.ne	81d8c <printf+0x23c>  // b.any
   81da4:	9102c3e0 	add	x0, sp, #0xb0
   81da8:	b9006be4 	str	w4, [sp, #104]
   81dac:	b9007fe5 	str	w5, [sp, #124]
   81db0:	94002964 	bl	8c340 <strlen>
   81db4:	b9406be4 	ldr	w4, [sp, #104]
   81db8:	2a0003fb 	mov	w27, w0
   81dbc:	b9407fe5 	ldr	w5, [sp, #124]
   81dc0:	37f81dc4 	tbnz	w4, #31, 82178 <printf+0x628>
   81dc4:	4b000096 	sub	w22, w4, w0
   81dc8:	6b00009f 	cmp	w4, w0
   81dcc:	5400006c 	b.gt	81dd8 <printf+0x288>
   81dd0:	2a0003e4 	mov	w4, w0
   81dd4:	52800016 	mov	w22, #0x0                   	// #0
   81dd8:	0b0400a0 	add	w0, w5, w4
   81ddc:	6b00035f 	cmp	w26, w0
   81de0:	54001f8c 	b.gt	821d0 <printf+0x680>
   81de4:	9102c3e0 	add	x0, sp, #0xb0
   81de8:	5280001a 	mov	w26, #0x0                   	// #0
   81dec:	52800415 	mov	w21, #0x20                  	// #32
   81df0:	f90037e0 	str	x0, [sp, #104]
   81df4:	34000119 	cbz	w25, 81e14 <printf+0x2c4>
   81df8:	394223e0 	ldrb	w0, [sp, #136]
   81dfc:	d63f0280 	blr	x20
   81e00:	71000b3f 	cmp	w25, #0x2
   81e04:	54000061 	b.ne	81e10 <printf+0x2c0>  // b.any
   81e08:	394227e0 	ldrb	w0, [sp, #137]
   81e0c:	d63f0280 	blr	x20
   81e10:	0b130333 	add	w19, w25, w19
   81e14:	120002f9 	and	w25, w23, #0x1
   81e18:	34001eb7 	cbz	w23, 821ec <printf+0x69c>
   81e1c:	b9407be0 	ldr	w0, [sp, #120]
   81e20:	34000080 	cbz	w0, 81e30 <printf+0x2e0>
   81e24:	11000673 	add	w19, w19, #0x1
   81e28:	528005a0 	mov	w0, #0x2d                  	// #45
   81e2c:	d63f0280 	blr	x20
   81e30:	52800017 	mov	w23, #0x0                   	// #0
   81e34:	340000f6 	cbz	w22, 81e50 <printf+0x300>
   81e38:	110006f7 	add	w23, w23, #0x1
   81e3c:	52800600 	mov	w0, #0x30                  	// #48
   81e40:	d63f0280 	blr	x20
   81e44:	6b1602ff 	cmp	w23, w22
   81e48:	54ffff81 	b.ne	81e38 <printf+0x2e8>  // b.any
   81e4c:	0b1302f3 	add	w19, w23, w19
   81e50:	7100037f 	cmp	w27, #0x0
   81e54:	5400010d 	b.le	81e74 <printf+0x324>
   81e58:	f94037f7 	ldr	x23, [sp, #104]
   81e5c:	8b3bc2f6 	add	x22, x23, w27, sxtw
   81e60:	384016e0 	ldrb	w0, [x23], #1
   81e64:	d63f0280 	blr	x20
   81e68:	eb1702df 	cmp	x22, x23
   81e6c:	54ffffa1 	b.ne	81e60 <printf+0x310>  // b.any
   81e70:	0b130373 	add	w19, w27, w19
   81e74:	f9403bfb 	ldr	x27, [sp, #112]
   81e78:	35002cf9 	cbnz	w25, 82414 <printf+0x8c4>
   81e7c:	a9425bf5 	ldp	x21, x22, [sp, #32]
   81e80:	17ffff59 	b	81be4 <printf+0x94>
   81e84:	38401d01 	ldrb	w1, [x8, #1]!
   81e88:	52800037 	mov	w23, #0x1                   	// #1
   81e8c:	17ffff65 	b	81c20 <printf+0xd0>
   81e90:	38401d01 	ldrb	w1, [x8, #1]!
   81e94:	52800025 	mov	w5, #0x1                   	// #1
   81e98:	17ffff62 	b	81c20 <printf+0xd0>
   81e9c:	2a0103f5 	mov	w21, w1
   81ea0:	38401d01 	ldrb	w1, [x8, #1]!
   81ea4:	17ffff5f 	b	81c20 <printf+0xd0>
   81ea8:	5100c022 	sub	w2, w1, #0x30
   81eac:	5280001a 	mov	w26, #0x0                   	// #0
   81eb0:	12001c43 	and	w3, w2, #0xff
   81eb4:	52800144 	mov	w4, #0xa                   	// #10
   81eb8:	7100247f 	cmp	w3, #0x9
   81ebc:	54ffed28 	b.hi	81c60 <printf+0x110>  // b.pmore
   81ec0:	38401d01 	ldrb	w1, [x8, #1]!
   81ec4:	1b040b5a 	madd	w26, w26, w4, w2
   81ec8:	5100c022 	sub	w2, w1, #0x30
   81ecc:	12001c43 	and	w3, w2, #0xff
   81ed0:	7100247f 	cmp	w3, #0x9
   81ed4:	54ffff69 	b.ls	81ec0 <printf+0x370>  // b.plast
   81ed8:	17ffff62 	b	81c60 <printf+0x110>
   81edc:	39400501 	ldrb	w1, [x8, #1]
   81ee0:	91000508 	add	x8, x8, #0x1
   81ee4:	7101bc3f 	cmp	w1, #0x6f
   81ee8:	54001920 	b.eq	8220c <printf+0x6bc>  // b.none
   81eec:	54000669 	b.ls	81fb8 <printf+0x468>  // b.plast
   81ef0:	7101d43f 	cmp	w1, #0x75
   81ef4:	54002ea0 	b.eq	824c8 <printf+0x978>  // b.none
   81ef8:	54000429 	b.ls	81f7c <printf+0x42c>  // b.plast
   81efc:	7101e03f 	cmp	w1, #0x78
   81f00:	54001e01 	b.ne	822c0 <printf+0x770>  // b.any
   81f04:	710004bf 	cmp	w5, #0x1
   81f08:	52800087 	mov	w7, #0x4                   	// #4
   81f0c:	52800009 	mov	w9, #0x0                   	// #0
   81f10:	d2800206 	mov	x6, #0x10                  	// #16
   81f14:	52800003 	mov	w3, #0x0                   	// #0
   81f18:	54000041 	b.ne	81f20 <printf+0x3d0>  // b.any
   81f1c:	52800065 	mov	w5, #0x3                   	// #3
   81f20:	37f82278 	tbnz	w24, #31, 8236c <printf+0x81c>
   81f24:	91003f60 	add	x0, x27, #0xf
   81f28:	927df000 	and	x0, x0, #0xfffffffffffffff8
   81f2c:	f9003be0 	str	x0, [sp, #112]
   81f30:	f9400360 	ldr	x0, [x27]
   81f34:	f100001f 	cmp	x0, #0x0
   81f38:	1a9f07e1 	cset	w1, ne	// ne = any
   81f3c:	0a010121 	and	w1, w9, w1
   81f40:	17ffff6a 	b	81ce8 <printf+0x198>
   81f44:	39400501 	ldrb	w1, [x8, #1]
   81f48:	7100a83f 	cmp	w1, #0x2a
   81f4c:	54000541 	b.ne	81ff4 <printf+0x4a4>  // b.any
   81f50:	37f81f78 	tbnz	w24, #31, 8233c <printf+0x7ec>
   81f54:	91002f62 	add	x2, x27, #0xb
   81f58:	aa1b03e1 	mov	x1, x27
   81f5c:	927df05b 	and	x27, x2, #0xfffffffffffffff8
   81f60:	b9400024 	ldr	w4, [x1]
   81f64:	91000908 	add	x8, x8, #0x2
   81f68:	39400101 	ldrb	w1, [x8]
   81f6c:	17ffff44 	b	81c7c <printf+0x12c>
   81f70:	7101d43f 	cmp	w1, #0x75
   81f74:	540009e0 	b.eq	820b0 <printf+0x560>  // b.none
   81f78:	54001a88 	b.hi	822c8 <printf+0x778>  // b.pmore
   81f7c:	7101c03f 	cmp	w1, #0x70
   81f80:	540015a0 	b.eq	82234 <printf+0x6e4>  // b.none
   81f84:	7101cc3f 	cmp	w1, #0x73
   81f88:	540019c1 	b.ne	822c0 <printf+0x770>  // b.any
   81f8c:	37f82218 	tbnz	w24, #31, 823cc <printf+0x87c>
   81f90:	91003f60 	add	x0, x27, #0xf
   81f94:	927df000 	and	x0, x0, #0xfffffffffffffff8
   81f98:	f9003be0 	str	x0, [sp, #112]
   81f9c:	f9400361 	ldr	x1, [x27]
   81fa0:	f0000060 	adrp	x0, 90000 <__sflush_r+0x40>
   81fa4:	91100000 	add	x0, x0, #0x400
   81fa8:	f100003f 	cmp	x1, #0x0
   81fac:	9a810000 	csel	x0, x0, x1, eq	// eq = none
   81fb0:	f90037e0 	str	x0, [sp, #104]
   81fb4:	14000028 	b	82054 <printf+0x504>
   81fb8:	7101883f 	cmp	w1, #0x62
   81fbc:	540027c0 	b.eq	824b4 <printf+0x964>  // b.none
   81fc0:	540015c9 	b.ls	82278 <printf+0x728>  // b.plast
   81fc4:	71018c3f 	cmp	w1, #0x63
   81fc8:	54000320 	b.eq	8202c <printf+0x4dc>  // b.none
   81fcc:	7101903f 	cmp	w1, #0x64
   81fd0:	54000060 	b.eq	81fdc <printf+0x48c>  // b.none
   81fd4:	7101a43f 	cmp	w1, #0x69
   81fd8:	54001741 	b.ne	822c0 <printf+0x770>  // b.any
   81fdc:	37f82af8 	tbnz	w24, #31, 82538 <printf+0x9e8>
   81fe0:	91003f60 	add	x0, x27, #0xf
   81fe4:	927df000 	and	x0, x0, #0xfffffffffffffff8
   81fe8:	f9003be0 	str	x0, [sp, #112]
   81fec:	f9400360 	ldr	x0, [x27]
   81ff0:	140000c5 	b	82304 <printf+0x7b4>
   81ff4:	5100c022 	sub	w2, w1, #0x30
   81ff8:	91000508 	add	x8, x8, #0x1
   81ffc:	12001c43 	and	w3, w2, #0xff
   82000:	52800004 	mov	w4, #0x0                   	// #0
   82004:	7100247f 	cmp	w3, #0x9
   82008:	52800146 	mov	w6, #0xa                   	// #10
   8200c:	54ffe388 	b.hi	81c7c <printf+0x12c>  // b.pmore
   82010:	38401d01 	ldrb	w1, [x8, #1]!
   82014:	1b060884 	madd	w4, w4, w6, w2
   82018:	5100c022 	sub	w2, w1, #0x30
   8201c:	12001c43 	and	w3, w2, #0xff
   82020:	7100247f 	cmp	w3, #0x9
   82024:	54ffff69 	b.ls	82010 <printf+0x4c0>  // b.plast
   82028:	17ffff15 	b	81c7c <printf+0x12c>
   8202c:	37f81b18 	tbnz	w24, #31, 8238c <printf+0x83c>
   82030:	91002f60 	add	x0, x27, #0xb
   82034:	927df000 	and	x0, x0, #0xfffffffffffffff8
   82038:	f9003be0 	str	x0, [sp, #112]
   8203c:	b9400360 	ldr	w0, [x27]
   82040:	9102c3e1 	add	x1, sp, #0xb0
   82044:	3902c3e0 	strb	w0, [sp, #176]
   82048:	aa0103e0 	mov	x0, x1
   8204c:	f90037e1 	str	x1, [sp, #104]
   82050:	3902c7ff 	strb	wzr, [sp, #177]
   82054:	9100051c 	add	x28, x8, #0x1
   82058:	b9007be4 	str	w4, [sp, #120]
   8205c:	940028b9 	bl	8c340 <strlen>
   82060:	2a0003fb 	mov	w27, w0
   82064:	b9407be4 	ldr	w4, [sp, #120]
   82068:	37f81fe4 	tbnz	w4, #31, 82464 <printf+0x914>
   8206c:	6b04001f 	cmp	w0, w4
   82070:	b9007bff 	str	wzr, [sp, #120]
   82074:	1a84d01b 	csel	w27, w0, w4, le
   82078:	7100c2bf 	cmp	w21, #0x30
   8207c:	1a9f17e1 	cset	w1, eq	// eq = none
   82080:	2a1b03e0 	mov	w0, w27
   82084:	6b00035f 	cmp	w26, w0
   82088:	0a0102c1 	and	w1, w22, w1
   8208c:	52800019 	mov	w25, #0x0                   	// #0
   82090:	52800002 	mov	w2, #0x0                   	// #0
   82094:	5400084d 	b.le	8219c <printf+0x64c>
   82098:	4b000356 	sub	w22, w26, w0
   8209c:	34000841 	cbz	w1, 821a4 <printf+0x654>
   820a0:	5280001a 	mov	w26, #0x0                   	// #0
   820a4:	35ffeab9 	cbnz	w25, 81df8 <printf+0x2a8>
   820a8:	120002f9 	and	w25, w23, #0x1
   820ac:	17ffff5c 	b	81e1c <printf+0x2cc>
   820b0:	52800007 	mov	w7, #0x0                   	// #0
   820b4:	d2800146 	mov	x6, #0xa                   	// #10
   820b8:	17ffff02 	b	81cc0 <printf+0x170>
   820bc:	4b1a03fa 	neg	w26, w26
   820c0:	52800016 	mov	w22, #0x0                   	// #0
   820c4:	52800037 	mov	w23, #0x1                   	// #1
   820c8:	52800415 	mov	w21, #0x20                  	// #32
   820cc:	17fffee9 	b	81c70 <printf+0x120>
   820d0:	11002302 	add	w2, w24, #0x8
   820d4:	7100005f 	cmp	w2, #0x0
   820d8:	54000e4d 	b.le	822a0 <printf+0x750>
   820dc:	91002f63 	add	x3, x27, #0xb
   820e0:	aa1b03e1 	mov	x1, x27
   820e4:	2a0203f8 	mov	w24, w2
   820e8:	927df07b 	and	x27, x3, #0xfffffffffffffff8
   820ec:	17fffed9 	b	81c50 <printf+0x100>
   820f0:	39400501 	ldrb	w1, [x8, #1]
   820f4:	7101a03f 	cmp	w1, #0x68
   820f8:	54001320 	b.eq	8235c <printf+0x80c>  // b.none
   820fc:	91000508 	add	x8, x8, #0x1
   82100:	52800022 	mov	w2, #0x1                   	// #1
   82104:	17fffee3 	b	81c90 <printf+0x140>
   82108:	9280000a 	mov	x10, #0xffffffffffffffff    	// #-1
   8210c:	9ac72402 	lsr	x2, x0, x7
   82110:	9ac7214a 	lsl	x10, x10, x7
   82114:	8a2a0000 	bic	x0, x0, x10
   82118:	9103e3e3 	add	x3, sp, #0xf8
   8211c:	aa2a03ea 	mvn	x10, x10
   82120:	38606921 	ldrb	w1, [x9, x0]
   82124:	52800020 	mov	w0, #0x1                   	// #1
   82128:	3903e7e1 	strb	w1, [sp, #249]
   8212c:	b4ffe242 	cbz	x2, 81d74 <printf+0x224>
   82130:	aa0303e6 	mov	x6, x3
   82134:	d503201f 	nop
   82138:	8a020141 	and	x1, x10, x2
   8213c:	11000400 	add	w0, w0, #0x1
   82140:	910004c6 	add	x6, x6, #0x1
   82144:	9ac72442 	lsr	x2, x2, x7
   82148:	38616921 	ldrb	w1, [x9, x1]
   8214c:	390004c1 	strb	w1, [x6, #1]
   82150:	b5ffff42 	cbnz	x2, 82138 <printf+0x5e8>
   82154:	17ffff08 	b	81d74 <printf+0x224>
   82158:	a94363f7 	ldp	x23, x24, [sp, #48]
   8215c:	a9446bf9 	ldp	x25, x26, [sp, #64]
   82160:	2a1303e0 	mov	w0, w19
   82164:	a9407bfd 	ldp	x29, x30, [sp]
   82168:	a94153f3 	ldp	x19, x20, [sp, #16]
   8216c:	a94573fb 	ldp	x27, x28, [sp, #80]
   82170:	910803ff 	add	sp, sp, #0x200
   82174:	d65f03c0 	ret
   82178:	0b0000a0 	add	w0, w5, w0
   8217c:	9102c3e1 	add	x1, sp, #0xb0
   82180:	f90037e1 	str	x1, [sp, #104]
   82184:	7100c2bf 	cmp	w21, #0x30
   82188:	52800002 	mov	w2, #0x0                   	// #0
   8218c:	1a9f17e1 	cset	w1, eq	// eq = none
   82190:	6b00035f 	cmp	w26, w0
   82194:	0a0102c1 	and	w1, w22, w1
   82198:	54fff80c 	b.gt	82098 <printf+0x548>
   8219c:	52800016 	mov	w22, #0x0                   	// #0
   821a0:	35fff801 	cbnz	w1, 820a0 <printf+0x550>
   821a4:	2a1603fa 	mov	w26, w22
   821a8:	2a0203f6 	mov	w22, w2
   821ac:	17ffff12 	b	81df4 <printf+0x2a4>
   821b0:	11002300 	add	w0, w24, #0x8
   821b4:	7100001f 	cmp	w0, #0x0
   821b8:	540015cd 	b.le	82470 <printf+0x920>
   821bc:	91002f61 	add	x1, x27, #0xb
   821c0:	2a0003f8 	mov	w24, w0
   821c4:	927df020 	and	x0, x1, #0xfffffffffffffff8
   821c8:	f9003be0 	str	x0, [sp, #112]
   821cc:	17fffec3 	b	81cd8 <printf+0x188>
   821d0:	9102c3e1 	add	x1, sp, #0xb0
   821d4:	2a1603e2 	mov	w2, w22
   821d8:	52800415 	mov	w21, #0x20                  	// #32
   821dc:	4b000356 	sub	w22, w26, w0
   821e0:	f90037e1 	str	x1, [sp, #104]
   821e4:	52800001 	mov	w1, #0x0                   	// #0
   821e8:	17ffffad 	b	8209c <printf+0x54c>
   821ec:	34ffe19a 	cbz	w26, 81e1c <printf+0x2cc>
   821f0:	2a1503e0 	mov	w0, w21
   821f4:	110006f7 	add	w23, w23, #0x1
   821f8:	d63f0280 	blr	x20
   821fc:	6b1a02ff 	cmp	w23, w26
   82200:	54ffff81 	b.ne	821f0 <printf+0x6a0>  // b.any
   82204:	0b130353 	add	w19, w26, w19
   82208:	17ffff05 	b	81e1c <printf+0x2cc>
   8220c:	52800062 	mov	w2, #0x3                   	// #3
   82210:	531f18a5 	ubfiz	w5, w5, #1, #7
   82214:	52800067 	mov	w7, #0x3                   	// #3
   82218:	710008bf 	cmp	w5, #0x2
   8221c:	d2800106 	mov	x6, #0x8                   	// #8
   82220:	1a9f17e9 	cset	w9, eq	// eq = none
   82224:	52800003 	mov	w3, #0x0                   	// #0
   82228:	71000c5f 	cmp	w2, #0x3
   8222c:	54ffd4e1 	b.ne	81cc8 <printf+0x178>  // b.any
   82230:	17ffff3c 	b	81f20 <printf+0x3d0>
   82234:	37f80bd8 	tbnz	w24, #31, 823ac <printf+0x85c>
   82238:	91003f60 	add	x0, x27, #0xf
   8223c:	927df000 	and	x0, x0, #0xfffffffffffffff8
   82240:	f9003be0 	str	x0, [sp, #112]
   82244:	f9400360 	ldr	x0, [x27]
   82248:	9100051c 	add	x28, x8, #0x1
   8224c:	52800087 	mov	w7, #0x4                   	// #4
   82250:	d2800206 	mov	x6, #0x10                  	// #16
   82254:	52800003 	mov	w3, #0x0                   	// #0
   82258:	5280011a 	mov	w26, #0x8                   	// #8
   8225c:	52800615 	mov	w21, #0x30                  	// #48
   82260:	528f0601 	mov	w1, #0x7830                	// #30768
   82264:	52800005 	mov	w5, #0x0                   	// #0
   82268:	52800059 	mov	w25, #0x2                   	// #2
   8226c:	b9007bff 	str	wzr, [sp, #120]
   82270:	790113e1 	strh	w1, [sp, #136]
   82274:	17fffea6 	b	81d0c <printf+0x1bc>
   82278:	7101603f 	cmp	w1, #0x58
   8227c:	52800062 	mov	w2, #0x3                   	// #3
   82280:	54000201 	b.ne	822c0 <printf+0x770>  // b.any
   82284:	710004bf 	cmp	w5, #0x1
   82288:	540010a0 	b.eq	8249c <printf+0x94c>  // b.none
   8228c:	52800087 	mov	w7, #0x4                   	// #4
   82290:	52800009 	mov	w9, #0x0                   	// #0
   82294:	d2800206 	mov	x6, #0x10                  	// #16
   82298:	52800023 	mov	w3, #0x1                   	// #1
   8229c:	17ffffe3 	b	82228 <printf+0x6d8>
   822a0:	910803e1 	add	x1, sp, #0x200
   822a4:	8b38c021 	add	x1, x1, w24, sxtw
   822a8:	2a0203f8 	mov	w24, w2
   822ac:	17fffe69 	b	81c50 <printf+0x100>
   822b0:	7101903f 	cmp	w1, #0x64
   822b4:	540001e0 	b.eq	822f0 <printf+0x7a0>  // b.none
   822b8:	7101a43f 	cmp	w1, #0x69
   822bc:	540001a0 	b.eq	822f0 <printf+0x7a0>  // b.none
   822c0:	a9425bf5 	ldp	x21, x22, [sp, #32]
   822c4:	17fffe45 	b	81bd8 <printf+0x88>
   822c8:	7101e03f 	cmp	w1, #0x78
   822cc:	54ffffa1 	b.ne	822c0 <printf+0x770>  // b.any
   822d0:	710004bf 	cmp	w5, #0x1
   822d4:	52800087 	mov	w7, #0x4                   	// #4
   822d8:	52800009 	mov	w9, #0x0                   	// #0
   822dc:	d2800206 	mov	x6, #0x10                  	// #16
   822e0:	52800003 	mov	w3, #0x0                   	// #0
   822e4:	54ffcf21 	b.ne	81cc8 <printf+0x178>  // b.any
   822e8:	52800065 	mov	w5, #0x3                   	// #3
   822ec:	17fffe77 	b	81cc8 <printf+0x178>
   822f0:	37f80ab8 	tbnz	w24, #31, 82444 <printf+0x8f4>
   822f4:	91002f60 	add	x0, x27, #0xb
   822f8:	927df000 	and	x0, x0, #0xfffffffffffffff8
   822fc:	f9003be0 	str	x0, [sp, #112]
   82300:	b9800360 	ldrsw	x0, [x27]
   82304:	52800005 	mov	w5, #0x0                   	// #0
   82308:	52800001 	mov	w1, #0x0                   	// #0
   8230c:	b6f80080 	tbz	x0, #63, 8231c <printf+0x7cc>
   82310:	52800025 	mov	w5, #0x1                   	// #1
   82314:	cb0003e0 	neg	x0, x0
   82318:	2a0503e1 	mov	w1, w5
   8231c:	12000021 	and	w1, w1, #0x1
   82320:	9100051c 	add	x28, x8, #0x1
   82324:	52800007 	mov	w7, #0x0                   	// #0
   82328:	d2800146 	mov	x6, #0xa                   	// #10
   8232c:	52800003 	mov	w3, #0x0                   	// #0
   82330:	52800019 	mov	w25, #0x0                   	// #0
   82334:	b9007be1 	str	w1, [sp, #120]
   82338:	17fffe75 	b	81d0c <printf+0x1bc>
   8233c:	11002302 	add	w2, w24, #0x8
   82340:	7100005f 	cmp	w2, #0x0
   82344:	5400054d 	b.le	823ec <printf+0x89c>
   82348:	91002f63 	add	x3, x27, #0xb
   8234c:	aa1b03e1 	mov	x1, x27
   82350:	2a0203f8 	mov	w24, w2
   82354:	927df07b 	and	x27, x3, #0xfffffffffffffff8
   82358:	17ffff02 	b	81f60 <printf+0x410>
   8235c:	39400901 	ldrb	w1, [x8, #2]
   82360:	52800002 	mov	w2, #0x0                   	// #0
   82364:	91000908 	add	x8, x8, #0x2
   82368:	17fffe4a 	b	81c90 <printf+0x140>
   8236c:	11002300 	add	w0, w24, #0x8
   82370:	7100001f 	cmp	w0, #0x0
   82374:	5400044d 	b.le	823fc <printf+0x8ac>
   82378:	91003f61 	add	x1, x27, #0xf
   8237c:	2a0003f8 	mov	w24, w0
   82380:	927df020 	and	x0, x1, #0xfffffffffffffff8
   82384:	f9003be0 	str	x0, [sp, #112]
   82388:	17fffeea 	b	81f30 <printf+0x3e0>
   8238c:	11002300 	add	w0, w24, #0x8
   82390:	7100001f 	cmp	w0, #0x0
   82394:	54000bad 	b.le	82508 <printf+0x9b8>
   82398:	91002f61 	add	x1, x27, #0xb
   8239c:	2a0003f8 	mov	w24, w0
   823a0:	927df020 	and	x0, x1, #0xfffffffffffffff8
   823a4:	f9003be0 	str	x0, [sp, #112]
   823a8:	17ffff25 	b	8203c <printf+0x4ec>
   823ac:	11002300 	add	w0, w24, #0x8
   823b0:	7100001f 	cmp	w0, #0x0
   823b4:	540009ed 	b.le	824f0 <printf+0x9a0>
   823b8:	91003f61 	add	x1, x27, #0xf
   823bc:	2a0003f8 	mov	w24, w0
   823c0:	927df020 	and	x0, x1, #0xfffffffffffffff8
   823c4:	f9003be0 	str	x0, [sp, #112]
   823c8:	17ffff9f 	b	82244 <printf+0x6f4>
   823cc:	11002300 	add	w0, w24, #0x8
   823d0:	7100001f 	cmp	w0, #0x0
   823d4:	54000a6d 	b.le	82520 <printf+0x9d0>
   823d8:	91003f61 	add	x1, x27, #0xf
   823dc:	2a0003f8 	mov	w24, w0
   823e0:	927df020 	and	x0, x1, #0xfffffffffffffff8
   823e4:	f9003be0 	str	x0, [sp, #112]
   823e8:	17fffeed 	b	81f9c <printf+0x44c>
   823ec:	910803e1 	add	x1, sp, #0x200
   823f0:	8b38c021 	add	x1, x1, w24, sxtw
   823f4:	2a0203f8 	mov	w24, w2
   823f8:	17fffeda 	b	81f60 <printf+0x410>
   823fc:	910803e1 	add	x1, sp, #0x200
   82400:	f9003bfb 	str	x27, [sp, #112]
   82404:	8b38c021 	add	x1, x1, w24, sxtw
   82408:	2a0003f8 	mov	w24, w0
   8240c:	aa0103fb 	mov	x27, x1
   82410:	17fffec8 	b	81f30 <printf+0x3e0>
   82414:	34ffd35a 	cbz	w26, 81e7c <printf+0x32c>
   82418:	52800016 	mov	w22, #0x0                   	// #0
   8241c:	d503201f 	nop
   82420:	2a1503e0 	mov	w0, w21
   82424:	110006d6 	add	w22, w22, #0x1
   82428:	d63f0280 	blr	x20
   8242c:	6b1a02df 	cmp	w22, w26
   82430:	54ffff81 	b.ne	82420 <printf+0x8d0>  // b.any
   82434:	f9403bfb 	ldr	x27, [sp, #112]
   82438:	0b160273 	add	w19, w19, w22
   8243c:	a9425bf5 	ldp	x21, x22, [sp, #32]
   82440:	17fffde9 	b	81be4 <printf+0x94>
   82444:	11002300 	add	w0, w24, #0x8
   82448:	7100001f 	cmp	w0, #0x0
   8244c:	5400088d 	b.le	8255c <printf+0xa0c>
   82450:	91002f61 	add	x1, x27, #0xb
   82454:	2a0003f8 	mov	w24, w0
   82458:	927df020 	and	x0, x1, #0xfffffffffffffff8
   8245c:	f9003be0 	str	x0, [sp, #112]
   82460:	17ffffa8 	b	82300 <printf+0x7b0>
   82464:	52800019 	mov	w25, #0x0                   	// #0
   82468:	b9007bff 	str	wzr, [sp, #120]
   8246c:	17ffff46 	b	82184 <printf+0x634>
   82470:	910803e1 	add	x1, sp, #0x200
   82474:	f9003bfb 	str	x27, [sp, #112]
   82478:	8b38c021 	add	x1, x1, w24, sxtw
   8247c:	2a0003f8 	mov	w24, w0
   82480:	aa0103fb 	mov	x27, x1
   82484:	17fffe15 	b	81cd8 <printf+0x188>
   82488:	71000cbf 	cmp	w5, #0x3
   8248c:	54ffeea0 	b.eq	82260 <printf+0x710>  // b.none
   82490:	52800005 	mov	w5, #0x0                   	// #0
   82494:	52800019 	mov	w25, #0x0                   	// #0
   82498:	17fffe1d 	b	81d0c <printf+0x1bc>
   8249c:	2a0503e3 	mov	w3, w5
   824a0:	52800087 	mov	w7, #0x4                   	// #4
   824a4:	52800009 	mov	w9, #0x0                   	// #0
   824a8:	d2800206 	mov	x6, #0x10                  	// #16
   824ac:	52800065 	mov	w5, #0x3                   	// #3
   824b0:	17ffff5e 	b	82228 <printf+0x6d8>
   824b4:	52800027 	mov	w7, #0x1                   	// #1
   824b8:	52800009 	mov	w9, #0x0                   	// #0
   824bc:	d2800046 	mov	x6, #0x2                   	// #2
   824c0:	52800003 	mov	w3, #0x0                   	// #0
   824c4:	17fffe97 	b	81f20 <printf+0x3d0>
   824c8:	52800007 	mov	w7, #0x0                   	// #0
   824cc:	52800009 	mov	w9, #0x0                   	// #0
   824d0:	d2800146 	mov	x6, #0xa                   	// #10
   824d4:	52800003 	mov	w3, #0x0                   	// #0
   824d8:	17fffe92 	b	81f20 <printf+0x3d0>
   824dc:	52800013 	mov	w19, #0x0                   	// #0
   824e0:	17ffff20 	b	82160 <printf+0x610>
   824e4:	9103e3e3 	add	x3, sp, #0xf8
   824e8:	52800020 	mov	w0, #0x1                   	// #1
   824ec:	17fffe22 	b	81d74 <printf+0x224>
   824f0:	910803e1 	add	x1, sp, #0x200
   824f4:	f9003bfb 	str	x27, [sp, #112]
   824f8:	8b38c021 	add	x1, x1, w24, sxtw
   824fc:	2a0003f8 	mov	w24, w0
   82500:	aa0103fb 	mov	x27, x1
   82504:	17ffff50 	b	82244 <printf+0x6f4>
   82508:	910803e1 	add	x1, sp, #0x200
   8250c:	f9003bfb 	str	x27, [sp, #112]
   82510:	8b38c021 	add	x1, x1, w24, sxtw
   82514:	2a0003f8 	mov	w24, w0
   82518:	aa0103fb 	mov	x27, x1
   8251c:	17fffec8 	b	8203c <printf+0x4ec>
   82520:	910803e1 	add	x1, sp, #0x200
   82524:	f9003bfb 	str	x27, [sp, #112]
   82528:	8b38c021 	add	x1, x1, w24, sxtw
   8252c:	2a0003f8 	mov	w24, w0
   82530:	aa0103fb 	mov	x27, x1
   82534:	17fffe9a 	b	81f9c <printf+0x44c>
   82538:	11002300 	add	w0, w24, #0x8
   8253c:	7100001f 	cmp	w0, #0x0
   82540:	540001ad 	b.le	82574 <printf+0xa24>
   82544:	91003f61 	add	x1, x27, #0xf
   82548:	2a0003f8 	mov	w24, w0
   8254c:	927df020 	and	x0, x1, #0xfffffffffffffff8
   82550:	f9003be0 	str	x0, [sp, #112]
   82554:	f9400360 	ldr	x0, [x27]
   82558:	17ffff6b 	b	82304 <printf+0x7b4>
   8255c:	910803e1 	add	x1, sp, #0x200
   82560:	f9003bfb 	str	x27, [sp, #112]
   82564:	8b38c021 	add	x1, x1, w24, sxtw
   82568:	2a0003f8 	mov	w24, w0
   8256c:	aa0103fb 	mov	x27, x1
   82570:	17ffff64 	b	82300 <printf+0x7b0>
   82574:	910803e1 	add	x1, sp, #0x200
   82578:	f9003bfb 	str	x27, [sp, #112]
   8257c:	8b38c021 	add	x1, x1, w24, sxtw
   82580:	2a0003f8 	mov	w24, w0
   82584:	aa0103fb 	mov	x27, x1
   82588:	f9400360 	ldr	x0, [x27]
   8258c:	17ffff5e 	b	82304 <printf+0x7b4>

0000000000082590 <sprintf>:
   82590:	a9a17bfd 	stp	x29, x30, [sp, #-496]!
   82594:	12800fe9 	mov	w9, #0xffffff80            	// #-128
   82598:	910003fd 	mov	x29, sp
   8259c:	a90153f3 	stp	x19, x20, [sp, #16]
   825a0:	aa0103f3 	mov	x19, x1
   825a4:	910703ea 	add	x10, sp, #0x1c0
   825a8:	a9025bf5 	stp	x21, x22, [sp, #32]
   825ac:	9107c3e8 	add	x8, sp, #0x1f0
   825b0:	128005e1 	mov	w1, #0xffffffd0            	// #-48
   825b4:	3d8053e0 	str	q0, [sp, #320]
   825b8:	aa0003f6 	mov	x22, x0
   825bc:	3d8057e1 	str	q1, [sp, #336]
   825c0:	3d805be2 	str	q2, [sp, #352]
   825c4:	3d805fe3 	str	q3, [sp, #368]
   825c8:	3d8063e4 	str	q4, [sp, #384]
   825cc:	3d8067e5 	str	q5, [sp, #400]
   825d0:	3d806be6 	str	q6, [sp, #416]
   825d4:	3d806fe7 	str	q7, [sp, #432]
   825d8:	a91c0fe2 	stp	x2, x3, [sp, #448]
   825dc:	a91d17e4 	stp	x4, x5, [sp, #464]
   825e0:	a91e1fe6 	stp	x6, x7, [sp, #480]
   825e4:	39400262 	ldrb	w2, [x19]
   825e8:	a90923e8 	stp	x8, x8, [sp, #144]
   825ec:	f90053ea 	str	x10, [sp, #160]
   825f0:	291527e1 	stp	w1, w9, [sp, #168]
   825f4:	34004862 	cbz	w2, 82f00 <sprintf+0x970>
   825f8:	aa0003e3 	mov	x3, x0
   825fc:	a90363f7 	stp	x23, x24, [sp, #48]
   82600:	2a0103f7 	mov	w23, w1
   82604:	14000005 	b	82618 <sprintf+0x88>
   82608:	aa0403f3 	mov	x19, x4
   8260c:	38001462 	strb	w2, [x3], #1
   82610:	39400262 	ldrb	w2, [x19]
   82614:	34002e22 	cbz	w2, 82bd8 <sprintf+0x648>
   82618:	7100945f 	cmp	w2, #0x25
   8261c:	91000664 	add	x4, x19, #0x1
   82620:	54ffff41 	b.ne	82608 <sprintf+0x78>  // b.any
   82624:	39400661 	ldrb	w1, [x19, #1]
   82628:	7100943f 	cmp	w1, #0x25
   8262c:	54000061 	b.ne	82638 <sprintf+0xa8>  // b.any
   82630:	91000a64 	add	x4, x19, #0x2
   82634:	17fffff5 	b	82608 <sprintf+0x78>
   82638:	aa0403f3 	mov	x19, x4
   8263c:	52800007 	mov	w7, #0x0                   	// #0
   82640:	a9046bf9 	stp	x25, x26, [sp, #64]
   82644:	52800419 	mov	w25, #0x20                  	// #32
   82648:	5280001a 	mov	w26, #0x0                   	// #0
   8264c:	a90573fb 	stp	x27, x28, [sp, #80]
   82650:	7100b43f 	cmp	w1, #0x2d
   82654:	54001300 	b.eq	828b4 <sprintf+0x324>  // b.none
   82658:	7100c03f 	cmp	w1, #0x30
   8265c:	54001380 	b.eq	828cc <sprintf+0x33c>  // b.none
   82660:	71008c3f 	cmp	w1, #0x23
   82664:	540012e0 	b.eq	828c0 <sprintf+0x330>  // b.none
   82668:	7100a83f 	cmp	w1, #0x2a
   8266c:	54001361 	b.ne	828d8 <sprintf+0x348>  // b.any
   82670:	37f82897 	tbnz	w23, #31, 82b80 <sprintf+0x5f0>
   82674:	91002d01 	add	x1, x8, #0xb
   82678:	aa0803e0 	mov	x0, x8
   8267c:	927df028 	and	x8, x1, #0xfffffffffffffff8
   82680:	b9400018 	ldr	w24, [x0]
   82684:	91000673 	add	x19, x19, #0x1
   82688:	39400261 	ldrb	w1, [x19]
   8268c:	37f82918 	tbnz	w24, #31, 82bac <sprintf+0x61c>
   82690:	7100035f 	cmp	w26, #0x0
   82694:	52800400 	mov	w0, #0x20                  	// #32
   82698:	52000354 	eor	w20, w26, #0x1
   8269c:	1a800339 	csel	w25, w25, w0, eq	// eq = none
   826a0:	7100b83f 	cmp	w1, #0x2e
   826a4:	1280001b 	mov	w27, #0xffffffff            	// #-1
   826a8:	540018e0 	b.eq	829c4 <sprintf+0x434>  // b.none
   826ac:	7101b03f 	cmp	w1, #0x6c
   826b0:	540012e0 	b.eq	8290c <sprintf+0x37c>  // b.none
   826b4:	7101a03f 	cmp	w1, #0x68
   826b8:	52800045 	mov	w5, #0x2                   	// #2
   826bc:	54002820 	b.eq	82bc0 <sprintf+0x630>  // b.none
   826c0:	7101bc3f 	cmp	w1, #0x6f
   826c4:	54002f60 	b.eq	82cb0 <sprintf+0x720>  // b.none
   826c8:	54001948 	b.hi	829f0 <sprintf+0x460>  // b.pmore
   826cc:	71018c3f 	cmp	w1, #0x63
   826d0:	54001ee0 	b.eq	82aac <sprintf+0x51c>  // b.none
   826d4:	54003048 	b.hi	82cdc <sprintf+0x74c>  // b.pmore
   826d8:	7101603f 	cmp	w1, #0x58
   826dc:	54002c80 	b.eq	82c6c <sprintf+0x6dc>  // b.none
   826e0:	7101883f 	cmp	w1, #0x62
   826e4:	5280002a 	mov	w10, #0x1                   	// #1
   826e8:	52800040 	mov	w0, #0x2                   	// #2
   826ec:	54001901 	b.ne	82a0c <sprintf+0x47c>  // b.any
   826f0:	52800006 	mov	w6, #0x0                   	// #0
   826f4:	52800004 	mov	w4, #0x0                   	// #0
   826f8:	37f829b7 	tbnz	w23, #31, 82c2c <sprintf+0x69c>
   826fc:	91002d15 	add	x21, x8, #0xb
   82700:	927df2b5 	and	x21, x21, #0xfffffffffffffff8
   82704:	b9400101 	ldr	w1, [x8]
   82708:	f100003f 	cmp	x1, #0x0
   8270c:	1a9f07e2 	cset	w2, ne	// ne = any
   82710:	0a0200c2 	and	w2, w6, w2
   82714:	91000673 	add	x19, x19, #0x1
   82718:	12000046 	and	w6, w2, #0x1
   8271c:	340039c2 	cbz	w2, 82e54 <sprintf+0x8c4>
   82720:	52800602 	mov	w2, #0x30                  	// #48
   82724:	52800007 	mov	w7, #0x0                   	// #0
   82728:	5280003c 	mov	w28, #0x1                   	// #1
   8272c:	52800006 	mov	w6, #0x0                   	// #0
   82730:	390223e2 	strb	w2, [sp, #136]
   82734:	f0000062 	adrp	x2, 91000 <__text_end__+0xc00>
   82738:	91108042 	add	x2, x2, #0x420
   8273c:	3903e3ff 	strb	wzr, [sp, #248]
   82740:	7100009f 	cmp	w4, #0x0
   82744:	91004049 	add	x9, x2, #0x10
   82748:	9a820129 	csel	x9, x9, x2, eq	// eq = none
   8274c:	35001f2a 	cbnz	w10, 82b30 <sprintf+0x5a0>
   82750:	2a0003e4 	mov	w4, w0
   82754:	eb01009f 	cmp	x4, x1
   82758:	9ac40820 	udiv	x0, x1, x4
   8275c:	9b048401 	msub	x1, x0, x4, x1
   82760:	38616922 	ldrb	w2, [x9, x1]
   82764:	3903e7e2 	strb	w2, [sp, #249]
   82768:	54003d28 	b.hi	82f0c <sprintf+0x97c>  // b.pmore
   8276c:	9103e3e5 	add	x5, sp, #0xf8
   82770:	52800021 	mov	w1, #0x1                   	// #1
   82774:	aa0503e8 	mov	x8, x5
   82778:	9ac40802 	udiv	x2, x0, x4
   8277c:	eb04001f 	cmp	x0, x4
   82780:	11000421 	add	w1, w1, #0x1
   82784:	91000508 	add	x8, x8, #0x1
   82788:	9b04804a 	msub	x10, x2, x4, x0
   8278c:	aa0203e0 	mov	x0, x2
   82790:	386a6922 	ldrb	w2, [x9, x10]
   82794:	39000502 	strb	w2, [x8, #1]
   82798:	54ffff02 	b.cs	82778 <sprintf+0x1e8>  // b.hs, b.nlast
   8279c:	93407c21 	sxtw	x1, w1
   827a0:	9102c3e0 	add	x0, sp, #0xb0
   827a4:	8b0100a5 	add	x5, x5, x1
   827a8:	8b010004 	add	x4, x0, x1
   827ac:	aa0003e1 	mov	x1, x0
   827b0:	14000002 	b	827b8 <sprintf+0x228>
   827b4:	394000a2 	ldrb	w2, [x5]
   827b8:	39000022 	strb	w2, [x1]
   827bc:	eb01009f 	cmp	x4, x1
   827c0:	d10004a5 	sub	x5, x5, #0x1
   827c4:	91000421 	add	x1, x1, #0x1
   827c8:	54ffff61 	b.ne	827b4 <sprintf+0x224>  // b.any
   827cc:	9102c3e0 	add	x0, sp, #0xb0
   827d0:	b9006be7 	str	w7, [sp, #104]
   827d4:	f9003be3 	str	x3, [sp, #112]
   827d8:	b9007fe6 	str	w6, [sp, #124]
   827dc:	940026d9 	bl	8c340 <strlen>
   827e0:	f9403be3 	ldr	x3, [sp, #112]
   827e4:	2a0003e8 	mov	w8, w0
   827e8:	b9406be7 	ldr	w7, [sp, #104]
   827ec:	b9407fe6 	ldr	w6, [sp, #124]
   827f0:	37f8203b 	tbnz	w27, #31, 82bf4 <sprintf+0x664>
   827f4:	4b000365 	sub	w5, w27, w0
   827f8:	6b00037f 	cmp	w27, w0
   827fc:	5400006c 	b.gt	82808 <sprintf+0x278>
   82800:	2a0003fb 	mov	w27, w0
   82804:	52800005 	mov	w5, #0x0                   	// #0
   82808:	0b1b00e0 	add	w0, w7, w27
   8280c:	6b00031f 	cmp	w24, w0
   82810:	540021cc 	b.gt	82c48 <sprintf+0x6b8>
   82814:	9102c3e2 	add	x2, sp, #0xb0
   82818:	52800007 	mov	w7, #0x0                   	// #0
   8281c:	52800419 	mov	w25, #0x20                  	// #32
   82820:	3400013c 	cbz	w28, 82844 <sprintf+0x2b4>
   82824:	394223e0 	ldrb	w0, [sp, #136]
   82828:	71000b9f 	cmp	w28, #0x2
   8282c:	39000060 	strb	w0, [x3]
   82830:	54000061 	b.ne	8283c <sprintf+0x2ac>  // b.any
   82834:	394227e0 	ldrb	w0, [sp, #137]
   82838:	39000460 	strb	w0, [x3, #1]
   8283c:	2a1c03fc 	mov	w28, w28
   82840:	8b1c0063 	add	x3, x3, x28
   82844:	12000349 	and	w9, w26, #0x1
   82848:	3400123a 	cbz	w26, 82a8c <sprintf+0x4fc>
   8284c:	34000066 	cbz	w6, 82858 <sprintf+0x2c8>
   82850:	528005a0 	mov	w0, #0x2d                  	// #45
   82854:	38001460 	strb	w0, [x3], #1
   82858:	34000105 	cbz	w5, 82878 <sprintf+0x2e8>
   8285c:	8b25c064 	add	x4, x3, w5, sxtw
   82860:	aa0303e1 	mov	x1, x3
   82864:	52800600 	mov	w0, #0x30                  	// #48
   82868:	38001420 	strb	w0, [x1], #1
   8286c:	eb01009f 	cmp	x4, x1
   82870:	54ffffc1 	b.ne	82868 <sprintf+0x2d8>  // b.any
   82874:	8b254063 	add	x3, x3, w5, uxtw
   82878:	7100011f 	cmp	w8, #0x0
   8287c:	5400012d 	b.le	828a0 <sprintf+0x310>
   82880:	93407d04 	sxtw	x4, w8
   82884:	d2800000 	mov	x0, #0x0                   	// #0
   82888:	38606841 	ldrb	w1, [x2, x0]
   8288c:	38206861 	strb	w1, [x3, x0]
   82890:	91000400 	add	x0, x0, #0x1
   82894:	eb00009f 	cmp	x4, x0
   82898:	54ffff81 	b.ne	82888 <sprintf+0x2f8>  // b.any
   8289c:	8b284063 	add	x3, x3, w8, uxtw
   828a0:	aa1503e8 	mov	x8, x21
   828a4:	35003169 	cbnz	w9, 82ed0 <sprintf+0x940>
   828a8:	a9446bf9 	ldp	x25, x26, [sp, #64]
   828ac:	a94573fb 	ldp	x27, x28, [sp, #80]
   828b0:	17ffff58 	b	82610 <sprintf+0x80>
   828b4:	38401e61 	ldrb	w1, [x19, #1]!
   828b8:	5280003a 	mov	w26, #0x1                   	// #1
   828bc:	17ffff65 	b	82650 <sprintf+0xc0>
   828c0:	38401e61 	ldrb	w1, [x19, #1]!
   828c4:	52800027 	mov	w7, #0x1                   	// #1
   828c8:	17ffff62 	b	82650 <sprintf+0xc0>
   828cc:	2a0103f9 	mov	w25, w1
   828d0:	38401e61 	ldrb	w1, [x19, #1]!
   828d4:	17ffff5f 	b	82650 <sprintf+0xc0>
   828d8:	5100c025 	sub	w5, w1, #0x30
   828dc:	52800018 	mov	w24, #0x0                   	// #0
   828e0:	12001ca0 	and	w0, w5, #0xff
   828e4:	52800146 	mov	w6, #0xa                   	// #10
   828e8:	7100241f 	cmp	w0, #0x9
   828ec:	54ffed28 	b.hi	82690 <sprintf+0x100>  // b.pmore
   828f0:	38401e61 	ldrb	w1, [x19, #1]!
   828f4:	1b061718 	madd	w24, w24, w6, w5
   828f8:	5100c025 	sub	w5, w1, #0x30
   828fc:	12001ca0 	and	w0, w5, #0xff
   82900:	7100241f 	cmp	w0, #0x9
   82904:	54ffff69 	b.ls	828f0 <sprintf+0x360>  // b.plast
   82908:	17ffff62 	b	82690 <sprintf+0x100>
   8290c:	39400660 	ldrb	w0, [x19, #1]
   82910:	91000673 	add	x19, x19, #0x1
   82914:	7101bc1f 	cmp	w0, #0x6f
   82918:	54001ca0 	b.eq	82cac <sprintf+0x71c>  // b.none
   8291c:	540007e9 	b.ls	82a18 <sprintf+0x488>  // b.plast
   82920:	7101d41f 	cmp	w0, #0x75
   82924:	54002cc0 	b.eq	82ebc <sprintf+0x92c>  // b.none
   82928:	54002a08 	b.hi	82e68 <sprintf+0x8d8>  // b.pmore
   8292c:	7101c01f 	cmp	w0, #0x70
   82930:	54000d40 	b.eq	82ad8 <sprintf+0x548>  // b.none
   82934:	7101cc1f 	cmp	w0, #0x73
   82938:	540006a1 	b.ne	82a0c <sprintf+0x47c>  // b.any
   8293c:	37f82437 	tbnz	w23, #31, 82dc0 <sprintf+0x830>
   82940:	91003d15 	add	x21, x8, #0xf
   82944:	927df2b5 	and	x21, x21, #0xfffffffffffffff8
   82948:	f9400102 	ldr	x2, [x8]
   8294c:	d0000060 	adrp	x0, 90000 <__sflush_r+0x40>
   82950:	91100000 	add	x0, x0, #0x400
   82954:	f100005f 	cmp	x2, #0x0
   82958:	9a820002 	csel	x2, x0, x2, eq	// eq = none
   8295c:	aa0203e0 	mov	x0, x2
   82960:	a9068fe2 	stp	x2, x3, [sp, #104]
   82964:	94002677 	bl	8c340 <strlen>
   82968:	a9468fe2 	ldp	x2, x3, [sp, #104]
   8296c:	91000673 	add	x19, x19, #0x1
   82970:	2a0003e8 	mov	w8, w0
   82974:	5280001c 	mov	w28, #0x0                   	// #0
   82978:	52800006 	mov	w6, #0x0                   	// #0
   8297c:	37f8141b 	tbnz	w27, #31, 82bfc <sprintf+0x66c>
   82980:	6b1b001f 	cmp	w0, w27
   82984:	5280001c 	mov	w28, #0x0                   	// #0
   82988:	1a9bd008 	csel	w8, w0, w27, le
   8298c:	7100c33f 	cmp	w25, #0x30
   82990:	1a9f17e1 	cset	w1, eq	// eq = none
   82994:	2a0803e0 	mov	w0, w8
   82998:	6b00031f 	cmp	w24, w0
   8299c:	0a010281 	and	w1, w20, w1
   829a0:	52800006 	mov	w6, #0x0                   	// #0
   829a4:	52800004 	mov	w4, #0x0                   	// #0
   829a8:	52800005 	mov	w5, #0x0                   	// #0
   829ac:	5400136c 	b.gt	82c18 <sprintf+0x688>
   829b0:	34001381 	cbz	w1, 82c20 <sprintf+0x690>
   829b4:	12000349 	and	w9, w26, #0x1
   829b8:	52800007 	mov	w7, #0x0                   	// #0
   829bc:	35fff35c 	cbnz	w28, 82824 <sprintf+0x294>
   829c0:	17ffffa3 	b	8284c <sprintf+0x2bc>
   829c4:	39400661 	ldrb	w1, [x19, #1]
   829c8:	7100a83f 	cmp	w1, #0x2a
   829cc:	54000421 	b.ne	82a50 <sprintf+0x4c0>  // b.any
   829d0:	37f81c57 	tbnz	w23, #31, 82d58 <sprintf+0x7c8>
   829d4:	91002d01 	add	x1, x8, #0xb
   829d8:	aa0803e0 	mov	x0, x8
   829dc:	927df028 	and	x8, x1, #0xfffffffffffffff8
   829e0:	39400a61 	ldrb	w1, [x19, #2]
   829e4:	91000a73 	add	x19, x19, #0x2
   829e8:	b940001b 	ldr	w27, [x0]
   829ec:	17ffff30 	b	826ac <sprintf+0x11c>
   829f0:	7101d43f 	cmp	w1, #0x75
   829f4:	540006c0 	b.eq	82acc <sprintf+0x53c>  // b.none
   829f8:	540019c8 	b.hi	82d30 <sprintf+0x7a0>  // b.pmore
   829fc:	7101c03f 	cmp	w1, #0x70
   82a00:	540006c0 	b.eq	82ad8 <sprintf+0x548>  // b.none
   82a04:	7101cc3f 	cmp	w1, #0x73
   82a08:	54fff9a0 	b.eq	8293c <sprintf+0x3ac>  // b.none
   82a0c:	a9446bf9 	ldp	x25, x26, [sp, #64]
   82a10:	a94573fb 	ldp	x27, x28, [sp, #80]
   82a14:	17fffefd 	b	82608 <sprintf+0x78>
   82a18:	7101881f 	cmp	w0, #0x62
   82a1c:	540023a0 	b.eq	82e90 <sprintf+0x900>  // b.none
   82a20:	54001209 	b.ls	82c60 <sprintf+0x6d0>  // b.plast
   82a24:	71018c1f 	cmp	w0, #0x63
   82a28:	54000420 	b.eq	82aac <sprintf+0x51c>  // b.none
   82a2c:	7101901f 	cmp	w0, #0x64
   82a30:	54000060 	b.eq	82a3c <sprintf+0x4ac>  // b.none
   82a34:	7101a41f 	cmp	w0, #0x69
   82a38:	54fffea1 	b.ne	82a0c <sprintf+0x47c>  // b.any
   82a3c:	37f82937 	tbnz	w23, #31, 82f60 <sprintf+0x9d0>
   82a40:	91003d15 	add	x21, x8, #0xf
   82a44:	f9400101 	ldr	x1, [x8]
   82a48:	927df2b5 	and	x21, x21, #0xfffffffffffffff8
   82a4c:	140000ac 	b	82cfc <sprintf+0x76c>
   82a50:	5100c025 	sub	w5, w1, #0x30
   82a54:	91000673 	add	x19, x19, #0x1
   82a58:	12001ca0 	and	w0, w5, #0xff
   82a5c:	5280001b 	mov	w27, #0x0                   	// #0
   82a60:	7100241f 	cmp	w0, #0x9
   82a64:	52800146 	mov	w6, #0xa                   	// #10
   82a68:	54ffe228 	b.hi	826ac <sprintf+0x11c>  // b.pmore
   82a6c:	d503201f 	nop
   82a70:	38401e61 	ldrb	w1, [x19, #1]!
   82a74:	1b06177b 	madd	w27, w27, w6, w5
   82a78:	5100c025 	sub	w5, w1, #0x30
   82a7c:	12001ca0 	and	w0, w5, #0xff
   82a80:	7100241f 	cmp	w0, #0x9
   82a84:	54ffff69 	b.ls	82a70 <sprintf+0x4e0>  // b.plast
   82a88:	17ffff09 	b	826ac <sprintf+0x11c>
   82a8c:	34ffee07 	cbz	w7, 8284c <sprintf+0x2bc>
   82a90:	8b27c061 	add	x1, x3, w7, sxtw
   82a94:	aa0303e0 	mov	x0, x3
   82a98:	38001419 	strb	w25, [x0], #1
   82a9c:	eb00003f 	cmp	x1, x0
   82aa0:	54ffffc1 	b.ne	82a98 <sprintf+0x508>  // b.any
   82aa4:	8b274063 	add	x3, x3, w7, uxtw
   82aa8:	17ffff69 	b	8284c <sprintf+0x2bc>
   82aac:	37f817d7 	tbnz	w23, #31, 82da4 <sprintf+0x814>
   82ab0:	91002d15 	add	x21, x8, #0xb
   82ab4:	927df2b5 	and	x21, x21, #0xfffffffffffffff8
   82ab8:	b9400100 	ldr	w0, [x8]
   82abc:	9102c3e2 	add	x2, sp, #0xb0
   82ac0:	3902c3e0 	strb	w0, [sp, #176]
   82ac4:	3902c7ff 	strb	wzr, [sp, #177]
   82ac8:	17ffffa5 	b	8295c <sprintf+0x3cc>
   82acc:	5280000a 	mov	w10, #0x0                   	// #0
   82ad0:	52800140 	mov	w0, #0xa                   	// #10
   82ad4:	17ffff07 	b	826f0 <sprintf+0x160>
   82ad8:	37f81837 	tbnz	w23, #31, 82ddc <sprintf+0x84c>
   82adc:	91003d15 	add	x21, x8, #0xf
   82ae0:	927df2b5 	and	x21, x21, #0xfffffffffffffff8
   82ae4:	f9400101 	ldr	x1, [x8]
   82ae8:	91000673 	add	x19, x19, #0x1
   82aec:	5280008a 	mov	w10, #0x4                   	// #4
   82af0:	52800200 	mov	w0, #0x10                  	// #16
   82af4:	52800004 	mov	w4, #0x0                   	// #0
   82af8:	52800118 	mov	w24, #0x8                   	// #8
   82afc:	52800619 	mov	w25, #0x30                  	// #48
   82b00:	528f0602 	mov	w2, #0x7830                	// #30768
   82b04:	790113e2 	strh	w2, [sp, #136]
   82b08:	f0000062 	adrp	x2, 91000 <__text_end__+0xc00>
   82b0c:	91108042 	add	x2, x2, #0x420
   82b10:	3903e3ff 	strb	wzr, [sp, #248]
   82b14:	7100009f 	cmp	w4, #0x0
   82b18:	91004049 	add	x9, x2, #0x10
   82b1c:	52800007 	mov	w7, #0x0                   	// #0
   82b20:	9a820129 	csel	x9, x9, x2, eq	// eq = none
   82b24:	5280005c 	mov	w28, #0x2                   	// #2
   82b28:	52800006 	mov	w6, #0x0                   	// #0
   82b2c:	34ffe12a 	cbz	w10, 82750 <sprintf+0x1c0>
   82b30:	92800008 	mov	x8, #0xffffffffffffffff    	// #-1
   82b34:	9aca2420 	lsr	x0, x1, x10
   82b38:	9aca2108 	lsl	x8, x8, x10
   82b3c:	8a280021 	bic	x1, x1, x8
   82b40:	9103e3e5 	add	x5, sp, #0xf8
   82b44:	aa2803e8 	mvn	x8, x8
   82b48:	38616922 	ldrb	w2, [x9, x1]
   82b4c:	52800021 	mov	w1, #0x1                   	// #1
   82b50:	3903e7e2 	strb	w2, [sp, #249]
   82b54:	b4ffe240 	cbz	x0, 8279c <sprintf+0x20c>
   82b58:	aa0503e4 	mov	x4, x5
   82b5c:	d503201f 	nop
   82b60:	8a080002 	and	x2, x0, x8
   82b64:	11000421 	add	w1, w1, #0x1
   82b68:	91000484 	add	x4, x4, #0x1
   82b6c:	9aca2400 	lsr	x0, x0, x10
   82b70:	38626922 	ldrb	w2, [x9, x2]
   82b74:	39000482 	strb	w2, [x4, #1]
   82b78:	b5ffff40 	cbnz	x0, 82b60 <sprintf+0x5d0>
   82b7c:	17ffff08 	b	8279c <sprintf+0x20c>
   82b80:	110022e1 	add	w1, w23, #0x8
   82b84:	7100003f 	cmp	w1, #0x0
   82b88:	54000a2d 	b.le	82ccc <sprintf+0x73c>
   82b8c:	aa0803e0 	mov	x0, x8
   82b90:	91002d05 	add	x5, x8, #0xb
   82b94:	2a0103f7 	mov	w23, w1
   82b98:	927df0a8 	and	x8, x5, #0xfffffffffffffff8
   82b9c:	39400661 	ldrb	w1, [x19, #1]
   82ba0:	91000673 	add	x19, x19, #0x1
   82ba4:	b9400018 	ldr	w24, [x0]
   82ba8:	36ffd758 	tbz	w24, #31, 82690 <sprintf+0x100>
   82bac:	4b1803f8 	neg	w24, w24
   82bb0:	52800014 	mov	w20, #0x0                   	// #0
   82bb4:	5280003a 	mov	w26, #0x1                   	// #1
   82bb8:	52800419 	mov	w25, #0x20                  	// #32
   82bbc:	17fffeb9 	b	826a0 <sprintf+0x110>
   82bc0:	39400661 	ldrb	w1, [x19, #1]
   82bc4:	7101a03f 	cmp	w1, #0x68
   82bc8:	54000d80 	b.eq	82d78 <sprintf+0x7e8>  // b.none
   82bcc:	91000673 	add	x19, x19, #0x1
   82bd0:	52800025 	mov	w5, #0x1                   	// #1
   82bd4:	17fffebb 	b	826c0 <sprintf+0x130>
   82bd8:	a94363f7 	ldp	x23, x24, [sp, #48]
   82bdc:	4b160060 	sub	w0, w3, w22
   82be0:	3900007f 	strb	wzr, [x3]
   82be4:	a94153f3 	ldp	x19, x20, [sp, #16]
   82be8:	a9425bf5 	ldp	x21, x22, [sp, #32]
   82bec:	a8df7bfd 	ldp	x29, x30, [sp], #496
   82bf0:	d65f03c0 	ret
   82bf4:	0b0000e0 	add	w0, w7, w0
   82bf8:	9102c3e2 	add	x2, sp, #0xb0
   82bfc:	7100c33f 	cmp	w25, #0x30
   82c00:	52800004 	mov	w4, #0x0                   	// #0
   82c04:	1a9f17e1 	cset	w1, eq	// eq = none
   82c08:	52800005 	mov	w5, #0x0                   	// #0
   82c0c:	6b00031f 	cmp	w24, w0
   82c10:	0a010281 	and	w1, w20, w1
   82c14:	54ffeced 	b.le	829b0 <sprintf+0x420>
   82c18:	4b000305 	sub	w5, w24, w0
   82c1c:	35ffecc1 	cbnz	w1, 829b4 <sprintf+0x424>
   82c20:	2a0503e7 	mov	w7, w5
   82c24:	2a0403e5 	mov	w5, w4
   82c28:	17fffefe 	b	82820 <sprintf+0x290>
   82c2c:	110022e1 	add	w1, w23, #0x8
   82c30:	7100003f 	cmp	w1, #0x0
   82c34:	5400104d 	b.le	82e3c <sprintf+0x8ac>
   82c38:	91002d15 	add	x21, x8, #0xb
   82c3c:	2a0103f7 	mov	w23, w1
   82c40:	927df2b5 	and	x21, x21, #0xfffffffffffffff8
   82c44:	17fffeb0 	b	82704 <sprintf+0x174>
   82c48:	2a0503e4 	mov	w4, w5
   82c4c:	9102c3e2 	add	x2, sp, #0xb0
   82c50:	4b000305 	sub	w5, w24, w0
   82c54:	52800001 	mov	w1, #0x0                   	// #0
   82c58:	52800419 	mov	w25, #0x20                  	// #32
   82c5c:	17fffff0 	b	82c1c <sprintf+0x68c>
   82c60:	7101601f 	cmp	w0, #0x58
   82c64:	52800065 	mov	w5, #0x3                   	// #3
   82c68:	54ffed21 	b.ne	82a0c <sprintf+0x47c>  // b.any
   82c6c:	710004ff 	cmp	w7, #0x1
   82c70:	540011a0 	b.eq	82ea4 <sprintf+0x914>  // b.none
   82c74:	5280008a 	mov	w10, #0x4                   	// #4
   82c78:	52800006 	mov	w6, #0x0                   	// #0
   82c7c:	52800200 	mov	w0, #0x10                  	// #16
   82c80:	52800024 	mov	w4, #0x1                   	// #1
   82c84:	71000cbf 	cmp	w5, #0x3
   82c88:	54ffd381 	b.ne	826f8 <sprintf+0x168>  // b.any
   82c8c:	37f807f7 	tbnz	w23, #31, 82d88 <sprintf+0x7f8>
   82c90:	91003d15 	add	x21, x8, #0xf
   82c94:	927df2b5 	and	x21, x21, #0xfffffffffffffff8
   82c98:	f9400101 	ldr	x1, [x8]
   82c9c:	f100003f 	cmp	x1, #0x0
   82ca0:	1a9f07e2 	cset	w2, ne	// ne = any
   82ca4:	0a0200c2 	and	w2, w6, w2
   82ca8:	17fffe9b 	b	82714 <sprintf+0x184>
   82cac:	52800065 	mov	w5, #0x3                   	// #3
   82cb0:	531f18e7 	ubfiz	w7, w7, #1, #7
   82cb4:	5280006a 	mov	w10, #0x3                   	// #3
   82cb8:	710008ff 	cmp	w7, #0x2
   82cbc:	52800100 	mov	w0, #0x8                   	// #8
   82cc0:	1a9f17e6 	cset	w6, eq	// eq = none
   82cc4:	52800004 	mov	w4, #0x0                   	// #0
   82cc8:	17ffffef 	b	82c84 <sprintf+0x6f4>
   82ccc:	9107c3e0 	add	x0, sp, #0x1f0
   82cd0:	8b37c000 	add	x0, x0, w23, sxtw
   82cd4:	2a0103f7 	mov	w23, w1
   82cd8:	17fffe6a 	b	82680 <sprintf+0xf0>
   82cdc:	7101903f 	cmp	w1, #0x64
   82ce0:	54000060 	b.eq	82cec <sprintf+0x75c>  // b.none
   82ce4:	7101a43f 	cmp	w1, #0x69
   82ce8:	54ffe921 	b.ne	82a0c <sprintf+0x47c>  // b.any
   82cec:	37f809b7 	tbnz	w23, #31, 82e20 <sprintf+0x890>
   82cf0:	91002d15 	add	x21, x8, #0xb
   82cf4:	927df2b5 	and	x21, x21, #0xfffffffffffffff8
   82cf8:	b9800101 	ldrsw	x1, [x8]
   82cfc:	52800007 	mov	w7, #0x0                   	// #0
   82d00:	52800002 	mov	w2, #0x0                   	// #0
   82d04:	b6f80081 	tbz	x1, #63, 82d14 <sprintf+0x784>
   82d08:	52800027 	mov	w7, #0x1                   	// #1
   82d0c:	cb0103e1 	neg	x1, x1
   82d10:	2a0703e2 	mov	w2, w7
   82d14:	91000673 	add	x19, x19, #0x1
   82d18:	12000046 	and	w6, w2, #0x1
   82d1c:	5280000a 	mov	w10, #0x0                   	// #0
   82d20:	52800140 	mov	w0, #0xa                   	// #10
   82d24:	52800004 	mov	w4, #0x0                   	// #0
   82d28:	5280001c 	mov	w28, #0x0                   	// #0
   82d2c:	17fffe82 	b	82734 <sprintf+0x1a4>
   82d30:	7101e03f 	cmp	w1, #0x78
   82d34:	54ffe6c1 	b.ne	82a0c <sprintf+0x47c>  // b.any
   82d38:	710004ff 	cmp	w7, #0x1
   82d3c:	5280008a 	mov	w10, #0x4                   	// #4
   82d40:	52800006 	mov	w6, #0x0                   	// #0
   82d44:	52800200 	mov	w0, #0x10                  	// #16
   82d48:	52800004 	mov	w4, #0x0                   	// #0
   82d4c:	54ffcd61 	b.ne	826f8 <sprintf+0x168>  // b.any
   82d50:	52800067 	mov	w7, #0x3                   	// #3
   82d54:	17fffe69 	b	826f8 <sprintf+0x168>
   82d58:	110022e1 	add	w1, w23, #0x8
   82d5c:	7100003f 	cmp	w1, #0x0
   82d60:	540004cd 	b.le	82df8 <sprintf+0x868>
   82d64:	91002d05 	add	x5, x8, #0xb
   82d68:	aa0803e0 	mov	x0, x8
   82d6c:	2a0103f7 	mov	w23, w1
   82d70:	927df0a8 	and	x8, x5, #0xfffffffffffffff8
   82d74:	17ffff1b 	b	829e0 <sprintf+0x450>
   82d78:	39400a61 	ldrb	w1, [x19, #2]
   82d7c:	52800005 	mov	w5, #0x0                   	// #0
   82d80:	91000a73 	add	x19, x19, #0x2
   82d84:	17fffe4f 	b	826c0 <sprintf+0x130>
   82d88:	110022e1 	add	w1, w23, #0x8
   82d8c:	7100003f 	cmp	w1, #0x0
   82d90:	540003cd 	b.le	82e08 <sprintf+0x878>
   82d94:	91003d15 	add	x21, x8, #0xf
   82d98:	2a0103f7 	mov	w23, w1
   82d9c:	927df2b5 	and	x21, x21, #0xfffffffffffffff8
   82da0:	17ffffbe 	b	82c98 <sprintf+0x708>
   82da4:	110022e0 	add	w0, w23, #0x8
   82da8:	7100001f 	cmp	w0, #0x0
   82dac:	54000c2d 	b.le	82f30 <sprintf+0x9a0>
   82db0:	91002d15 	add	x21, x8, #0xb
   82db4:	2a0003f7 	mov	w23, w0
   82db8:	927df2b5 	and	x21, x21, #0xfffffffffffffff8
   82dbc:	17ffff3f 	b	82ab8 <sprintf+0x528>
   82dc0:	110022e0 	add	w0, w23, #0x8
   82dc4:	7100001f 	cmp	w0, #0x0
   82dc8:	54000a8d 	b.le	82f18 <sprintf+0x988>
   82dcc:	91003d15 	add	x21, x8, #0xf
   82dd0:	2a0003f7 	mov	w23, w0
   82dd4:	927df2b5 	and	x21, x21, #0xfffffffffffffff8
   82dd8:	17fffedc 	b	82948 <sprintf+0x3b8>
   82ddc:	110022e0 	add	w0, w23, #0x8
   82de0:	7100001f 	cmp	w0, #0x0
   82de4:	54000b2d 	b.le	82f48 <sprintf+0x9b8>
   82de8:	91003d15 	add	x21, x8, #0xf
   82dec:	2a0003f7 	mov	w23, w0
   82df0:	927df2b5 	and	x21, x21, #0xfffffffffffffff8
   82df4:	17ffff3c 	b	82ae4 <sprintf+0x554>
   82df8:	9107c3e0 	add	x0, sp, #0x1f0
   82dfc:	8b37c000 	add	x0, x0, w23, sxtw
   82e00:	2a0103f7 	mov	w23, w1
   82e04:	17fffef7 	b	829e0 <sprintf+0x450>
   82e08:	9107c3e2 	add	x2, sp, #0x1f0
   82e0c:	aa0803f5 	mov	x21, x8
   82e10:	8b37c042 	add	x2, x2, w23, sxtw
   82e14:	2a0103f7 	mov	w23, w1
   82e18:	aa0203e8 	mov	x8, x2
   82e1c:	17ffff9f 	b	82c98 <sprintf+0x708>
   82e20:	110022e0 	add	w0, w23, #0x8
   82e24:	7100001f 	cmp	w0, #0x0
   82e28:	54000acd 	b.le	82f80 <sprintf+0x9f0>
   82e2c:	91002d15 	add	x21, x8, #0xb
   82e30:	2a0003f7 	mov	w23, w0
   82e34:	927df2b5 	and	x21, x21, #0xfffffffffffffff8
   82e38:	17ffffb0 	b	82cf8 <sprintf+0x768>
   82e3c:	9107c3e2 	add	x2, sp, #0x1f0
   82e40:	aa0803f5 	mov	x21, x8
   82e44:	8b37c042 	add	x2, x2, w23, sxtw
   82e48:	2a0103f7 	mov	w23, w1
   82e4c:	aa0203e8 	mov	x8, x2
   82e50:	17fffe2d 	b	82704 <sprintf+0x174>
   82e54:	71000cff 	cmp	w7, #0x3
   82e58:	54ffe540 	b.eq	82b00 <sprintf+0x570>  // b.none
   82e5c:	52800007 	mov	w7, #0x0                   	// #0
   82e60:	5280001c 	mov	w28, #0x0                   	// #0
   82e64:	17fffe34 	b	82734 <sprintf+0x1a4>
   82e68:	7101e01f 	cmp	w0, #0x78
   82e6c:	54ffdd01 	b.ne	82a0c <sprintf+0x47c>  // b.any
   82e70:	710004ff 	cmp	w7, #0x1
   82e74:	5280008a 	mov	w10, #0x4                   	// #4
   82e78:	52800006 	mov	w6, #0x0                   	// #0
   82e7c:	52800200 	mov	w0, #0x10                  	// #16
   82e80:	52800004 	mov	w4, #0x0                   	// #0
   82e84:	54fff041 	b.ne	82c8c <sprintf+0x6fc>  // b.any
   82e88:	52800067 	mov	w7, #0x3                   	// #3
   82e8c:	17ffff80 	b	82c8c <sprintf+0x6fc>
   82e90:	5280002a 	mov	w10, #0x1                   	// #1
   82e94:	52800006 	mov	w6, #0x0                   	// #0
   82e98:	52800040 	mov	w0, #0x2                   	// #2
   82e9c:	52800004 	mov	w4, #0x0                   	// #0
   82ea0:	17ffff7b 	b	82c8c <sprintf+0x6fc>
   82ea4:	2a0703e4 	mov	w4, w7
   82ea8:	5280008a 	mov	w10, #0x4                   	// #4
   82eac:	52800006 	mov	w6, #0x0                   	// #0
   82eb0:	52800200 	mov	w0, #0x10                  	// #16
   82eb4:	52800067 	mov	w7, #0x3                   	// #3
   82eb8:	17ffff73 	b	82c84 <sprintf+0x6f4>
   82ebc:	5280000a 	mov	w10, #0x0                   	// #0
   82ec0:	52800006 	mov	w6, #0x0                   	// #0
   82ec4:	52800140 	mov	w0, #0xa                   	// #10
   82ec8:	52800004 	mov	w4, #0x0                   	// #0
   82ecc:	17ffff70 	b	82c8c <sprintf+0x6fc>
   82ed0:	34ffcec7 	cbz	w7, 828a8 <sprintf+0x318>
   82ed4:	8b27c061 	add	x1, x3, w7, sxtw
   82ed8:	aa0303e0 	mov	x0, x3
   82edc:	d503201f 	nop
   82ee0:	38001419 	strb	w25, [x0], #1
   82ee4:	eb01001f 	cmp	x0, x1
   82ee8:	54ffffc1 	b.ne	82ee0 <sprintf+0x950>  // b.any
   82eec:	a9446bf9 	ldp	x25, x26, [sp, #64]
   82ef0:	8b274063 	add	x3, x3, w7, uxtw
   82ef4:	a94573fb 	ldp	x27, x28, [sp, #80]
   82ef8:	aa1503e8 	mov	x8, x21
   82efc:	17fffdc5 	b	82610 <sprintf+0x80>
   82f00:	aa0003e3 	mov	x3, x0
   82f04:	52800000 	mov	w0, #0x0                   	// #0
   82f08:	17ffff36 	b	82be0 <sprintf+0x650>
   82f0c:	9103e3e5 	add	x5, sp, #0xf8
   82f10:	52800021 	mov	w1, #0x1                   	// #1
   82f14:	17fffe22 	b	8279c <sprintf+0x20c>
   82f18:	9107c3e1 	add	x1, sp, #0x1f0
   82f1c:	aa0803f5 	mov	x21, x8
   82f20:	8b37c021 	add	x1, x1, w23, sxtw
   82f24:	2a0003f7 	mov	w23, w0
   82f28:	aa0103e8 	mov	x8, x1
   82f2c:	17fffe87 	b	82948 <sprintf+0x3b8>
   82f30:	9107c3e1 	add	x1, sp, #0x1f0
   82f34:	aa0803f5 	mov	x21, x8
   82f38:	8b37c021 	add	x1, x1, w23, sxtw
   82f3c:	2a0003f7 	mov	w23, w0
   82f40:	aa0103e8 	mov	x8, x1
   82f44:	17fffedd 	b	82ab8 <sprintf+0x528>
   82f48:	9107c3e1 	add	x1, sp, #0x1f0
   82f4c:	aa0803f5 	mov	x21, x8
   82f50:	8b37c021 	add	x1, x1, w23, sxtw
   82f54:	2a0003f7 	mov	w23, w0
   82f58:	aa0103e8 	mov	x8, x1
   82f5c:	17fffee2 	b	82ae4 <sprintf+0x554>
   82f60:	110022e0 	add	w0, w23, #0x8
   82f64:	7100001f 	cmp	w0, #0x0
   82f68:	5400018d 	b.le	82f98 <sprintf+0xa08>
   82f6c:	91003d15 	add	x21, x8, #0xf
   82f70:	2a0003f7 	mov	w23, w0
   82f74:	f9400101 	ldr	x1, [x8]
   82f78:	927df2b5 	and	x21, x21, #0xfffffffffffffff8
   82f7c:	17ffff60 	b	82cfc <sprintf+0x76c>
   82f80:	9107c3e1 	add	x1, sp, #0x1f0
   82f84:	aa0803f5 	mov	x21, x8
   82f88:	8b37c021 	add	x1, x1, w23, sxtw
   82f8c:	2a0003f7 	mov	w23, w0
   82f90:	aa0103e8 	mov	x8, x1
   82f94:	17ffff59 	b	82cf8 <sprintf+0x768>
   82f98:	9107c3e1 	add	x1, sp, #0x1f0
   82f9c:	aa0803f5 	mov	x21, x8
   82fa0:	8b37c021 	add	x1, x1, w23, sxtw
   82fa4:	2a0003f7 	mov	w23, w0
   82fa8:	aa0103e8 	mov	x8, x1
   82fac:	f9400101 	ldr	x1, [x8]
   82fb0:	17ffff53 	b	82cfc <sprintf+0x76c>
	...

0000000000082fc0 <c_irq_handler>:
   82fc0:	a9bf7bfd 	stp	x29, x30, [sp, #-16]!
   82fc4:	910003fd 	mov	x29, sp
   82fc8:	b0000081 	adrp	x1, 93000 <_impure_data+0x148>
   82fcc:	39622020 	ldrb	w0, [x1, #2184]
   82fd0:	52000000 	eor	w0, w0, #0x1
   82fd4:	39222020 	strb	w0, [x1, #2184]
   82fd8:	9400075e 	bl	84d50 <set_Activity_LED>
   82fdc:	a8c17bfd 	ldp	x29, x30, [sp], #16
   82fe0:	14000710 	b	84c20 <ClearTimerIrq>
   82fe4:	d503201f 	nop
   82fe8:	d503201f 	nop
   82fec:	d503201f 	nop

0000000000082ff0 <_read>:
   82ff0:	52800000 	mov	w0, #0x0                   	// #0
   82ff4:	d65f03c0 	ret
   82ff8:	d503201f 	nop
   82ffc:	d503201f 	nop

0000000000083000 <_write>:
   83000:	2a0203e0 	mov	w0, w2
   83004:	d65f03c0 	ret
   83008:	d503201f 	nop
   8300c:	d503201f 	nop

0000000000083010 <_close>:
   83010:	52800000 	mov	w0, #0x0                   	// #0
   83014:	d65f03c0 	ret
   83018:	d503201f 	nop
   8301c:	d503201f 	nop

0000000000083020 <_lseek>:
   83020:	52800000 	mov	w0, #0x0                   	// #0
   83024:	d65f03c0 	ret
   83028:	d503201f 	nop
   8302c:	d503201f 	nop

0000000000083030 <_fstat>:
   83030:	52800000 	mov	w0, #0x0                   	// #0
   83034:	d65f03c0 	ret
   83038:	d503201f 	nop
   8303c:	d503201f 	nop

0000000000083040 <_isatty>:
   83040:	52800020 	mov	w0, #0x1                   	// #1
   83044:	d65f03c0 	ret
   83048:	d503201f 	nop
   8304c:	d503201f 	nop

0000000000083050 <kernel_main>:
   83050:	a9bb7bfd 	stp	x29, x30, [sp, #-80]!
   83054:	d0000000 	adrp	x0, 85000 <displaySmartStart+0x60>
   83058:	9100c000 	add	x0, x0, #0x30
   8305c:	910003fd 	mov	x29, sp
   83060:	a90153f3 	stp	x19, x20, [sp, #16]
   83064:	97fffab3 	bl	81b30 <Init_EmbStdio>
   83068:	d0fffff3 	adrp	x19, 81000 <CoreExecute+0x30>
   8306c:	912d4273 	add	x19, x19, #0xb50
   83070:	52800002 	mov	w2, #0x0                   	// #0
   83074:	aa1303e3 	mov	x3, x19
   83078:	52800001 	mov	w1, #0x0                   	// #0
   8307c:	52800000 	mov	w0, #0x0                   	// #0
   83080:	940009f4 	bl	85850 <PiConsole_Init>
   83084:	aa1303e0 	mov	x0, x19
   83088:	52800034 	mov	w20, #0x1                   	// #1
   8308c:	940007c5 	bl	84fa0 <displaySmartStart>
   83090:	aa1303e0 	mov	x0, x19
   83094:	9400079b 	bl	84f00 <ARM_setmaxspeed>
   83098:	f0ffffe1 	adrp	x1, 82000 <printf+0x4b0>
   8309c:	913f0021 	add	x1, x1, #0xfc0
   830a0:	52942400 	mov	w0, #0xa120                	// #41248
   830a4:	72a000e0 	movk	w0, #0x7, lsl #16
   830a8:	940006e6 	bl	84c40 <TimerIrqSetup>
   830ac:	b0000073 	adrp	x19, 90000 <__sflush_r+0x40>
   830b0:	9139c273 	add	x19, x19, #0xe70
   830b4:	97fff7c3 	bl	80fc0 <EnableInterrupts>
   830b8:	94002072 	bl	8b280 <UsbInitialise>
   830bc:	aa1303e0 	mov	x0, x19
   830c0:	97fffaa4 	bl	81b50 <printf>
   830c4:	940018e7 	bl	89460 <UsbGetRootHub>
   830c8:	52800562 	mov	w2, #0x2b                  	// #43
   830cc:	52800021 	mov	w1, #0x1                   	// #1
   830d0:	94002144 	bl	8b5e0 <UsbShowTree>
   830d4:	aa1303e0 	mov	x0, x19
   830d8:	97fffa9e 	bl	81b50 <printf>
   830dc:	14000003 	b	830e8 <kernel_main+0x98>
   830e0:	7100869f 	cmp	w20, #0x21
   830e4:	54000640 	b.eq	831ac <kernel_main+0x15c>  // b.none
   830e8:	12001e93 	and	w19, w20, #0xff
   830ec:	11000694 	add	w20, w20, #0x1
   830f0:	2a1303e0 	mov	w0, w19
   830f4:	940018c3 	bl	89400 <IsKeyboard>
   830f8:	3607ff40 	tbz	w0, #0, 830e0 <kernel_main+0x90>
   830fc:	b0000060 	adrp	x0, 90000 <__sflush_r+0x40>
   83100:	91130000 	add	x0, x0, #0x4c0
   83104:	a9025bf5 	stp	x21, x22, [sp, #32]
   83108:	b0000074 	adrp	x20, 90000 <__sflush_r+0x40>
   8310c:	9112a294 	add	x20, x20, #0x4a8
   83110:	f9001bf7 	str	x23, [sp, #48]
   83114:	97fffa8f 	bl	81b50 <printf>
   83118:	910113e1 	add	x1, sp, #0x44
   8311c:	910103e0 	add	x0, sp, #0x40
   83120:	b0000076 	adrp	x22, 90000 <__sflush_r+0x40>
   83124:	911162d6 	add	x22, x22, #0x458
   83128:	d290d415 	mov	x21, #0x86a0                	// #34464
   8312c:	f2a00035 	movk	x21, #0x1, lsl #16
   83130:	b0000077 	adrp	x23, 90000 <__sflush_r+0x40>
   83134:	911022f7 	add	x23, x23, #0x408
   83138:	94000a8e 	bl	85b70 <WhereXY>
   8313c:	14000011 	b	83180 <kernel_main+0x130>
   83140:	294807e0 	ldp	w0, w1, [sp, #64]
   83144:	94000a97 	bl	85ba0 <GotoXY>
   83148:	39412fe4 	ldrb	w4, [sp, #75]
   8314c:	aa1703e0 	mov	x0, x23
   83150:	39412be3 	ldrb	w3, [sp, #74]
   83154:	394127e2 	ldrb	w2, [sp, #73]
   83158:	394123e1 	ldrb	w1, [sp, #72]
   8315c:	97fffa7d 	bl	81b50 <printf>
   83160:	39413fe4 	ldrb	w4, [sp, #79]
   83164:	aa1603e0 	mov	x0, x22
   83168:	39413be3 	ldrb	w3, [sp, #78]
   8316c:	394137e2 	ldrb	w2, [sp, #77]
   83170:	394133e1 	ldrb	w1, [sp, #76]
   83174:	97fffa77 	bl	81b50 <printf>
   83178:	aa1503e0 	mov	x0, x21
   8317c:	94000601 	bl	84980 <timer_wait>
   83180:	52800001 	mov	w1, #0x0                   	// #0
   83184:	910123e3 	add	x3, sp, #0x48
   83188:	2a1303e0 	mov	w0, w19
   8318c:	52800104 	mov	w4, #0x8                   	// #8
   83190:	52802002 	mov	w2, #0x100                 	// #256
   83194:	9400225b 	bl	8bb00 <HIDReadReport>
   83198:	2a0003e1 	mov	w1, w0
   8319c:	aa1403e0 	mov	x0, x20
   831a0:	34fffd01 	cbz	w1, 83140 <kernel_main+0xf0>
   831a4:	97fffa6b 	bl	81b50 <printf>
   831a8:	17fffff4 	b	83178 <kernel_main+0x128>
   831ac:	d290d413 	mov	x19, #0x86a0                	// #34464
   831b0:	f2a00033 	movk	x19, #0x1, lsl #16
   831b4:	910113e1 	add	x1, sp, #0x44
   831b8:	910103e0 	add	x0, sp, #0x40
   831bc:	94000a6d 	bl	85b70 <WhereXY>
   831c0:	aa1303e0 	mov	x0, x19
   831c4:	940005ef 	bl	84980 <timer_wait>
   831c8:	17fffffe 	b	831c0 <kernel_main+0x170>
   831cc:	00000000 	udf	#0

00000000000831d0 <ClearArea16>:
   831d0:	b940140a 	ldr	w10, [x0, #20]
   831d4:	6b04005f 	cmp	w2, w4
   831d8:	2940200c 	ldp	w12, w8, [x0]
   831dc:	4b020089 	sub	w9, w4, w2
   831e0:	3940c806 	ldrb	w6, [x0, #50]
   831e4:	531f782b 	lsl	w11, w1, #1
   831e8:	1b027d42 	mul	w2, w10, w2
   831ec:	3940c405 	ldrb	w5, [x0, #49]
   831f0:	3940c007 	ldrb	w7, [x0, #48]
   831f4:	aa088188 	orr	x8, x12, x8, lsl #32
   831f8:	8b0b0108 	add	x8, x8, x11
   831fc:	53037cc6 	lsr	w6, w6, #3
   83200:	531f7842 	lsl	w2, w2, #1
   83204:	53027ca5 	lsr	w5, w5, #2
   83208:	53037ce7 	lsr	w7, w7, #3
   8320c:	8b020108 	add	x8, x8, x2
   83210:	54000720 	b.eq	832f4 <ClearArea16+0x124>  // b.none
   83214:	d37f7d4a 	ubfiz	x10, x10, #1, #32
   83218:	6b03003f 	cmp	w1, w3
   8321c:	4b010064 	sub	w4, w3, w1
   83220:	540006a0 	b.eq	832f4 <ClearArea16+0x124>  // b.none
   83224:	aa0803eb 	mov	x11, x8
   83228:	52800003 	mov	w3, #0x0                   	// #0
   8322c:	d503201f 	nop
   83230:	aa0b03e1 	mov	x1, x11
   83234:	52800000 	mov	w0, #0x0                   	// #0
   83238:	39400022 	ldrb	w2, [x1]
   8323c:	11000400 	add	w0, w0, #0x1
   83240:	6b00009f 	cmp	w4, w0
   83244:	330010e2 	bfxil	w2, w7, #0, #5
   83248:	38002422 	strb	w2, [x1], #2
   8324c:	54ffff68 	b.hi	83238 <ClearArea16+0x68>  // b.pmore
   83250:	11000463 	add	w3, w3, #0x1
   83254:	8b0a016b 	add	x11, x11, x10
   83258:	6b09007f 	cmp	w3, w9
   8325c:	54fffea3 	b.cc	83230 <ClearArea16+0x60>  // b.lo, b.ul, b.last
   83260:	531b08a7 	ubfiz	w7, w5, #5, #3
   83264:	aa0803ec 	mov	x12, x8
   83268:	53037ca5 	lsr	w5, w5, #3
   8326c:	5280000b 	mov	w11, #0x0                   	// #0
   83270:	aa0c03e0 	mov	x0, x12
   83274:	52800003 	mov	w3, #0x0                   	// #0
   83278:	39400002 	ldrb	w2, [x0]
   8327c:	11000463 	add	w3, w3, #0x1
   83280:	39400401 	ldrb	w1, [x0, #1]
   83284:	6b03009f 	cmp	w4, w3
   83288:	12001042 	and	w2, w2, #0x1f
   8328c:	91000800 	add	x0, x0, #0x2
   83290:	121d7021 	and	w1, w1, #0xfffffff8
   83294:	2a070042 	orr	w2, w2, w7
   83298:	2a050021 	orr	w1, w1, w5
   8329c:	381fe002 	sturb	w2, [x0, #-2]
   832a0:	381ff001 	sturb	w1, [x0, #-1]
   832a4:	54fffea8 	b.hi	83278 <ClearArea16+0xa8>  // b.pmore
   832a8:	1100056b 	add	w11, w11, #0x1
   832ac:	8b0a018c 	add	x12, x12, x10
   832b0:	6b0b013f 	cmp	w9, w11
   832b4:	54fffde8 	b.hi	83270 <ClearArea16+0xa0>  // b.pmore
   832b8:	52800003 	mov	w3, #0x0                   	// #0
   832bc:	d503201f 	nop
   832c0:	aa0803e0 	mov	x0, x8
   832c4:	52800001 	mov	w1, #0x0                   	// #0
   832c8:	39400402 	ldrb	w2, [x0, #1]
   832cc:	11000421 	add	w1, w1, #0x1
   832d0:	6b01009f 	cmp	w4, w1
   832d4:	91000800 	add	x0, x0, #0x2
   832d8:	331d10c2 	bfi	w2, w6, #3, #5
   832dc:	381ff002 	sturb	w2, [x0, #-1]
   832e0:	54ffff48 	b.hi	832c8 <ClearArea16+0xf8>  // b.pmore
   832e4:	11000463 	add	w3, w3, #0x1
   832e8:	8b0a0108 	add	x8, x8, x10
   832ec:	6b09007f 	cmp	w3, w9
   832f0:	54fffe83 	b.cc	832c0 <ClearArea16+0xf0>  // b.lo, b.ul, b.last
   832f4:	d65f03c0 	ret
   832f8:	d503201f 	nop
   832fc:	d503201f 	nop

0000000000083300 <VertLine16>:
   83300:	29428c06 	ldp	w6, w3, [x0, #20]
   83304:	b9401c0c 	ldr	w12, [x0, #28]
   83308:	29401407 	ldp	w7, w5, [x0]
   8330c:	0b030063 	add	w3, w3, w3
   83310:	3940a80b 	ldrb	w11, [x0, #42]
   83314:	1b067d84 	mul	w4, w12, w6
   83318:	3940a40a 	ldrb	w10, [x0, #41]
   8331c:	3940a009 	ldrb	w9, [x0, #40]
   83320:	aa0580e5 	orr	x5, x7, x5, lsl #32
   83324:	8b23c0a3 	add	x3, x5, w3, sxtw
   83328:	53037d6b 	lsr	w11, w11, #3
   8332c:	531f7884 	lsl	w4, w4, #1
   83330:	53027d4a 	lsr	w10, w10, #2
   83334:	53037d29 	lsr	w9, w9, #3
   83338:	8b040063 	add	x3, x3, x4
   8333c:	34000501 	cbz	w1, 833dc <VertLine16+0xdc>
   83340:	7100045f 	cmp	w2, #0x1
   83344:	d37f7cc8 	ubfiz	x8, x6, #1, #32
   83348:	54000500 	b.eq	833e8 <VertLine16+0xe8>  // b.none
   8334c:	cb0803e8 	neg	x8, x8
   83350:	aa0303e4 	mov	x4, x3
   83354:	52800005 	mov	w5, #0x0                   	// #0
   83358:	39400086 	ldrb	w6, [x4]
   8335c:	2a0503e7 	mov	w7, w5
   83360:	110004a5 	add	w5, w5, #0x1
   83364:	6b05003f 	cmp	w1, w5
   83368:	33001126 	bfxil	w6, w9, #0, #5
   8336c:	39000086 	strb	w6, [x4]
   83370:	8b080084 	add	x4, x4, x8
   83374:	54ffff21 	b.ne	83358 <VertLine16+0x58>  // b.any
   83378:	531b094e 	ubfiz	w14, w10, #5, #3
   8337c:	aa0303e4 	mov	x4, x3
   83380:	53037d4a 	lsr	w10, w10, #3
   83384:	52800009 	mov	w9, #0x0                   	// #0
   83388:	39400086 	ldrb	w6, [x4]
   8338c:	6b0900ff 	cmp	w7, w9
   83390:	39400485 	ldrb	w5, [x4, #1]
   83394:	11000529 	add	w9, w9, #0x1
   83398:	120010c6 	and	w6, w6, #0x1f
   8339c:	121d70a5 	and	w5, w5, #0xfffffff8
   833a0:	2a0e00c6 	orr	w6, w6, w14
   833a4:	2a0a00a5 	orr	w5, w5, w10
   833a8:	39000086 	strb	w6, [x4]
   833ac:	39000485 	strb	w5, [x4, #1]
   833b0:	8b080084 	add	x4, x4, x8
   833b4:	54fffea1 	b.ne	83388 <VertLine16+0x88>  // b.any
   833b8:	52800004 	mov	w4, #0x0                   	// #0
   833bc:	d503201f 	nop
   833c0:	39400465 	ldrb	w5, [x3, #1]
   833c4:	6b07009f 	cmp	w4, w7
   833c8:	11000484 	add	w4, w4, #0x1
   833cc:	331d1165 	bfi	w5, w11, #3, #5
   833d0:	39000465 	strb	w5, [x3, #1]
   833d4:	8b080063 	add	x3, x3, x8
   833d8:	54ffff41 	b.ne	833c0 <VertLine16+0xc0>  // b.any
   833dc:	1b01304c 	madd	w12, w2, w1, w12
   833e0:	b9001c0c 	str	w12, [x0, #28]
   833e4:	d65f03c0 	ret
   833e8:	710004df 	cmp	w6, #0x1
   833ec:	aa0303e5 	mov	x5, x3
   833f0:	52800004 	mov	w4, #0x0                   	// #0
   833f4:	540004a1 	b.ne	83488 <VertLine16+0x188>  // b.any
   833f8:	394000a6 	ldrb	w6, [x5]
   833fc:	2a0403e7 	mov	w7, w4
   83400:	11000484 	add	w4, w4, #0x1
   83404:	6b04003f 	cmp	w1, w4
   83408:	33001126 	bfxil	w6, w9, #0, #5
   8340c:	380024a6 	strb	w6, [x5], #2
   83410:	54ffff41 	b.ne	833f8 <VertLine16+0xf8>  // b.any
   83414:	531b094d 	ubfiz	w13, w10, #5, #3
   83418:	aa0303e4 	mov	x4, x3
   8341c:	53037d4a 	lsr	w10, w10, #3
   83420:	52800008 	mov	w8, #0x0                   	// #0
   83424:	d503201f 	nop
   83428:	39400086 	ldrb	w6, [x4]
   8342c:	6b0800ff 	cmp	w7, w8
   83430:	39400485 	ldrb	w5, [x4, #1]
   83434:	11000508 	add	w8, w8, #0x1
   83438:	120010c6 	and	w6, w6, #0x1f
   8343c:	91000884 	add	x4, x4, #0x2
   83440:	121d70a5 	and	w5, w5, #0xfffffff8
   83444:	2a0d00c6 	orr	w6, w6, w13
   83448:	2a0a00a5 	orr	w5, w5, w10
   8344c:	381fe086 	sturb	w6, [x4, #-2]
   83450:	381ff085 	sturb	w5, [x4, #-1]
   83454:	54fffea1 	b.ne	83428 <VertLine16+0x128>  // b.any
   83458:	52800004 	mov	w4, #0x0                   	// #0
   8345c:	d503201f 	nop
   83460:	39400465 	ldrb	w5, [x3, #1]
   83464:	6b07009f 	cmp	w4, w7
   83468:	91000863 	add	x3, x3, #0x2
   8346c:	11000484 	add	w4, w4, #0x1
   83470:	331d1165 	bfi	w5, w11, #3, #5
   83474:	381ff065 	sturb	w5, [x3, #-1]
   83478:	54ffff41 	b.ne	83460 <VertLine16+0x160>  // b.any
   8347c:	1b01304c 	madd	w12, w2, w1, w12
   83480:	b9001c0c 	str	w12, [x0, #28]
   83484:	d65f03c0 	ret
   83488:	aa0303e4 	mov	x4, x3
   8348c:	52800005 	mov	w5, #0x0                   	// #0
   83490:	39400086 	ldrb	w6, [x4]
   83494:	2a0503e7 	mov	w7, w5
   83498:	110004a5 	add	w5, w5, #0x1
   8349c:	6b05003f 	cmp	w1, w5
   834a0:	33001126 	bfxil	w6, w9, #0, #5
   834a4:	39000086 	strb	w6, [x4]
   834a8:	8b080084 	add	x4, x4, x8
   834ac:	54ffff21 	b.ne	83490 <VertLine16+0x190>  // b.any
   834b0:	531b094e 	ubfiz	w14, w10, #5, #3
   834b4:	aa0303e4 	mov	x4, x3
   834b8:	53037d4a 	lsr	w10, w10, #3
   834bc:	52800009 	mov	w9, #0x0                   	// #0
   834c0:	39400086 	ldrb	w6, [x4]
   834c4:	6b0900ff 	cmp	w7, w9
   834c8:	39400485 	ldrb	w5, [x4, #1]
   834cc:	11000529 	add	w9, w9, #0x1
   834d0:	120010c6 	and	w6, w6, #0x1f
   834d4:	121d70a5 	and	w5, w5, #0xfffffff8
   834d8:	2a0e00c6 	orr	w6, w6, w14
   834dc:	2a0a00a5 	orr	w5, w5, w10
   834e0:	39000086 	strb	w6, [x4]
   834e4:	39000485 	strb	w5, [x4, #1]
   834e8:	8b080084 	add	x4, x4, x8
   834ec:	54fffea1 	b.ne	834c0 <VertLine16+0x1c0>  // b.any
   834f0:	52800004 	mov	w4, #0x0                   	// #0
   834f4:	d503201f 	nop
   834f8:	39400465 	ldrb	w5, [x3, #1]
   834fc:	6b07009f 	cmp	w4, w7
   83500:	11000484 	add	w4, w4, #0x1
   83504:	331d1165 	bfi	w5, w11, #3, #5
   83508:	39000465 	strb	w5, [x3, #1]
   8350c:	8b080063 	add	x3, x3, x8
   83510:	54ffff41 	b.ne	834f8 <VertLine16+0x1f8>  // b.any
   83514:	17ffffb2 	b	833dc <VertLine16+0xdc>
   83518:	d503201f 	nop
   8351c:	d503201f 	nop

0000000000083520 <HorzLine16>:
   83520:	2942b007 	ldp	w7, w12, [x0, #20]
   83524:	b9401c03 	ldr	w3, [x0, #28]
   83528:	29401406 	ldp	w6, w5, [x0]
   8352c:	0b0c0184 	add	w4, w12, w12
   83530:	3940a80b 	ldrb	w11, [x0, #42]
   83534:	1b077c63 	mul	w3, w3, w7
   83538:	3940a409 	ldrb	w9, [x0, #41]
   8353c:	3940a008 	ldrb	w8, [x0, #40]
   83540:	aa0580c5 	orr	x5, x6, x5, lsl #32
   83544:	8b24c0a4 	add	x4, x5, w4, sxtw
   83548:	53037d6b 	lsr	w11, w11, #3
   8354c:	531f7863 	lsl	w3, w3, #1
   83550:	53027d29 	lsr	w9, w9, #2
   83554:	53037d08 	lsr	w8, w8, #3
   83558:	8b040063 	add	x3, x3, x4
   8355c:	340004c1 	cbz	w1, 835f4 <HorzLine16+0xd4>
   83560:	7100045f 	cmp	w2, #0x1
   83564:	aa0303e5 	mov	x5, x3
   83568:	52800004 	mov	w4, #0x0                   	// #0
   8356c:	540004a1 	b.ne	83600 <HorzLine16+0xe0>  // b.any
   83570:	394000a6 	ldrb	w6, [x5]
   83574:	2a0403e7 	mov	w7, w4
   83578:	11000484 	add	w4, w4, #0x1
   8357c:	6b04003f 	cmp	w1, w4
   83580:	33001106 	bfxil	w6, w8, #0, #5
   83584:	380024a6 	strb	w6, [x5], #2
   83588:	54ffff41 	b.ne	83570 <HorzLine16+0x50>  // b.any
   8358c:	531b092d 	ubfiz	w13, w9, #5, #3
   83590:	aa0303e4 	mov	x4, x3
   83594:	53037d29 	lsr	w9, w9, #3
   83598:	52800008 	mov	w8, #0x0                   	// #0
   8359c:	d503201f 	nop
   835a0:	39400086 	ldrb	w6, [x4]
   835a4:	6b0800ff 	cmp	w7, w8
   835a8:	39400485 	ldrb	w5, [x4, #1]
   835ac:	11000508 	add	w8, w8, #0x1
   835b0:	120010c6 	and	w6, w6, #0x1f
   835b4:	91000884 	add	x4, x4, #0x2
   835b8:	121d70a5 	and	w5, w5, #0xfffffff8
   835bc:	2a0d00c6 	orr	w6, w6, w13
   835c0:	2a0900a5 	orr	w5, w5, w9
   835c4:	381fe086 	sturb	w6, [x4, #-2]
   835c8:	381ff085 	sturb	w5, [x4, #-1]
   835cc:	54fffea1 	b.ne	835a0 <HorzLine16+0x80>  // b.any
   835d0:	52800004 	mov	w4, #0x0                   	// #0
   835d4:	d503201f 	nop
   835d8:	39400465 	ldrb	w5, [x3, #1]
   835dc:	6b07009f 	cmp	w4, w7
   835e0:	91000863 	add	x3, x3, #0x2
   835e4:	11000484 	add	w4, w4, #0x1
   835e8:	331d1165 	bfi	w5, w11, #3, #5
   835ec:	381ff065 	sturb	w5, [x3, #-1]
   835f0:	54ffff41 	b.ne	835d8 <HorzLine16+0xb8>  // b.any
   835f4:	1b013042 	madd	w2, w2, w1, w12
   835f8:	b9001802 	str	w2, [x0, #24]
   835fc:	d65f03c0 	ret
   83600:	937f7c4a 	sbfiz	x10, x2, #1, #32
   83604:	aa0303e4 	mov	x4, x3
   83608:	52800005 	mov	w5, #0x0                   	// #0
   8360c:	d503201f 	nop
   83610:	39400086 	ldrb	w6, [x4]
   83614:	2a0503e7 	mov	w7, w5
   83618:	110004a5 	add	w5, w5, #0x1
   8361c:	6b05003f 	cmp	w1, w5
   83620:	33001106 	bfxil	w6, w8, #0, #5
   83624:	39000086 	strb	w6, [x4]
   83628:	8b0a0084 	add	x4, x4, x10
   8362c:	54ffff21 	b.ne	83610 <HorzLine16+0xf0>  // b.any
   83630:	531b092e 	ubfiz	w14, w9, #5, #3
   83634:	aa0303e4 	mov	x4, x3
   83638:	53037d29 	lsr	w9, w9, #3
   8363c:	52800008 	mov	w8, #0x0                   	// #0
   83640:	39400086 	ldrb	w6, [x4]
   83644:	6b0800ff 	cmp	w7, w8
   83648:	39400485 	ldrb	w5, [x4, #1]
   8364c:	11000508 	add	w8, w8, #0x1
   83650:	120010c6 	and	w6, w6, #0x1f
   83654:	121d70a5 	and	w5, w5, #0xfffffff8
   83658:	2a0e00c6 	orr	w6, w6, w14
   8365c:	2a0900a5 	orr	w5, w5, w9
   83660:	39000086 	strb	w6, [x4]
   83664:	39000485 	strb	w5, [x4, #1]
   83668:	8b0a0084 	add	x4, x4, x10
   8366c:	54fffea1 	b.ne	83640 <HorzLine16+0x120>  // b.any
   83670:	52800004 	mov	w4, #0x0                   	// #0
   83674:	d503201f 	nop
   83678:	39400465 	ldrb	w5, [x3, #1]
   8367c:	6b07009f 	cmp	w4, w7
   83680:	11000484 	add	w4, w4, #0x1
   83684:	331d1165 	bfi	w5, w11, #3, #5
   83688:	39000465 	strb	w5, [x3, #1]
   8368c:	8b0a0063 	add	x3, x3, x10
   83690:	54ffff41 	b.ne	83678 <HorzLine16+0x158>  // b.any
   83694:	1b013042 	madd	w2, w2, w1, w12
   83698:	b9001802 	str	w2, [x0, #24]
   8369c:	d65f03c0 	ret

00000000000836a0 <DiagLine16>:
   836a0:	2942b80a 	ldp	w10, w14, [x0, #20]
   836a4:	6b02003f 	cmp	w1, w2
   836a8:	b9401c0d 	ldr	w13, [x0, #28]
   836ac:	1a829027 	csel	w7, w1, w2, ls	// ls = plast
   836b0:	2940180c 	ldp	w12, w6, [x0]
   836b4:	0b0e01c2 	add	w2, w14, w14
   836b8:	3940a809 	ldrb	w9, [x0, #42]
   836bc:	1b0a7da5 	mul	w5, w13, w10
   836c0:	3940a408 	ldrb	w8, [x0, #41]
   836c4:	3940a00b 	ldrb	w11, [x0, #40]
   836c8:	aa068186 	orr	x6, x12, x6, lsl #32
   836cc:	8b22c0c2 	add	x2, x6, w2, sxtw
   836d0:	53037d29 	lsr	w9, w9, #3
   836d4:	531f78a5 	lsl	w5, w5, #1
   836d8:	53027d08 	lsr	w8, w8, #2
   836dc:	53037d6b 	lsr	w11, w11, #3
   836e0:	8b050042 	add	x2, x2, x5
   836e4:	34000281 	cbz	w1, 83734 <DiagLine16+0x94>
   836e8:	1b047d4a 	mul	w10, w10, w4
   836ec:	53037d05 	lsr	w5, w8, #3
   836f0:	2a081568 	orr	w8, w11, w8, lsl #5
   836f4:	937f7c6b 	sbfiz	x11, x3, #1, #32
   836f8:	8b0a014a 	add	x10, x10, x10
   836fc:	2a090ca9 	orr	w9, w5, w9, lsl #3
   83700:	52800006 	mov	w6, #0x0                   	// #0
   83704:	52800005 	mov	w5, #0x0                   	// #0
   83708:	39000048 	strb	w8, [x2]
   8370c:	0b0700a5 	add	w5, w5, w7
   83710:	39000449 	strb	w9, [x2, #1]
   83714:	110004c6 	add	w6, w6, #0x1
   83718:	6b05003f 	cmp	w1, w5
   8371c:	8b0b0042 	add	x2, x2, x11
   83720:	54000068 	b.hi	8372c <DiagLine16+0x8c>  // b.pmore
   83724:	4b0100a5 	sub	w5, w5, w1
   83728:	8b0a0042 	add	x2, x2, x10
   8372c:	6b06003f 	cmp	w1, w6
   83730:	54fffec1 	b.ne	83708 <DiagLine16+0x68>  // b.any
   83734:	1b013863 	madd	w3, w3, w1, w14
   83738:	1b0434e4 	madd	w4, w7, w4, w13
   8373c:	29031003 	stp	w3, w4, [x0, #24]
   83740:	d65f03c0 	ret
   83744:	d503201f 	nop
   83748:	d503201f 	nop
   8374c:	d503201f 	nop

0000000000083750 <WriteChar16>:
   83750:	a9be7bfd 	stp	x29, x30, [sp, #-32]!
   83754:	d000007e 	adrp	x30, 91000 <__text_end__+0xc00>
   83758:	911103de 	add	x30, x30, #0x440
   8375c:	910003fd 	mov	x29, sp
   83760:	b9401402 	ldr	w2, [x0, #20]
   83764:	52800012 	mov	w18, #0x0                   	// #0
   83768:	b9401c03 	ldr	w3, [x0, #28]
   8376c:	29401406 	ldp	w6, w5, [x0]
   83770:	f9000bf3 	str	x19, [sp, #16]
   83774:	531e1c33 	ubfiz	w19, w1, #2, #8
   83778:	b9401801 	ldr	w1, [x0, #24]
   8377c:	1b037c43 	mul	w3, w2, w3
   83780:	3940a80d 	ldrb	w13, [x0, #42]
   83784:	3940a40c 	ldrb	w12, [x0, #41]
   83788:	0b010024 	add	w4, w1, w1
   8378c:	3940a00b 	ldrb	w11, [x0, #40]
   83790:	d37f7c4e 	ubfiz	x14, x2, #1, #32
   83794:	3940b811 	ldrb	w17, [x0, #46]
   83798:	aa0580c2 	orr	x2, x6, x5, lsl #32
   8379c:	3940b410 	ldrb	w16, [x0, #45]
   837a0:	531f7863 	lsl	w3, w3, #1
   837a4:	3940b00f 	ldrb	w15, [x0, #44]
   837a8:	8b24c042 	add	x2, x2, w4, sxtw
   837ac:	53037dad 	lsr	w13, w13, #3
   837b0:	53027d8c 	lsr	w12, w12, #2
   837b4:	53037d6b 	lsr	w11, w11, #3
   837b8:	53037e31 	lsr	w17, w17, #3
   837bc:	53027e10 	lsr	w16, w16, #2
   837c0:	53037def 	lsr	w15, w15, #3
   837c4:	8b020063 	add	x3, x3, x2
   837c8:	0b120262 	add	w2, w19, w18
   837cc:	52800007 	mov	w7, #0x0                   	// #0
   837d0:	b8627bc6 	ldr	w6, [x30, x2, lsl #2]
   837d4:	d503201f 	nop
   837d8:	2a0c03e2 	mov	w2, w12
   837dc:	2a0d03e4 	mov	w4, w13
   837e0:	2a0b03e5 	mov	w5, w11
   837e4:	120008e9 	and	w9, w7, #0x7
   837e8:	37f80086 	tbnz	w6, #31, 837f8 <WriteChar16+0xa8>
   837ec:	2a1103e4 	mov	w4, w17
   837f0:	2a1003e2 	mov	w2, w16
   837f4:	2a0f03e5 	mov	w5, w15
   837f8:	d37f0928 	ubfiz	x8, x9, #1, #3
   837fc:	2a0214a5 	orr	w5, w5, w2, lsl #5
   83800:	8b08006a 	add	x10, x3, x8
   83804:	53037c42 	lsr	w2, w2, #3
   83808:	2a040c44 	orr	w4, w2, w4, lsl #3
   8380c:	71001d3f 	cmp	w9, #0x7
   83810:	38286865 	strb	w5, [x3, x8]
   83814:	110004e7 	add	w7, w7, #0x1
   83818:	39000544 	strb	w4, [x10, #1]
   8381c:	8b0e0062 	add	x2, x3, x14
   83820:	9a830043 	csel	x3, x2, x3, eq	// eq = none
   83824:	0b0600c6 	add	w6, w6, w6
   83828:	710080ff 	cmp	w7, #0x20
   8382c:	54fffd61 	b.ne	837d8 <WriteChar16+0x88>  // b.any
   83830:	11000652 	add	w18, w18, #0x1
   83834:	7100125f 	cmp	w18, #0x4
   83838:	54fffc81 	b.ne	837c8 <WriteChar16+0x78>  // b.any
   8383c:	f9400bf3 	ldr	x19, [sp, #16]
   83840:	11002021 	add	w1, w1, #0x8
   83844:	a8c27bfd 	ldp	x29, x30, [sp], #32
   83848:	b9001801 	str	w1, [x0, #24]
   8384c:	d65f03c0 	ret

0000000000083850 <TransparentWriteChar16>:
   83850:	2942b802 	ldp	w2, w14, [x0, #20]
   83854:	d000006d 	adrp	x13, 91000 <__text_end__+0xc00>
   83858:	911101ad 	add	x13, x13, #0x440
   8385c:	b9401c04 	ldr	w4, [x0, #28]
   83860:	3940a403 	ldrb	w3, [x0, #41]
   83864:	0b0e01c5 	add	w5, w14, w14
   83868:	29401807 	ldp	w7, w6, [x0]
   8386c:	d37f7c48 	ubfiz	x8, x2, #1, #32
   83870:	3940a80a 	ldrb	w10, [x0, #42]
   83874:	1b047c44 	mul	w4, w2, w4
   83878:	3940a00b 	ldrb	w11, [x0, #40]
   8387c:	53027c62 	lsr	w2, w3, #2
   83880:	aa0680e3 	orr	x3, x7, x6, lsl #32
   83884:	531e1c21 	ubfiz	w1, w1, #2, #8
   83888:	53037d4a 	lsr	w10, w10, #3
   8388c:	8b25c063 	add	x3, x3, w5, sxtw
   83890:	531f7884 	lsl	w4, w4, #1
   83894:	531b0845 	ubfiz	w5, w2, #5, #3
   83898:	53037c42 	lsr	w2, w2, #3
   8389c:	8b030084 	add	x4, x4, x3
   838a0:	2a4b0cab 	orr	w11, w5, w11, lsr #3
   838a4:	2a0a0c4a 	orr	w10, w2, w10, lsl #3
   838a8:	5280000c 	mov	w12, #0x0                   	// #0
   838ac:	0b0c0022 	add	w2, w1, w12
   838b0:	52800003 	mov	w3, #0x0                   	// #0
   838b4:	b86279a2 	ldr	w2, [x13, x2, lsl #2]
   838b8:	12000865 	and	w5, w3, #0x7
   838bc:	8b080086 	add	x6, x4, x8
   838c0:	11000463 	add	w3, w3, #0x1
   838c4:	36f800a2 	tbz	w2, #31, 838d8 <TransparentWriteChar16+0x88>
   838c8:	d37f08a7 	ubfiz	x7, x5, #1, #3
   838cc:	8b070089 	add	x9, x4, x7
   838d0:	3827688b 	strb	w11, [x4, x7]
   838d4:	3900052a 	strb	w10, [x9, #1]
   838d8:	71001cbf 	cmp	w5, #0x7
   838dc:	0b020042 	add	w2, w2, w2
   838e0:	9a8400c4 	csel	x4, x6, x4, eq	// eq = none
   838e4:	7100807f 	cmp	w3, #0x20
   838e8:	54fffe81 	b.ne	838b8 <TransparentWriteChar16+0x68>  // b.any
   838ec:	1100058c 	add	w12, w12, #0x1
   838f0:	7100119f 	cmp	w12, #0x4
   838f4:	54fffdc1 	b.ne	838ac <TransparentWriteChar16+0x5c>  // b.any
   838f8:	110021ce 	add	w14, w14, #0x8
   838fc:	b900180e 	str	w14, [x0, #24]
   83900:	d65f03c0 	ret
   83904:	d503201f 	nop
   83908:	d503201f 	nop
   8390c:	d503201f 	nop

0000000000083910 <PutImage16>:
   83910:	29429409 	ldp	w9, w5, [x0, #20]
   83914:	12001c84 	and	w4, w4, #0xff
   83918:	b9401c06 	ldr	w6, [x0, #28]
   8391c:	29401c08 	ldp	w8, w7, [x0]
   83920:	0b0500a5 	add	w5, w5, w5
   83924:	1b067d20 	mul	w0, w9, w6
   83928:	aa078106 	orr	x6, x8, x7, lsl #32
   8392c:	8b25c0c5 	add	x5, x6, w5, sxtw
   83930:	531f7800 	lsl	w0, w0, #1
   83934:	8b0000a5 	add	x5, x5, x0
   83938:	34000362 	cbz	w2, 839a4 <PutImage16+0x94>
   8393c:	d37f7d29 	ubfiz	x9, x9, #1, #32
   83940:	cb0903eb 	neg	x11, x9
   83944:	34000301 	cbz	w1, 839a4 <PutImage16+0x94>
   83948:	d37f7c27 	ubfiz	x7, x1, #1, #32
   8394c:	1200008a 	and	w10, w4, #0x1
   83950:	aa0303e1 	mov	x1, x3
   83954:	52800008 	mov	w8, #0x0                   	// #0
   83958:	d2800000 	mov	x0, #0x0                   	// #0
   8395c:	d503201f 	nop
   83960:	38606826 	ldrb	w6, [x1, x0]
   83964:	8b000024 	add	x4, x1, x0
   83968:	8b0000a3 	add	x3, x5, x0
   8396c:	382068a6 	strb	w6, [x5, x0]
   83970:	91000800 	add	x0, x0, #0x2
   83974:	39400484 	ldrb	w4, [x4, #1]
   83978:	eb07001f 	cmp	x0, x7
   8397c:	39000464 	strb	w4, [x3, #1]
   83980:	54ffff01 	b.ne	83960 <PutImage16+0x50>  // b.any
   83984:	7100015f 	cmp	w10, #0x0
   83988:	8b0b00a0 	add	x0, x5, x11
   8398c:	11000508 	add	w8, w8, #0x1
   83990:	8b0900a5 	add	x5, x5, x9
   83994:	9a8000a5 	csel	x5, x5, x0, eq	// eq = none
   83998:	8b070021 	add	x1, x1, x7
   8399c:	6b08005f 	cmp	w2, w8
   839a0:	54fffdc1 	b.ne	83958 <PutImage16+0x48>  // b.any
   839a4:	d65f03c0 	ret
   839a8:	d503201f 	nop
   839ac:	d503201f 	nop

00000000000839b0 <ClearArea24>:
   839b0:	b9401408 	ldr	w8, [x0, #20]
   839b4:	6b04005f 	cmp	w2, w4
   839b8:	29401409 	ldp	w9, w5, [x0]
   839bc:	4b020087 	sub	w7, w4, w2
   839c0:	0b010426 	add	w6, w1, w1, lsl #1
   839c4:	1b027d02 	mul	w2, w8, w2
   839c8:	aa058125 	orr	x5, x9, x5, lsl #32
   839cc:	8b0600a5 	add	x5, x5, x6
   839d0:	0b020442 	add	w2, w2, w2, lsl #1
   839d4:	8b0200a5 	add	x5, x5, x2
   839d8:	54000300 	b.eq	83a38 <ClearArea24+0x88>  // b.none
   839dc:	52800066 	mov	w6, #0x3                   	// #3
   839e0:	9100c002 	add	x2, x0, #0x30
   839e4:	6b03003f 	cmp	w1, w3
   839e8:	4b010064 	sub	w4, w3, w1
   839ec:	9ba67d08 	umull	x8, w8, w6
   839f0:	52800006 	mov	w6, #0x0                   	// #0
   839f4:	54000220 	b.eq	83a38 <ClearArea24+0x88>  // b.none
   839f8:	aa0503e0 	mov	x0, x5
   839fc:	52800001 	mov	w1, #0x0                   	// #0
   83a00:	39400043 	ldrb	w3, [x2]
   83a04:	11000421 	add	w1, w1, #0x1
   83a08:	39000003 	strb	w3, [x0]
   83a0c:	6b01009f 	cmp	w4, w1
   83a10:	91000c00 	add	x0, x0, #0x3
   83a14:	39400443 	ldrb	w3, [x2, #1]
   83a18:	381fe003 	sturb	w3, [x0, #-2]
   83a1c:	39400843 	ldrb	w3, [x2, #2]
   83a20:	381ff003 	sturb	w3, [x0, #-1]
   83a24:	54fffee8 	b.hi	83a00 <ClearArea24+0x50>  // b.pmore
   83a28:	110004c6 	add	w6, w6, #0x1
   83a2c:	8b0800a5 	add	x5, x5, x8
   83a30:	6b0700df 	cmp	w6, w7
   83a34:	54fffe23 	b.cc	839f8 <ClearArea24+0x48>  // b.lo, b.ul, b.last
   83a38:	d65f03c0 	ret
   83a3c:	d503201f 	nop

0000000000083a40 <VertLine24>:
   83a40:	29428c06 	ldp	w6, w3, [x0, #20]
   83a44:	b9401c08 	ldr	w8, [x0, #28]
   83a48:	29401407 	ldp	w7, w5, [x0]
   83a4c:	0b030463 	add	w3, w3, w3, lsl #1
   83a50:	1b067d04 	mul	w4, w8, w6
   83a54:	aa0580e5 	orr	x5, x7, x5, lsl #32
   83a58:	8b23c0a3 	add	x3, x5, w3, sxtw
   83a5c:	0b040484 	add	w4, w4, w4, lsl #1
   83a60:	8b040063 	add	x3, x3, x4
   83a64:	34000261 	cbz	w1, 83ab0 <VertLine24+0x70>
   83a68:	52800067 	mov	w7, #0x3                   	// #3
   83a6c:	7100045f 	cmp	w2, #0x1
   83a70:	9ba77cc7 	umull	x7, w6, w7
   83a74:	54000240 	b.eq	83abc <VertLine24+0x7c>  // b.none
   83a78:	cb0703e7 	neg	x7, x7
   83a7c:	9100a004 	add	x4, x0, #0x28
   83a80:	52800005 	mov	w5, #0x0                   	// #0
   83a84:	d503201f 	nop
   83a88:	39400086 	ldrb	w6, [x4]
   83a8c:	110004a5 	add	w5, w5, #0x1
   83a90:	39000066 	strb	w6, [x3]
   83a94:	6b05003f 	cmp	w1, w5
   83a98:	39400486 	ldrb	w6, [x4, #1]
   83a9c:	39000466 	strb	w6, [x3, #1]
   83aa0:	39400886 	ldrb	w6, [x4, #2]
   83aa4:	39000866 	strb	w6, [x3, #2]
   83aa8:	8b070063 	add	x3, x3, x7
   83aac:	54fffee1 	b.ne	83a88 <VertLine24+0x48>  // b.any
   83ab0:	1b012042 	madd	w2, w2, w1, w8
   83ab4:	b9001c02 	str	w2, [x0, #28]
   83ab8:	d65f03c0 	ret
   83abc:	710004df 	cmp	w6, #0x1
   83ac0:	9100a004 	add	x4, x0, #0x28
   83ac4:	52800005 	mov	w5, #0x0                   	// #0
   83ac8:	540001e1 	b.ne	83b04 <VertLine24+0xc4>  // b.any
   83acc:	d503201f 	nop
   83ad0:	39400086 	ldrb	w6, [x4]
   83ad4:	110004a5 	add	w5, w5, #0x1
   83ad8:	39000066 	strb	w6, [x3]
   83adc:	6b05003f 	cmp	w1, w5
   83ae0:	91000c63 	add	x3, x3, #0x3
   83ae4:	39400486 	ldrb	w6, [x4, #1]
   83ae8:	381fe066 	sturb	w6, [x3, #-2]
   83aec:	39400886 	ldrb	w6, [x4, #2]
   83af0:	381ff066 	sturb	w6, [x3, #-1]
   83af4:	54fffee1 	b.ne	83ad0 <VertLine24+0x90>  // b.any
   83af8:	1b012042 	madd	w2, w2, w1, w8
   83afc:	b9001c02 	str	w2, [x0, #28]
   83b00:	d65f03c0 	ret
   83b04:	39400086 	ldrb	w6, [x4]
   83b08:	110004a5 	add	w5, w5, #0x1
   83b0c:	39000066 	strb	w6, [x3]
   83b10:	6b05003f 	cmp	w1, w5
   83b14:	39400486 	ldrb	w6, [x4, #1]
   83b18:	39000466 	strb	w6, [x3, #1]
   83b1c:	39400886 	ldrb	w6, [x4, #2]
   83b20:	39000866 	strb	w6, [x3, #2]
   83b24:	8b070063 	add	x3, x3, x7
   83b28:	54fffee1 	b.ne	83b04 <VertLine24+0xc4>  // b.any
   83b2c:	17ffffe1 	b	83ab0 <VertLine24+0x70>

0000000000083b30 <HorzLine24>:
   83b30:	29429c04 	ldp	w4, w7, [x0, #20]
   83b34:	b9401c03 	ldr	w3, [x0, #28]
   83b38:	29401406 	ldp	w6, w5, [x0]
   83b3c:	1b047c63 	mul	w3, w3, w4
   83b40:	0b0704e4 	add	w4, w7, w7, lsl #1
   83b44:	aa0580c5 	orr	x5, x6, x5, lsl #32
   83b48:	8b24c0a4 	add	x4, x5, w4, sxtw
   83b4c:	0b030463 	add	w3, w3, w3, lsl #1
   83b50:	8b040063 	add	x3, x3, x4
   83b54:	340001e1 	cbz	w1, 83b90 <HorzLine24+0x60>
   83b58:	7100045f 	cmp	w2, #0x1
   83b5c:	9100a004 	add	x4, x0, #0x28
   83b60:	52800005 	mov	w5, #0x0                   	// #0
   83b64:	540001c1 	b.ne	83b9c <HorzLine24+0x6c>  // b.any
   83b68:	39400086 	ldrb	w6, [x4]
   83b6c:	110004a5 	add	w5, w5, #0x1
   83b70:	39000066 	strb	w6, [x3]
   83b74:	6b05003f 	cmp	w1, w5
   83b78:	91000c63 	add	x3, x3, #0x3
   83b7c:	39400486 	ldrb	w6, [x4, #1]
   83b80:	381fe066 	sturb	w6, [x3, #-2]
   83b84:	39400886 	ldrb	w6, [x4, #2]
   83b88:	381ff066 	sturb	w6, [x3, #-1]
   83b8c:	54fffee1 	b.ne	83b68 <HorzLine24+0x38>  // b.any
   83b90:	1b011c42 	madd	w2, w2, w1, w7
   83b94:	b9001802 	str	w2, [x0, #24]
   83b98:	d65f03c0 	ret
   83b9c:	52800068 	mov	w8, #0x3                   	// #3
   83ba0:	9b287c48 	smull	x8, w2, w8
   83ba4:	d503201f 	nop
   83ba8:	39400086 	ldrb	w6, [x4]
   83bac:	110004a5 	add	w5, w5, #0x1
   83bb0:	39000066 	strb	w6, [x3]
   83bb4:	6b05003f 	cmp	w1, w5
   83bb8:	39400486 	ldrb	w6, [x4, #1]
   83bbc:	39000466 	strb	w6, [x3, #1]
   83bc0:	39400886 	ldrb	w6, [x4, #2]
   83bc4:	39000866 	strb	w6, [x3, #2]
   83bc8:	8b080063 	add	x3, x3, x8
   83bcc:	54fffee1 	b.ne	83ba8 <HorzLine24+0x78>  // b.any
   83bd0:	1b011c42 	madd	w2, w2, w1, w7
   83bd4:	b9001802 	str	w2, [x0, #24]
   83bd8:	d65f03c0 	ret
   83bdc:	d503201f 	nop

0000000000083be0 <DiagLine24>:
   83be0:	2942b00a 	ldp	w10, w12, [x0, #20]
   83be4:	6b02003f 	cmp	w1, w2
   83be8:	b9401c0d 	ldr	w13, [x0, #28]
   83bec:	1a829028 	csel	w8, w1, w2, ls	// ls = plast
   83bf0:	29401807 	ldp	w7, w6, [x0]
   83bf4:	0b0c0582 	add	w2, w12, w12, lsl #1
   83bf8:	1b0a7da5 	mul	w5, w13, w10
   83bfc:	aa0680e6 	orr	x6, x7, x6, lsl #32
   83c00:	8b22c0c2 	add	x2, x6, w2, sxtw
   83c04:	0b0504a5 	add	w5, w5, w5, lsl #1
   83c08:	8b050042 	add	x2, x2, x5
   83c0c:	34000301 	cbz	w1, 83c6c <DiagLine24+0x8c>
   83c10:	1b047d4a 	mul	w10, w10, w4
   83c14:	52800069 	mov	w9, #0x3                   	// #3
   83c18:	9100a007 	add	x7, x0, #0x28
   83c1c:	52800006 	mov	w6, #0x0                   	// #0
   83c20:	9b297c6b 	smull	x11, w3, w9
   83c24:	52800005 	mov	w5, #0x0                   	// #0
   83c28:	9ba97d4a 	umull	x10, w10, w9
   83c2c:	d503201f 	nop
   83c30:	394000e9 	ldrb	w9, [x7]
   83c34:	0b0800a5 	add	w5, w5, w8
   83c38:	39000049 	strb	w9, [x2]
   83c3c:	110004c6 	add	w6, w6, #0x1
   83c40:	6b05003f 	cmp	w1, w5
   83c44:	394004e9 	ldrb	w9, [x7, #1]
   83c48:	39000449 	strb	w9, [x2, #1]
   83c4c:	394008e9 	ldrb	w9, [x7, #2]
   83c50:	39000849 	strb	w9, [x2, #2]
   83c54:	8b0b0042 	add	x2, x2, x11
   83c58:	54000068 	b.hi	83c64 <DiagLine24+0x84>  // b.pmore
   83c5c:	4b0100a5 	sub	w5, w5, w1
   83c60:	8b0a0042 	add	x2, x2, x10
   83c64:	6b06003f 	cmp	w1, w6
   83c68:	54fffe41 	b.ne	83c30 <DiagLine24+0x50>  // b.any
   83c6c:	1b013063 	madd	w3, w3, w1, w12
   83c70:	1b043508 	madd	w8, w8, w4, w13
   83c74:	29032003 	stp	w3, w8, [x0, #24]
   83c78:	d65f03c0 	ret
   83c7c:	d503201f 	nop

0000000000083c80 <WriteChar24>:
   83c80:	2942bc02 	ldp	w2, w15, [x0, #20]
   83c84:	5280006b 	mov	w11, #0x3                   	// #3
   83c88:	b9401c03 	ldr	w3, [x0, #28]
   83c8c:	d000006e 	adrp	x14, 91000 <__text_end__+0xc00>
   83c90:	911101ce 	add	x14, x14, #0x440
   83c94:	531e1c21 	ubfiz	w1, w1, #2, #8
   83c98:	29401005 	ldp	w5, w4, [x0]
   83c9c:	9bab7c4c 	umull	x12, w2, w11
   83ca0:	1b037c42 	mul	w2, w2, w3
   83ca4:	0b0f05e3 	add	w3, w15, w15, lsl #1
   83ca8:	5280000d 	mov	w13, #0x0                   	// #0
   83cac:	aa0480a4 	orr	x4, x5, x4, lsl #32
   83cb0:	0b020442 	add	w2, w2, w2, lsl #1
   83cb4:	8b23c083 	add	x3, x4, w3, sxtw
   83cb8:	8b030042 	add	x2, x2, x3
   83cbc:	0b0d0023 	add	w3, w1, w13
   83cc0:	52800004 	mov	w4, #0x0                   	// #0
   83cc4:	b86379c3 	ldr	w3, [x14, x3, lsl #2]
   83cc8:	12000885 	and	w5, w4, #0x7
   83ccc:	3940b009 	ldrb	w9, [x0, #44]
   83cd0:	3940b408 	ldrb	w8, [x0, #45]
   83cd4:	8b0c004a 	add	x10, x2, x12
   83cd8:	3940b807 	ldrb	w7, [x0, #46]
   83cdc:	11000484 	add	w4, w4, #0x1
   83ce0:	36f80083 	tbz	w3, #31, 83cf0 <WriteChar24+0x70>
   83ce4:	3940a009 	ldrb	w9, [x0, #40]
   83ce8:	3940a408 	ldrb	w8, [x0, #41]
   83cec:	3940a807 	ldrb	w7, [x0, #42]
   83cf0:	9bab7ca6 	umull	x6, w5, w11
   83cf4:	71001cbf 	cmp	w5, #0x7
   83cf8:	0b030063 	add	w3, w3, w3
   83cfc:	8b060045 	add	x5, x2, x6
   83d00:	38266849 	strb	w9, [x2, x6]
   83d04:	9a820142 	csel	x2, x10, x2, eq	// eq = none
   83d08:	390004a8 	strb	w8, [x5, #1]
   83d0c:	7100809f 	cmp	w4, #0x20
   83d10:	390008a7 	strb	w7, [x5, #2]
   83d14:	54fffda1 	b.ne	83cc8 <WriteChar24+0x48>  // b.any
   83d18:	110005ad 	add	w13, w13, #0x1
   83d1c:	710011bf 	cmp	w13, #0x4
   83d20:	54fffce1 	b.ne	83cbc <WriteChar24+0x3c>  // b.any
   83d24:	110021ef 	add	w15, w15, #0x8
   83d28:	b900180f 	str	w15, [x0, #24]
   83d2c:	d65f03c0 	ret

0000000000083d30 <TransparentWriteChar24>:
   83d30:	2942bc02 	ldp	w2, w15, [x0, #20]
   83d34:	5280006c 	mov	w12, #0x3                   	// #3
   83d38:	b9401c03 	ldr	w3, [x0, #28]
   83d3c:	d000006e 	adrp	x14, 91000 <__text_end__+0xc00>
   83d40:	911101ce 	add	x14, x14, #0x440
   83d44:	531e1c21 	ubfiz	w1, w1, #2, #8
   83d48:	29401005 	ldp	w5, w4, [x0]
   83d4c:	9bac7c4a 	umull	x10, w2, w12
   83d50:	1b037c42 	mul	w2, w2, w3
   83d54:	0b0f05e3 	add	w3, w15, w15, lsl #1
   83d58:	5280000d 	mov	w13, #0x0                   	// #0
   83d5c:	aa0480a4 	orr	x4, x5, x4, lsl #32
   83d60:	0b020442 	add	w2, w2, w2, lsl #1
   83d64:	8b23c083 	add	x3, x4, w3, sxtw
   83d68:	8b030044 	add	x4, x2, x3
   83d6c:	0b0d0022 	add	w2, w1, w13
   83d70:	52800003 	mov	w3, #0x0                   	// #0
   83d74:	b86279c2 	ldr	w2, [x14, x2, lsl #2]
   83d78:	12000865 	and	w5, w3, #0x7
   83d7c:	8b0a0086 	add	x6, x4, x10
   83d80:	11000463 	add	w3, w3, #0x1
   83d84:	36f80122 	tbz	w2, #31, 83da8 <TransparentWriteChar24+0x78>
   83d88:	9bac7ca9 	umull	x9, w5, w12
   83d8c:	3940a00b 	ldrb	w11, [x0, #40]
   83d90:	8b090088 	add	x8, x4, x9
   83d94:	3829688b 	strb	w11, [x4, x9]
   83d98:	3940a409 	ldrb	w9, [x0, #41]
   83d9c:	39000509 	strb	w9, [x8, #1]
   83da0:	3940a807 	ldrb	w7, [x0, #42]
   83da4:	39000907 	strb	w7, [x8, #2]
   83da8:	71001cbf 	cmp	w5, #0x7
   83dac:	0b020042 	add	w2, w2, w2
   83db0:	9a8400c4 	csel	x4, x6, x4, eq	// eq = none
   83db4:	7100807f 	cmp	w3, #0x20
   83db8:	54fffe01 	b.ne	83d78 <TransparentWriteChar24+0x48>  // b.any
   83dbc:	110005ad 	add	w13, w13, #0x1
   83dc0:	710011bf 	cmp	w13, #0x4
   83dc4:	54fffd41 	b.ne	83d6c <TransparentWriteChar24+0x3c>  // b.any
   83dc8:	110021ef 	add	w15, w15, #0x8
   83dcc:	b900180f 	str	w15, [x0, #24]
   83dd0:	d65f03c0 	ret
   83dd4:	d503201f 	nop
   83dd8:	d503201f 	nop
   83ddc:	d503201f 	nop

0000000000083de0 <PutImage24>:
   83de0:	29429409 	ldp	w9, w5, [x0, #20]
   83de4:	12001c84 	and	w4, w4, #0xff
   83de8:	b9401c06 	ldr	w6, [x0, #28]
   83dec:	29401c08 	ldp	w8, w7, [x0]
   83df0:	0b0504a5 	add	w5, w5, w5, lsl #1
   83df4:	1b067d20 	mul	w0, w9, w6
   83df8:	aa078106 	orr	x6, x8, x7, lsl #32
   83dfc:	8b25c0c5 	add	x5, x6, w5, sxtw
   83e00:	0b000400 	add	w0, w0, w0, lsl #1
   83e04:	8b0000a5 	add	x5, x5, x0
   83e08:	340003e2 	cbz	w2, 83e84 <PutImage24+0xa4>
   83e0c:	52800060 	mov	w0, #0x3                   	// #3
   83e10:	9ba07d29 	umull	x9, w9, w0
   83e14:	cb0903eb 	neg	x11, x9
   83e18:	34000361 	cbz	w1, 83e84 <PutImage24+0xa4>
   83e1c:	9ba07c27 	umull	x7, w1, w0
   83e20:	aa0303e6 	mov	x6, x3
   83e24:	1200008a 	and	w10, w4, #0x1
   83e28:	52800008 	mov	w8, #0x0                   	// #0
   83e2c:	d503201f 	nop
   83e30:	d2800000 	mov	x0, #0x0                   	// #0
   83e34:	d503201f 	nop
   83e38:	386068c4 	ldrb	w4, [x6, x0]
   83e3c:	8b0000c3 	add	x3, x6, x0
   83e40:	8b0000a1 	add	x1, x5, x0
   83e44:	382068a4 	strb	w4, [x5, x0]
   83e48:	91000c00 	add	x0, x0, #0x3
   83e4c:	39400464 	ldrb	w4, [x3, #1]
   83e50:	eb07001f 	cmp	x0, x7
   83e54:	39000424 	strb	w4, [x1, #1]
   83e58:	39400863 	ldrb	w3, [x3, #2]
   83e5c:	39000823 	strb	w3, [x1, #2]
   83e60:	54fffec1 	b.ne	83e38 <PutImage24+0x58>  // b.any
   83e64:	7100015f 	cmp	w10, #0x0
   83e68:	8b0b00a0 	add	x0, x5, x11
   83e6c:	11000508 	add	w8, w8, #0x1
   83e70:	8b0900a5 	add	x5, x5, x9
   83e74:	9a8000a5 	csel	x5, x5, x0, eq	// eq = none
   83e78:	8b0700c6 	add	x6, x6, x7
   83e7c:	6b08005f 	cmp	w2, w8
   83e80:	54fffd81 	b.ne	83e30 <PutImage24+0x50>  // b.any
   83e84:	d65f03c0 	ret
   83e88:	d503201f 	nop
   83e8c:	d503201f 	nop

0000000000083e90 <ClearArea32>:
   83e90:	b9401408 	ldr	w8, [x0, #20]
   83e94:	531e7446 	lsl	w6, w2, #2
   83e98:	2940240a 	ldp	w10, w9, [x0]
   83e9c:	6b04005f 	cmp	w2, w4
   83ea0:	4b020087 	sub	w7, w4, w2
   83ea4:	1b067d05 	mul	w5, w8, w6
   83ea8:	aa098149 	orr	x9, x10, x9, lsl #32
   83eac:	8b264126 	add	x6, x9, w6, uxtw
   83eb0:	8b2540c5 	add	x5, x6, w5, uxtw
   83eb4:	54000240 	b.eq	83efc <ClearArea32+0x6c>  // b.none
   83eb8:	d37e7d08 	ubfiz	x8, x8, #2, #32
   83ebc:	9100c004 	add	x4, x0, #0x30
   83ec0:	6b010063 	subs	w3, w3, w1
   83ec4:	52800006 	mov	w6, #0x0                   	// #0
   83ec8:	540001a0 	b.eq	83efc <ClearArea32+0x6c>  // b.none
   83ecc:	d503201f 	nop
   83ed0:	aa0503e1 	mov	x1, x5
   83ed4:	52800000 	mov	w0, #0x0                   	// #0
   83ed8:	b9400082 	ldr	w2, [x4]
   83edc:	11000400 	add	w0, w0, #0x1
   83ee0:	b8004422 	str	w2, [x1], #4
   83ee4:	6b00007f 	cmp	w3, w0
   83ee8:	54ffff88 	b.hi	83ed8 <ClearArea32+0x48>  // b.pmore
   83eec:	110004c6 	add	w6, w6, #0x1
   83ef0:	8b0800a5 	add	x5, x5, x8
   83ef4:	6b0700df 	cmp	w6, w7
   83ef8:	54fffec3 	b.cc	83ed0 <ClearArea32+0x40>  // b.lo, b.ul, b.last
   83efc:	d65f03c0 	ret

0000000000083f00 <VertLine32>:
   83f00:	29428c06 	ldp	w6, w3, [x0, #20]
   83f04:	b9401c08 	ldr	w8, [x0, #28]
   83f08:	29401407 	ldp	w7, w5, [x0]
   83f0c:	531e7463 	lsl	w3, w3, #2
   83f10:	1b067d04 	mul	w4, w8, w6
   83f14:	aa0580e5 	orr	x5, x7, x5, lsl #32
   83f18:	8b23c0a3 	add	x3, x5, w3, sxtw
   83f1c:	531e7484 	lsl	w4, w4, #2
   83f20:	8b040063 	add	x3, x3, x4
   83f24:	340001a1 	cbz	w1, 83f58 <VertLine32+0x58>
   83f28:	7100045f 	cmp	w2, #0x1
   83f2c:	d37e7cc7 	ubfiz	x7, x6, #2, #32
   83f30:	540001a0 	b.eq	83f64 <VertLine32+0x64>  // b.none
   83f34:	cb0703e7 	neg	x7, x7
   83f38:	9100a006 	add	x6, x0, #0x28
   83f3c:	52800004 	mov	w4, #0x0                   	// #0
   83f40:	b94000c5 	ldr	w5, [x6]
   83f44:	11000484 	add	w4, w4, #0x1
   83f48:	b9000065 	str	w5, [x3]
   83f4c:	6b04003f 	cmp	w1, w4
   83f50:	8b070063 	add	x3, x3, x7
   83f54:	54ffff61 	b.ne	83f40 <VertLine32+0x40>  // b.any
   83f58:	1b012042 	madd	w2, w2, w1, w8
   83f5c:	b9001c02 	str	w2, [x0, #28]
   83f60:	d65f03c0 	ret
   83f64:	710004df 	cmp	w6, #0x1
   83f68:	52800004 	mov	w4, #0x0                   	// #0
   83f6c:	9100a006 	add	x6, x0, #0x28
   83f70:	54000141 	b.ne	83f98 <VertLine32+0x98>  // b.any
   83f74:	d503201f 	nop
   83f78:	b94000c5 	ldr	w5, [x6]
   83f7c:	11000484 	add	w4, w4, #0x1
   83f80:	b8004465 	str	w5, [x3], #4
   83f84:	6b04003f 	cmp	w1, w4
   83f88:	54ffff81 	b.ne	83f78 <VertLine32+0x78>  // b.any
   83f8c:	1b012042 	madd	w2, w2, w1, w8
   83f90:	b9001c02 	str	w2, [x0, #28]
   83f94:	d65f03c0 	ret
   83f98:	b94000c5 	ldr	w5, [x6]
   83f9c:	11000484 	add	w4, w4, #0x1
   83fa0:	b9000065 	str	w5, [x3]
   83fa4:	6b04003f 	cmp	w1, w4
   83fa8:	8b070063 	add	x3, x3, x7
   83fac:	54fffd60 	b.eq	83f58 <VertLine32+0x58>  // b.none
   83fb0:	b94000c5 	ldr	w5, [x6]
   83fb4:	11000484 	add	w4, w4, #0x1
   83fb8:	b9000065 	str	w5, [x3]
   83fbc:	6b04003f 	cmp	w1, w4
   83fc0:	8b070063 	add	x3, x3, x7
   83fc4:	54fffea1 	b.ne	83f98 <VertLine32+0x98>  // b.any
   83fc8:	17ffffe4 	b	83f58 <VertLine32+0x58>
   83fcc:	d503201f 	nop

0000000000083fd0 <HorzLine32>:
   83fd0:	29429c04 	ldp	w4, w7, [x0, #20]
   83fd4:	b9401c03 	ldr	w3, [x0, #28]
   83fd8:	29401406 	ldp	w6, w5, [x0]
   83fdc:	1b047c63 	mul	w3, w3, w4
   83fe0:	531e74e4 	lsl	w4, w7, #2
   83fe4:	aa0580c5 	orr	x5, x6, x5, lsl #32
   83fe8:	8b24c0a4 	add	x4, x5, w4, sxtw
   83fec:	531e7463 	lsl	w3, w3, #2
   83ff0:	8b040063 	add	x3, x3, x4
   83ff4:	34000141 	cbz	w1, 8401c <HorzLine32+0x4c>
   83ff8:	7100045f 	cmp	w2, #0x1
   83ffc:	9100a006 	add	x6, x0, #0x28
   84000:	52800004 	mov	w4, #0x0                   	// #0
   84004:	54000121 	b.ne	84028 <HorzLine32+0x58>  // b.any
   84008:	b94000c5 	ldr	w5, [x6]
   8400c:	11000484 	add	w4, w4, #0x1
   84010:	b8004465 	str	w5, [x3], #4
   84014:	6b04003f 	cmp	w1, w4
   84018:	54ffff81 	b.ne	84008 <HorzLine32+0x38>  // b.any
   8401c:	1b011c42 	madd	w2, w2, w1, w7
   84020:	b9001802 	str	w2, [x0, #24]
   84024:	d65f03c0 	ret
   84028:	937e7c48 	sbfiz	x8, x2, #2, #32
   8402c:	d503201f 	nop
   84030:	b94000c5 	ldr	w5, [x6]
   84034:	11000484 	add	w4, w4, #0x1
   84038:	b9000065 	str	w5, [x3]
   8403c:	6b04003f 	cmp	w1, w4
   84040:	8b080063 	add	x3, x3, x8
   84044:	54ffff61 	b.ne	84030 <HorzLine32+0x60>  // b.any
   84048:	1b011c42 	madd	w2, w2, w1, w7
   8404c:	b9001802 	str	w2, [x0, #24]
   84050:	d65f03c0 	ret
   84054:	d503201f 	nop
   84058:	d503201f 	nop
   8405c:	d503201f 	nop

0000000000084060 <DiagLine32>:
   84060:	2942b409 	ldp	w9, w13, [x0, #20]
   84064:	6b02003f 	cmp	w1, w2
   84068:	b9401c0c 	ldr	w12, [x0, #28]
   8406c:	1a829027 	csel	w7, w1, w2, ls	// ls = plast
   84070:	29401808 	ldp	w8, w6, [x0]
   84074:	531e75a2 	lsl	w2, w13, #2
   84078:	1b097d85 	mul	w5, w12, w9
   8407c:	aa068106 	orr	x6, x8, x6, lsl #32
   84080:	8b22c0c2 	add	x2, x6, w2, sxtw
   84084:	531e74a5 	lsl	w5, w5, #2
   84088:	8b050042 	add	x2, x2, x5
   8408c:	34000241 	cbz	w1, 840d4 <DiagLine32+0x74>
   84090:	1b047d29 	mul	w9, w9, w4
   84094:	937e7c6b 	sbfiz	x11, x3, #2, #32
   84098:	9100a00a 	add	x10, x0, #0x28
   8409c:	52800006 	mov	w6, #0x0                   	// #0
   840a0:	52800005 	mov	w5, #0x0                   	// #0
   840a4:	d37ef529 	lsl	x9, x9, #2
   840a8:	b9400148 	ldr	w8, [x10]
   840ac:	0b0700a5 	add	w5, w5, w7
   840b0:	b9000048 	str	w8, [x2]
   840b4:	110004c6 	add	w6, w6, #0x1
   840b8:	6b05003f 	cmp	w1, w5
   840bc:	8b0b0042 	add	x2, x2, x11
   840c0:	54000068 	b.hi	840cc <DiagLine32+0x6c>  // b.pmore
   840c4:	4b0100a5 	sub	w5, w5, w1
   840c8:	8b090042 	add	x2, x2, x9
   840cc:	6b06003f 	cmp	w1, w6
   840d0:	54fffec1 	b.ne	840a8 <DiagLine32+0x48>  // b.any
   840d4:	1b013463 	madd	w3, w3, w1, w13
   840d8:	1b0430e7 	madd	w7, w7, w4, w12
   840dc:	29031c03 	stp	w3, w7, [x0, #24]
   840e0:	d65f03c0 	ret
   840e4:	d503201f 	nop
   840e8:	d503201f 	nop
   840ec:	d503201f 	nop

00000000000840f0 <WriteChar32>:
   840f0:	2942ac02 	ldp	w2, w11, [x0, #20]
   840f4:	b000006a 	adrp	x10, 91000 <__text_end__+0xc00>
   840f8:	9111014a 	add	x10, x10, #0x440
   840fc:	b9401c03 	ldr	w3, [x0, #28]
   84100:	29401005 	ldp	w5, w4, [x0]
   84104:	d37e7c48 	ubfiz	x8, x2, #2, #32
   84108:	d10043ff 	sub	sp, sp, #0x10
   8410c:	531e1c21 	ubfiz	w1, w1, #2, #8
   84110:	1b037c42 	mul	w2, w2, w3
   84114:	531e7563 	lsl	w3, w11, #2
   84118:	aa0480a4 	orr	x4, x5, x4, lsl #32
   8411c:	52800009 	mov	w9, #0x0                   	// #0
   84120:	8b23c083 	add	x3, x4, w3, sxtw
   84124:	531e7442 	lsl	w2, w2, #2
   84128:	8b030042 	add	x2, x2, x3
   8412c:	0b090023 	add	w3, w1, w9
   84130:	52800004 	mov	w4, #0x0                   	// #0
   84134:	b8637943 	ldr	w3, [x10, x3, lsl #2]
   84138:	1400000d 	b	8416c <WriteChar32+0x7c>
   8413c:	b9402c06 	ldr	w6, [x0, #44]
   84140:	b9000be6 	str	w6, [sp, #8]
   84144:	2a0503e6 	mov	w6, w5
   84148:	b9400be7 	ldr	w7, [sp, #8]
   8414c:	71001cbf 	cmp	w5, #0x7
   84150:	11000484 	add	w4, w4, #0x1
   84154:	8b080045 	add	x5, x2, x8
   84158:	0b030063 	add	w3, w3, w3
   8415c:	b8267847 	str	w7, [x2, x6, lsl #2]
   84160:	9a8200a2 	csel	x2, x5, x2, eq	// eq = none
   84164:	7100809f 	cmp	w4, #0x20
   84168:	540000c0 	b.eq	84180 <WriteChar32+0x90>  // b.none
   8416c:	12000885 	and	w5, w4, #0x7
   84170:	36fffe63 	tbz	w3, #31, 8413c <WriteChar32+0x4c>
   84174:	b9402806 	ldr	w6, [x0, #40]
   84178:	b9000be6 	str	w6, [sp, #8]
   8417c:	17fffff2 	b	84144 <WriteChar32+0x54>
   84180:	11000529 	add	w9, w9, #0x1
   84184:	7100113f 	cmp	w9, #0x4
   84188:	54fffd21 	b.ne	8412c <WriteChar32+0x3c>  // b.any
   8418c:	1100216b 	add	w11, w11, #0x8
   84190:	b900180b 	str	w11, [x0, #24]
   84194:	910043ff 	add	sp, sp, #0x10
   84198:	d65f03c0 	ret
   8419c:	d503201f 	nop

00000000000841a0 <TransparentWriteChar32>:
   841a0:	2942b002 	ldp	w2, w12, [x0, #20]
   841a4:	b000006b 	adrp	x11, 91000 <__text_end__+0xc00>
   841a8:	9111016b 	add	x11, x11, #0x440
   841ac:	b9401c04 	ldr	w4, [x0, #28]
   841b0:	29400c05 	ldp	w5, w3, [x0]
   841b4:	d37e7c48 	ubfiz	x8, x2, #2, #32
   841b8:	531e1c21 	ubfiz	w1, w1, #2, #8
   841bc:	5280000a 	mov	w10, #0x0                   	// #0
   841c0:	1b047c44 	mul	w4, w2, w4
   841c4:	531e7582 	lsl	w2, w12, #2
   841c8:	aa0380a3 	orr	x3, x5, x3, lsl #32
   841cc:	8b22c062 	add	x2, x3, w2, sxtw
   841d0:	531e7484 	lsl	w4, w4, #2
   841d4:	8b020084 	add	x4, x4, x2
   841d8:	0b0a0022 	add	w2, w1, w10
   841dc:	52800003 	mov	w3, #0x0                   	// #0
   841e0:	b8627962 	ldr	w2, [x11, x2, lsl #2]
   841e4:	d503201f 	nop
   841e8:	12000867 	and	w7, w3, #0x7
   841ec:	8b080086 	add	x6, x4, x8
   841f0:	aa0703e5 	mov	x5, x7
   841f4:	11000463 	add	w3, w3, #0x1
   841f8:	36f80062 	tbz	w2, #31, 84204 <TransparentWriteChar32+0x64>
   841fc:	b9402809 	ldr	w9, [x0, #40]
   84200:	b8277889 	str	w9, [x4, x7, lsl #2]
   84204:	71001cbf 	cmp	w5, #0x7
   84208:	0b020042 	add	w2, w2, w2
   8420c:	9a8400c4 	csel	x4, x6, x4, eq	// eq = none
   84210:	7100807f 	cmp	w3, #0x20
   84214:	54fffea1 	b.ne	841e8 <TransparentWriteChar32+0x48>  // b.any
   84218:	1100054a 	add	w10, w10, #0x1
   8421c:	7100115f 	cmp	w10, #0x4
   84220:	54fffdc1 	b.ne	841d8 <TransparentWriteChar32+0x38>  // b.any
   84224:	1100218c 	add	w12, w12, #0x8
   84228:	b900180c 	str	w12, [x0, #24]
   8422c:	d65f03c0 	ret

0000000000084230 <PutImage32>:
   84230:	29429407 	ldp	w7, w5, [x0, #20]
   84234:	12001c84 	and	w4, w4, #0xff
   84238:	b9401c06 	ldr	w6, [x0, #28]
   8423c:	29402009 	ldp	w9, w8, [x0]
   84240:	531e74a5 	lsl	w5, w5, #2
   84244:	1b067ce0 	mul	w0, w7, w6
   84248:	aa088126 	orr	x6, x9, x8, lsl #32
   8424c:	8b25c0c5 	add	x5, x6, w5, sxtw
   84250:	531e7400 	lsl	w0, w0, #2
   84254:	8b0000a5 	add	x5, x5, x0
   84258:	340002e2 	cbz	w2, 842b4 <PutImage32+0x84>
   8425c:	d37e7ce7 	ubfiz	x7, x7, #2, #32
   84260:	cb0703e9 	neg	x9, x7
   84264:	34000281 	cbz	w1, 842b4 <PutImage32+0x84>
   84268:	d37e7c26 	ubfiz	x6, x1, #2, #32
   8426c:	12000088 	and	w8, w4, #0x1
   84270:	52800004 	mov	w4, #0x0                   	// #0
   84274:	d503201f 	nop
   84278:	d2800000 	mov	x0, #0x0                   	// #0
   8427c:	d503201f 	nop
   84280:	b8606861 	ldr	w1, [x3, x0]
   84284:	b82068a1 	str	w1, [x5, x0]
   84288:	91001000 	add	x0, x0, #0x4
   8428c:	eb06001f 	cmp	x0, x6
   84290:	54ffff81 	b.ne	84280 <PutImage32+0x50>  // b.any
   84294:	7100011f 	cmp	w8, #0x0
   84298:	8b0900a0 	add	x0, x5, x9
   8429c:	11000484 	add	w4, w4, #0x1
   842a0:	8b0700a5 	add	x5, x5, x7
   842a4:	9a8000a5 	csel	x5, x5, x0, eq	// eq = none
   842a8:	8b060063 	add	x3, x3, x6
   842ac:	6b04005f 	cmp	w2, w4
   842b0:	54fffe41 	b.ne	84278 <PutImage32+0x48>  // b.any
   842b4:	d65f03c0 	ret
   842b8:	d503201f 	nop
   842bc:	d503201f 	nop

00000000000842c0 <mailbox_tag_message.constprop.1>:
   842c0:	a9b27bfd 	stp	x29, x30, [sp, #-224]!
   842c4:	d2800381 	mov	x1, #0x1c                  	// #28
   842c8:	128003e6 	mov	w6, #0xffffffe0            	// #-32
   842cc:	910303e7 	add	x7, sp, #0xc0
   842d0:	910383e8 	add	x8, sp, #0xe0
   842d4:	910003fd 	mov	x29, sp
   842d8:	f9000bf3 	str	x19, [sp, #16]
   842dc:	aa0003f3 	mov	x19, x0
   842e0:	910103e0 	add	x0, sp, #0x40
   842e4:	a90223e8 	stp	x8, x8, [sp, #32]
   842e8:	f9001be7 	str	x7, [sp, #48]
   842ec:	29077fe6 	stp	w6, wzr, [sp, #56]
   842f0:	f90023e1 	str	x1, [sp, #64]
   842f4:	29090fe2 	stp	w2, w3, [sp, #72]
   842f8:	290a17e4 	stp	w4, w5, [sp, #80]
   842fc:	b9005bff 	str	wzr, [sp, #88]
   84300:	a90c0fe2 	stp	x2, x3, [sp, #192]
   84304:	a90d17e4 	stp	x4, x5, [sp, #208]
   84308:	97fff347 	bl	81024 <ARMaddrToGPUaddr>
   8430c:	d0000061 	adrp	x1, 92000 <BitFont+0xbc0>
   84310:	b94b0022 	ldr	w2, [x1, #2816]
   84314:	121c6c03 	and	w3, w0, #0xfffffff0
   84318:	321d0063 	orr	w3, w3, #0x8
   8431c:	52971000 	mov	w0, #0xb880                	// #47232
   84320:	0b000042 	add	w2, w2, w0
   84324:	d503201f 	nop
   84328:	b9403841 	ldr	w1, [x2, #56]
   8432c:	37ffffe1 	tbnz	w1, #31, 84328 <mailbox_tag_message.constprop.1+0x68>
   84330:	b9002043 	str	w3, [x2, #32]
   84334:	d503201f 	nop
   84338:	b9401841 	ldr	w1, [x2, #24]
   8433c:	37f7ffe1 	tbnz	w1, #30, 84338 <mailbox_tag_message.constprop.1+0x78>
   84340:	b9400041 	ldr	w1, [x2]
   84344:	12000c21 	and	w1, w1, #0xf
   84348:	7100203f 	cmp	w1, #0x8
   8434c:	54ffff61 	b.ne	84338 <mailbox_tag_message.constprop.1+0x78>  // b.any
   84350:	b94047e2 	ldr	w2, [sp, #68]
   84354:	52b00001 	mov	w1, #0x80000000            	// #-2147483648
   84358:	52800000 	mov	w0, #0x0                   	// #0
   8435c:	6b01005f 	cmp	w2, w1
   84360:	54000080 	b.eq	84370 <mailbox_tag_message.constprop.1+0xb0>  // b.none
   84364:	f9400bf3 	ldr	x19, [sp, #16]
   84368:	a8ce7bfd 	ldp	x29, x30, [sp], #224
   8436c:	d65f03c0 	ret
   84370:	b40000b3 	cbz	x19, 84384 <mailbox_tag_message.constprop.1+0xc4>
   84374:	29490be3 	ldp	w3, w2, [sp, #72]
   84378:	29000a63 	stp	w3, w2, [x19]
   8437c:	294a03e1 	ldp	w1, w0, [sp, #80]
   84380:	29010261 	stp	w1, w0, [x19, #8]
   84384:	f9400bf3 	ldr	x19, [sp, #16]
   84388:	52800020 	mov	w0, #0x1                   	// #1
   8438c:	a8ce7bfd 	ldp	x29, x30, [sp], #224
   84390:	d65f03c0 	ret
   84394:	d503201f 	nop
   84398:	d503201f 	nop
   8439c:	d503201f 	nop

00000000000843a0 <mailbox_tag_message.constprop.2>:
   843a0:	a9b17bfd 	stp	x29, x30, [sp, #-240]!
   843a4:	d2800401 	mov	x1, #0x20                  	// #32
   843a8:	128004e7 	mov	w7, #0xffffffd8            	// #-40
   843ac:	910303e8 	add	x8, sp, #0xc0
   843b0:	9103c3e9 	add	x9, sp, #0xf0
   843b4:	910003fd 	mov	x29, sp
   843b8:	f9000bf3 	str	x19, [sp, #16]
   843bc:	aa0003f3 	mov	x19, x0
   843c0:	910103e0 	add	x0, sp, #0x40
   843c4:	a90227e9 	stp	x9, x9, [sp, #32]
   843c8:	f9001be8 	str	x8, [sp, #48]
   843cc:	29077fe7 	stp	w7, wzr, [sp, #56]
   843d0:	f90023e1 	str	x1, [sp, #64]
   843d4:	29090fe2 	stp	w2, w3, [sp, #72]
   843d8:	290a17e4 	stp	w4, w5, [sp, #80]
   843dc:	290b7fe6 	stp	w6, wzr, [sp, #88]
   843e0:	a90c8fe2 	stp	x2, x3, [sp, #200]
   843e4:	a90d97e4 	stp	x4, x5, [sp, #216]
   843e8:	f90077e6 	str	x6, [sp, #232]
   843ec:	97fff30e 	bl	81024 <ARMaddrToGPUaddr>
   843f0:	d0000061 	adrp	x1, 92000 <BitFont+0xbc0>
   843f4:	b94b0022 	ldr	w2, [x1, #2816]
   843f8:	121c6c03 	and	w3, w0, #0xfffffff0
   843fc:	52971000 	mov	w0, #0xb880                	// #47232
   84400:	321d0063 	orr	w3, w3, #0x8
   84404:	0b000042 	add	w2, w2, w0
   84408:	b9403841 	ldr	w1, [x2, #56]
   8440c:	37ffffe1 	tbnz	w1, #31, 84408 <mailbox_tag_message.constprop.2+0x68>
   84410:	b9002043 	str	w3, [x2, #32]
   84414:	d503201f 	nop
   84418:	b9401841 	ldr	w1, [x2, #24]
   8441c:	37f7ffe1 	tbnz	w1, #30, 84418 <mailbox_tag_message.constprop.2+0x78>
   84420:	b9400041 	ldr	w1, [x2]
   84424:	12000c21 	and	w1, w1, #0xf
   84428:	7100203f 	cmp	w1, #0x8
   8442c:	54ffff61 	b.ne	84418 <mailbox_tag_message.constprop.2+0x78>  // b.any
   84430:	b94047e2 	ldr	w2, [sp, #68]
   84434:	52b00001 	mov	w1, #0x80000000            	// #-2147483648
   84438:	52800000 	mov	w0, #0x0                   	// #0
   8443c:	6b01005f 	cmp	w2, w1
   84440:	54000080 	b.eq	84450 <mailbox_tag_message.constprop.2+0xb0>  // b.none
   84444:	f9400bf3 	ldr	x19, [sp, #16]
   84448:	a8cf7bfd 	ldp	x29, x30, [sp], #240
   8444c:	d65f03c0 	ret
   84450:	b40000f3 	cbz	x19, 8446c <mailbox_tag_message.constprop.2+0xcc>
   84454:	29490fe4 	ldp	w4, w3, [sp, #72]
   84458:	29000e64 	stp	w4, w3, [x19]
   8445c:	294a07e2 	ldp	w2, w1, [sp, #80]
   84460:	29010662 	stp	w2, w1, [x19, #8]
   84464:	b9405be0 	ldr	w0, [sp, #88]
   84468:	b9001260 	str	w0, [x19, #16]
   8446c:	f9400bf3 	ldr	x19, [sp, #16]
   84470:	52800020 	mov	w0, #0x1                   	// #1
   84474:	a8cf7bfd 	ldp	x29, x30, [sp], #240
   84478:	d65f03c0 	ret
   8447c:	d503201f 	nop

0000000000084480 <mailbox_tag_message.constprop.0>:
   84480:	a9b17bfd 	stp	x29, x30, [sp, #-240]!
   84484:	128005ea 	mov	w10, #0xffffffd0            	// #-48
   84488:	2a0a03e8 	mov	w8, w10
   8448c:	910003fd 	mov	x29, sp
   84490:	9103c3e1 	add	x1, sp, #0xf0
   84494:	910303eb 	add	x11, sp, #0xc0
   84498:	d2800029 	mov	x9, #0x1                   	// #1
   8449c:	f9000bf3 	str	x19, [sp, #16]
   844a0:	aa0003f3 	mov	x19, x0
   844a4:	d2800d00 	mov	x0, #0x68                  	// #104
   844a8:	a90207e1 	stp	x1, x1, [sp, #32]
   844ac:	f9001beb 	str	x11, [sp, #48]
   844b0:	29077fea 	stp	w10, wzr, [sp, #56]
   844b4:	f90023e0 	str	x0, [sp, #64]
   844b8:	b900a7ff 	str	wzr, [sp, #164]
   844bc:	a90c0fe2 	stp	x2, x3, [sp, #192]
   844c0:	a90d17e4 	stp	x4, x5, [sp, #208]
   844c4:	a90e1fe6 	stp	x6, x7, [sp, #224]
   844c8:	11002100 	add	w0, w8, #0x8
   844cc:	37f805e8 	tbnz	w8, #31, 84588 <mailbox_tag_message.constprop.0+0x108>
   844d0:	910103e0 	add	x0, sp, #0x40
   844d4:	f1005d3f 	cmp	x9, #0x17
   844d8:	8b090802 	add	x2, x0, x9, lsl #2
   844dc:	b9400020 	ldr	w0, [x1]
   844e0:	b9000440 	str	w0, [x2, #4]
   844e4:	540001e0 	b.eq	84520 <mailbox_tag_message.constprop.0+0xa0>  // b.none
   844e8:	528002c4 	mov	w4, #0x16                  	// #22
   844ec:	4b090084 	sub	w4, w4, w9
   844f0:	8b090084 	add	x4, x4, x9
   844f4:	910113e0 	add	x0, sp, #0x44
   844f8:	91002021 	add	x1, x1, #0x8
   844fc:	8b040804 	add	x4, x0, x4, lsl #2
   84500:	aa0103e3 	mov	x3, x1
   84504:	91001042 	add	x2, x2, #0x4
   84508:	91002021 	add	x1, x1, #0x8
   8450c:	b9400063 	ldr	w3, [x3]
   84510:	b9000443 	str	w3, [x2, #4]
   84514:	eb04005f 	cmp	x2, x4
   84518:	54ffff41 	b.ne	84500 <mailbox_tag_message.constprop.0+0x80>  // b.any
   8451c:	d503201f 	nop
   84520:	910103e0 	add	x0, sp, #0x40
   84524:	97fff2c0 	bl	81024 <ARMaddrToGPUaddr>
   84528:	d0000061 	adrp	x1, 92000 <BitFont+0xbc0>
   8452c:	b94b0022 	ldr	w2, [x1, #2816]
   84530:	121c6c00 	and	w0, w0, #0xfffffff0
   84534:	52971001 	mov	w1, #0xb880                	// #47232
   84538:	321d0000 	orr	w0, w0, #0x8
   8453c:	0b010042 	add	w2, w2, w1
   84540:	b9403841 	ldr	w1, [x2, #56]
   84544:	37ffffe1 	tbnz	w1, #31, 84540 <mailbox_tag_message.constprop.0+0xc0>
   84548:	b9002040 	str	w0, [x2, #32]
   8454c:	d503201f 	nop
   84550:	b9401841 	ldr	w1, [x2, #24]
   84554:	37f7ffe1 	tbnz	w1, #30, 84550 <mailbox_tag_message.constprop.0+0xd0>
   84558:	b9400041 	ldr	w1, [x2]
   8455c:	12000c21 	and	w1, w1, #0xf
   84560:	7100203f 	cmp	w1, #0x8
   84564:	54ffff61 	b.ne	84550 <mailbox_tag_message.constprop.0+0xd0>  // b.any
   84568:	b94047e2 	ldr	w2, [sp, #68]
   8456c:	52b00001 	mov	w1, #0x80000000            	// #-2147483648
   84570:	52800000 	mov	w0, #0x0                   	// #0
   84574:	6b01005f 	cmp	w2, w1
   84578:	54000280 	b.eq	845c8 <mailbox_tag_message.constprop.0+0x148>  // b.none
   8457c:	f9400bf3 	ldr	x19, [sp, #16]
   84580:	a8cf7bfd 	ldp	x29, x30, [sp], #240
   84584:	d65f03c0 	ret
   84588:	7100001f 	cmp	w0, #0x0
   8458c:	5400018d 	b.le	845bc <mailbox_tag_message.constprop.0+0x13c>
   84590:	aa0103e8 	mov	x8, x1
   84594:	91002021 	add	x1, x1, #0x8
   84598:	910103e2 	add	x2, sp, #0x40
   8459c:	b9400103 	ldr	w3, [x8]
   845a0:	8b090842 	add	x2, x2, x9, lsl #2
   845a4:	f1005d3f 	cmp	x9, #0x17
   845a8:	b9000443 	str	w3, [x2, #4]
   845ac:	54fffba0 	b.eq	84520 <mailbox_tag_message.constprop.0+0xa0>  // b.none
   845b0:	91000529 	add	x9, x9, #0x1
   845b4:	2a0003e8 	mov	w8, w0
   845b8:	17ffffc4 	b	844c8 <mailbox_tag_message.constprop.0+0x48>
   845bc:	9103c3e2 	add	x2, sp, #0xf0
   845c0:	8b28c048 	add	x8, x2, w8, sxtw
   845c4:	17fffff5 	b	84598 <mailbox_tag_message.constprop.0+0x118>
   845c8:	d2800000 	mov	x0, #0x0                   	// #0
   845cc:	b4000113 	cbz	x19, 845ec <mailbox_tag_message.constprop.0+0x16c>
   845d0:	910103e1 	add	x1, sp, #0x40
   845d4:	8b000021 	add	x1, x1, x0
   845d8:	b9400821 	ldr	w1, [x1, #8]
   845dc:	b8206a61 	str	w1, [x19, x0]
   845e0:	91001000 	add	x0, x0, #0x4
   845e4:	f101701f 	cmp	x0, #0x5c
   845e8:	54ffff41 	b.ne	845d0 <mailbox_tag_message.constprop.0+0x150>  // b.any
   845ec:	f9400bf3 	ldr	x19, [sp, #16]
   845f0:	52800020 	mov	w0, #0x1                   	// #1
   845f4:	a8cf7bfd 	ldp	x29, x30, [sp], #240
   845f8:	d65f03c0 	ret
   845fc:	d503201f 	nop

0000000000084600 <RPi_CpuIdString>:
   84600:	d0000060 	adrp	x0, 92000 <BitFont+0xbc0>
   84604:	b94b1400 	ldr	w0, [x0, #2836]
   84608:	d3443c00 	ubfx	x0, x0, #4, #12
   8460c:	71301c1f 	cmp	w0, #0xc07
   84610:	540001a0 	b.eq	84644 <RPi_CpuIdString+0x44>  // b.none
   84614:	71340c1f 	cmp	w0, #0xd03
   84618:	54000100 	b.eq	84638 <RPi_CpuIdString+0x38>  // b.none
   8461c:	712dd81f 	cmp	w0, #0xb76
   84620:	90000061 	adrp	x1, 90000 <__sflush_r+0x40>
   84624:	91142021 	add	x1, x1, #0x508
   84628:	90000060 	adrp	x0, 90000 <__sflush_r+0x40>
   8462c:	91136000 	add	x0, x0, #0x4d8
   84630:	9a810000 	csel	x0, x0, x1, eq	// eq = none
   84634:	d65f03c0 	ret
   84638:	90000060 	adrp	x0, 90000 <__sflush_r+0x40>
   8463c:	9113e000 	add	x0, x0, #0x4f8
   84640:	d65f03c0 	ret
   84644:	90000060 	adrp	x0, 90000 <__sflush_r+0x40>
   84648:	9113a000 	add	x0, x0, #0x4e8
   8464c:	d65f03c0 	ret

0000000000084650 <gpio_setup>:
   84650:	7100d81f 	cmp	w0, #0x36
   84654:	2a0003e3 	mov	w3, w0
   84658:	7a479822 	ccmp	w1, #0x7, #0x2, ls	// ls = plast
   8465c:	52800000 	mov	w0, #0x0                   	// #0
   84660:	54000049 	b.ls	84668 <gpio_setup+0x18>  // b.plast
   84664:	d65f03c0 	ret
   84668:	529999a2 	mov	w2, #0xcccd                	// #52429
   8466c:	72b99982 	movk	w2, #0xcccc, lsl #16
   84670:	52800147 	mov	w7, #0xa                   	// #10
   84674:	d0000060 	adrp	x0, 92000 <BitFont+0xbc0>
   84678:	b94b0005 	ldr	w5, [x0, #2816]
   8467c:	9ba27c62 	umull	x2, w3, w2
   84680:	528000e4 	mov	w4, #0x7                   	// #7
   84684:	52800020 	mov	w0, #0x1                   	// #1
   84688:	114800a5 	add	w5, w5, #0x200, lsl #12
   8468c:	d363fc42 	lsr	x2, x2, #35
   84690:	d37e7046 	ubfiz	x6, x2, #2, #29
   84694:	1b078c42 	msub	w2, w2, w7, w3
   84698:	b86548c7 	ldr	w7, [x6, w5, uxtw]
   8469c:	0b020442 	add	w2, w2, w2, lsl #1
   846a0:	1ac22083 	lsl	w3, w4, w2
   846a4:	0a2300e3 	bic	w3, w7, w3
   846a8:	1ac22021 	lsl	w1, w1, w2
   846ac:	2a030021 	orr	w1, w1, w3
   846b0:	b82548c1 	str	w1, [x6, w5, uxtw]
   846b4:	d65f03c0 	ret
   846b8:	d503201f 	nop
   846bc:	d503201f 	nop

00000000000846c0 <gpio_output>:
   846c0:	12001c21 	and	w1, w1, #0xff
   846c4:	7100d41f 	cmp	w0, #0x35
   846c8:	54000069 	b.ls	846d4 <gpio_output+0x14>  // b.plast
   846cc:	52800000 	mov	w0, #0x0                   	// #0
   846d0:	d65f03c0 	ret
   846d4:	d0000062 	adrp	x2, 92000 <BitFont+0xbc0>
   846d8:	b94b0042 	ldr	w2, [x2, #2816]
   846dc:	52800024 	mov	w4, #0x1                   	// #1
   846e0:	53057c03 	lsr	w3, w0, #5
   846e4:	11480042 	add	w2, w2, #0x200, lsl #12
   846e8:	1ac02084 	lsl	w4, w4, w0
   846ec:	370000e1 	tbnz	w1, #0, 84708 <gpio_output+0x48>
   846f0:	11002863 	add	w3, w3, #0xa
   846f4:	d37e6c63 	ubfiz	x3, x3, #2, #28
   846f8:	8b030041 	add	x1, x2, x3
   846fc:	52800020 	mov	w0, #0x1                   	// #1
   84700:	b9000024 	str	w4, [x1]
   84704:	d65f03c0 	ret
   84708:	11001c63 	add	w3, w3, #0x7
   8470c:	d37e6c63 	ubfiz	x3, x3, #2, #28
   84710:	8b030041 	add	x1, x2, x3
   84714:	17fffffa 	b	846fc <gpio_output+0x3c>
   84718:	d503201f 	nop
   8471c:	d503201f 	nop

0000000000084720 <gpio_input>:
   84720:	7100d41f 	cmp	w0, #0x35
   84724:	540001a8 	b.hi	84758 <gpio_input+0x38>  // b.pmore
   84728:	d0000061 	adrp	x1, 92000 <BitFont+0xbc0>
   8472c:	b94b0023 	ldr	w3, [x1, #2816]
   84730:	53057c01 	lsr	w1, w0, #5
   84734:	52800022 	mov	w2, #0x1                   	// #1
   84738:	91003021 	add	x1, x1, #0xc
   8473c:	11480063 	add	w3, w3, #0x200, lsl #12
   84740:	1ac02042 	lsl	w2, w2, w0
   84744:	8b010860 	add	x0, x3, x1, lsl #2
   84748:	b9400400 	ldr	w0, [x0, #4]
   8474c:	6a00005f 	tst	w2, w0
   84750:	1a9f07e0 	cset	w0, ne	// ne = any
   84754:	d65f03c0 	ret
   84758:	52800000 	mov	w0, #0x0                   	// #0
   8475c:	d65f03c0 	ret

0000000000084760 <gpio_checkEvent>:
   84760:	7100d41f 	cmp	w0, #0x35
   84764:	54000188 	b.hi	84794 <gpio_checkEvent+0x34>  // b.pmore
   84768:	d0000061 	adrp	x1, 92000 <BitFont+0xbc0>
   8476c:	b94b0022 	ldr	w2, [x1, #2816]
   84770:	53057c03 	lsr	w3, w0, #5
   84774:	52800021 	mov	w1, #0x1                   	// #1
   84778:	11480042 	add	w2, w2, #0x200, lsl #12
   8477c:	91004063 	add	x3, x3, #0x10
   84780:	1ac02020 	lsl	w0, w1, w0
   84784:	b8637841 	ldr	w1, [x2, x3, lsl #2]
   84788:	6a01001f 	tst	w0, w1
   8478c:	1a9f07e0 	cset	w0, ne	// ne = any
   84790:	d65f03c0 	ret
   84794:	52800000 	mov	w0, #0x0                   	// #0
   84798:	d65f03c0 	ret
   8479c:	d503201f 	nop

00000000000847a0 <gpio_clearEvent>:
   847a0:	7100d41f 	cmp	w0, #0x35
   847a4:	54000069 	b.ls	847b0 <gpio_clearEvent+0x10>  // b.plast
   847a8:	52800000 	mov	w0, #0x0                   	// #0
   847ac:	d65f03c0 	ret
   847b0:	d0000061 	adrp	x1, 92000 <BitFont+0xbc0>
   847b4:	b94b0023 	ldr	w3, [x1, #2816]
   847b8:	53057c04 	lsr	w4, w0, #5
   847bc:	52800022 	mov	w2, #0x1                   	// #1
   847c0:	11480063 	add	w3, w3, #0x200, lsl #12
   847c4:	91004084 	add	x4, x4, #0x10
   847c8:	1ac02041 	lsl	w1, w2, w0
   847cc:	2a0203e0 	mov	w0, w2
   847d0:	b8247861 	str	w1, [x3, x4, lsl #2]
   847d4:	d65f03c0 	ret
   847d8:	d503201f 	nop
   847dc:	d503201f 	nop

00000000000847e0 <gpio_edgeDetect>:
   847e0:	12001c21 	and	w1, w1, #0xff
   847e4:	12001c42 	and	w2, w2, #0xff
   847e8:	7100d41f 	cmp	w0, #0x35
   847ec:	54000069 	b.ls	847f8 <gpio_edgeDetect+0x18>  // b.plast
   847f0:	52800000 	mov	w0, #0x0                   	// #0
   847f4:	d65f03c0 	ret
   847f8:	53057c04 	lsr	w4, w0, #5
   847fc:	d0000063 	adrp	x3, 92000 <BitFont+0xbc0>
   84800:	b94b0063 	ldr	w3, [x3, #2816]
   84804:	52800025 	mov	w5, #0x1                   	// #1
   84808:	d37e6884 	ubfiz	x4, x4, #2, #27
   8480c:	1ac020a0 	lsl	w0, w5, w0
   84810:	11480063 	add	w3, w3, #0x200, lsl #12
   84814:	360000e1 	tbz	w1, #0, 84830 <gpio_edgeDetect+0x50>
   84818:	36000222 	tbz	w2, #0, 8485c <gpio_edgeDetect+0x7c>
   8481c:	9101c084 	add	x4, x4, #0x70
   84820:	8b040063 	add	x3, x3, x4
   84824:	b9000c60 	str	w0, [x3, #12]
   84828:	52800020 	mov	w0, #0x1                   	// #1
   8482c:	d65f03c0 	ret
   84830:	360000c2 	tbz	w2, #0, 84848 <gpio_edgeDetect+0x68>
   84834:	91020084 	add	x4, x4, #0x80
   84838:	8b040063 	add	x3, x3, x4
   8483c:	b9000860 	str	w0, [x3, #8]
   84840:	52800020 	mov	w0, #0x1                   	// #1
   84844:	17fffffa 	b	8482c <gpio_edgeDetect+0x4c>
   84848:	91014084 	add	x4, x4, #0x50
   8484c:	8b040063 	add	x3, x3, x4
   84850:	b9000860 	str	w0, [x3, #8]
   84854:	52800020 	mov	w0, #0x1                   	// #1
   84858:	17fffff5 	b	8482c <gpio_edgeDetect+0x4c>
   8485c:	91010084 	add	x4, x4, #0x40
   84860:	8b040063 	add	x3, x3, x4
   84864:	b9000c60 	str	w0, [x3, #12]
   84868:	52800020 	mov	w0, #0x1                   	// #1
   8486c:	17fffff0 	b	8482c <gpio_edgeDetect+0x4c>

0000000000084870 <gpio_fixResistor>:
   84870:	7100d81f 	cmp	w0, #0x36
   84874:	7a429822 	ccmp	w1, #0x2, #0x2, ls	// ls = plast
   84878:	54000069 	b.ls	84884 <gpio_fixResistor+0x14>  // b.plast
   8487c:	52800000 	mov	w0, #0x0                   	// #0
   84880:	d65f03c0 	ret
   84884:	d0000062 	adrp	x2, 92000 <BitFont+0xbc0>
   84888:	b94b0042 	ldr	w2, [x2, #2816]
   8488c:	11480046 	add	w6, w2, #0x200, lsl #12
   84890:	11400c42 	add	w2, w2, #0x3, lsl #12
   84894:	b90094c1 	str	w1, [x6, #148]
   84898:	b9400841 	ldr	w1, [x2, #8]
   8489c:	b9400444 	ldr	w4, [x2, #4]
   848a0:	b9400843 	ldr	w3, [x2, #8]
   848a4:	6b03003f 	cmp	w1, w3
   848a8:	54ffff81 	b.ne	84898 <gpio_fixResistor+0x28>  // b.any
   848ac:	2a0403e4 	mov	w4, w4
   848b0:	aa018081 	orr	x1, x4, x1, lsl #32
   848b4:	91000825 	add	x5, x1, #0x2
   848b8:	b9400841 	ldr	w1, [x2, #8]
   848bc:	b9400444 	ldr	w4, [x2, #4]
   848c0:	b9400843 	ldr	w3, [x2, #8]
   848c4:	6b03003f 	cmp	w1, w3
   848c8:	54ffff81 	b.ne	848b8 <gpio_fixResistor+0x48>  // b.any
   848cc:	2a0403e4 	mov	w4, w4
   848d0:	aa018081 	orr	x1, x4, x1, lsl #32
   848d4:	eb0100bf 	cmp	x5, x1
   848d8:	54ffff08 	b.hi	848b8 <gpio_fixResistor+0x48>  // b.pmore
   848dc:	53057c05 	lsr	w5, w0, #5
   848e0:	52800021 	mov	w1, #0x1                   	// #1
   848e4:	1ac02020 	lsl	w0, w1, w0
   848e8:	8b0508c5 	add	x5, x6, x5, lsl #2
   848ec:	b90098a0 	str	w0, [x5, #152]
   848f0:	b9400840 	ldr	w0, [x2, #8]
   848f4:	b9400443 	ldr	w3, [x2, #4]
   848f8:	b9400841 	ldr	w1, [x2, #8]
   848fc:	6b01001f 	cmp	w0, w1
   84900:	54ffff81 	b.ne	848f0 <gpio_fixResistor+0x80>  // b.any
   84904:	2a0303e3 	mov	w3, w3
   84908:	aa008060 	orr	x0, x3, x0, lsl #32
   8490c:	91000804 	add	x4, x0, #0x2
   84910:	b9400840 	ldr	w0, [x2, #8]
   84914:	b9400443 	ldr	w3, [x2, #4]
   84918:	b9400841 	ldr	w1, [x2, #8]
   8491c:	6b01001f 	cmp	w0, w1
   84920:	54ffff81 	b.ne	84910 <gpio_fixResistor+0xa0>  // b.any
   84924:	2a0303e3 	mov	w3, w3
   84928:	aa008060 	orr	x0, x3, x0, lsl #32
   8492c:	eb00009f 	cmp	x4, x0
   84930:	54ffff08 	b.hi	84910 <gpio_fixResistor+0xa0>  // b.pmore
   84934:	b90094df 	str	wzr, [x6, #148]
   84938:	52800020 	mov	w0, #0x1                   	// #1
   8493c:	b90098bf 	str	wzr, [x5, #152]
   84940:	d65f03c0 	ret
   84944:	d503201f 	nop
   84948:	d503201f 	nop
   8494c:	d503201f 	nop

0000000000084950 <timer_getTickCount64>:
   84950:	d0000060 	adrp	x0, 92000 <BitFont+0xbc0>
   84954:	b94b0001 	ldr	w1, [x0, #2816]
   84958:	11400c21 	add	w1, w1, #0x3, lsl #12
   8495c:	d503201f 	nop
   84960:	b9400822 	ldr	w2, [x1, #8]
   84964:	b9400420 	ldr	w0, [x1, #4]
   84968:	b9400823 	ldr	w3, [x1, #8]
   8496c:	6b03005f 	cmp	w2, w3
   84970:	54ffff81 	b.ne	84960 <timer_getTickCount64+0x10>  // b.any
   84974:	2a0003e0 	mov	w0, w0
   84978:	aa028000 	orr	x0, x0, x2, lsl #32
   8497c:	d65f03c0 	ret

0000000000084980 <timer_wait>:
   84980:	d0000061 	adrp	x1, 92000 <BitFont+0xbc0>
   84984:	b94b0021 	ldr	w1, [x1, #2816]
   84988:	11400c21 	add	w1, w1, #0x3, lsl #12
   8498c:	d503201f 	nop
   84990:	b9400822 	ldr	w2, [x1, #8]
   84994:	b9400424 	ldr	w4, [x1, #4]
   84998:	b9400823 	ldr	w3, [x1, #8]
   8499c:	6b03005f 	cmp	w2, w3
   849a0:	54ffff81 	b.ne	84990 <timer_wait+0x10>  // b.any
   849a4:	2a0403e4 	mov	w4, w4
   849a8:	aa028082 	orr	x2, x4, x2, lsl #32
   849ac:	8b000044 	add	x4, x2, x0
   849b0:	b9400820 	ldr	w0, [x1, #8]
   849b4:	b9400423 	ldr	w3, [x1, #4]
   849b8:	b9400822 	ldr	w2, [x1, #8]
   849bc:	6b02001f 	cmp	w0, w2
   849c0:	54ffff81 	b.ne	849b0 <timer_wait+0x30>  // b.any
   849c4:	2a0303e3 	mov	w3, w3
   849c8:	aa008060 	orr	x0, x3, x0, lsl #32
   849cc:	eb00009f 	cmp	x4, x0
   849d0:	54ffff08 	b.hi	849b0 <timer_wait+0x30>  // b.pmore
   849d4:	d65f03c0 	ret
   849d8:	d503201f 	nop
   849dc:	d503201f 	nop

00000000000849e0 <tick_difference>:
   849e0:	cb000020 	sub	x0, x1, x0
   849e4:	d65f03c0 	ret
   849e8:	d503201f 	nop
   849ec:	d503201f 	nop

00000000000849f0 <mailbox_write>:
   849f0:	7100241f 	cmp	w0, #0x9
   849f4:	54000188 	b.hi	84a24 <mailbox_write+0x34>  // b.pmore
   849f8:	d0000062 	adrp	x2, 92000 <BitFont+0xbc0>
   849fc:	b94b0042 	ldr	w2, [x2, #2816]
   84a00:	121c6c21 	and	w1, w1, #0xfffffff0
   84a04:	2a010003 	orr	w3, w0, w1
   84a08:	52971000 	mov	w0, #0xb880                	// #47232
   84a0c:	0b000041 	add	w1, w2, w0
   84a10:	b9403820 	ldr	w0, [x1, #56]
   84a14:	37ffffe0 	tbnz	w0, #31, 84a10 <mailbox_write+0x20>
   84a18:	52800020 	mov	w0, #0x1                   	// #1
   84a1c:	b9002023 	str	w3, [x1, #32]
   84a20:	d65f03c0 	ret
   84a24:	52800000 	mov	w0, #0x0                   	// #0
   84a28:	d65f03c0 	ret
   84a2c:	d503201f 	nop

0000000000084a30 <mailbox_read>:
   84a30:	7100241f 	cmp	w0, #0x9
   84a34:	540001a8 	b.hi	84a68 <mailbox_read+0x38>  // b.pmore
   84a38:	d0000061 	adrp	x1, 92000 <BitFont+0xbc0>
   84a3c:	b94b0022 	ldr	w2, [x1, #2816]
   84a40:	52971001 	mov	w1, #0xb880                	// #47232
   84a44:	0b010042 	add	w2, w2, w1
   84a48:	b9401841 	ldr	w1, [x2, #24]
   84a4c:	37f7ffe1 	tbnz	w1, #30, 84a48 <mailbox_read+0x18>
   84a50:	b9400041 	ldr	w1, [x2]
   84a54:	12000c23 	and	w3, w1, #0xf
   84a58:	6b03001f 	cmp	w0, w3
   84a5c:	54ffff61 	b.ne	84a48 <mailbox_read+0x18>  // b.any
   84a60:	121c6c20 	and	w0, w1, #0xfffffff0
   84a64:	d65f03c0 	ret
   84a68:	529bd5a0 	mov	w0, #0xdead                	// #57005
   84a6c:	72bfdda0 	movk	w0, #0xfeed, lsl #16
   84a70:	d65f03c0 	ret
   84a74:	d503201f 	nop
   84a78:	d503201f 	nop
   84a7c:	d503201f 	nop

0000000000084a80 <mailbox_tag_message>:
   84a80:	a9b07bfd 	stp	x29, x30, [sp, #-256]!
   84a84:	128005e8 	mov	w8, #0xffffffd0            	// #-48
   84a88:	910003fd 	mov	x29, sp
   84a8c:	a90153f3 	stp	x19, x20, [sp, #16]
   84a90:	12001c33 	and	w19, w1, #0xff
   84a94:	11000a61 	add	w1, w19, #0x2
   84a98:	910143f4 	add	x20, sp, #0x50
   84a9c:	11000e69 	add	w9, w19, #0x3
   84aa0:	93407c21 	sxtw	x1, w1
   84aa4:	f90013f5 	str	x21, [sp, #32]
   84aa8:	a90d0fe2 	stp	x2, x3, [sp, #208]
   84aac:	910343ea 	add	x10, sp, #0xd0
   84ab0:	531e7529 	lsl	w9, w9, #2
   84ab4:	a90e17e4 	stp	x4, x5, [sp, #224]
   84ab8:	910403eb 	add	x11, sp, #0x100
   84abc:	aa0003f5 	mov	x21, x0
   84ac0:	a90f1fe6 	stp	x6, x7, [sp, #240]
   84ac4:	b8217a9f 	str	wzr, [x20, x1, lsl #2]
   84ac8:	a9032feb 	stp	x11, x11, [sp, #48]
   84acc:	f90023ea 	str	x10, [sp, #64]
   84ad0:	29097fe8 	stp	w8, wzr, [sp, #72]
   84ad4:	290a7fe9 	stp	w9, wzr, [sp, #80]
   84ad8:	340002d3 	cbz	w19, 84b30 <mailbox_tag_message+0xb0>
   84adc:	2a0803e4 	mov	w4, w8
   84ae0:	aa0b03e2 	mov	x2, x11
   84ae4:	d2800023 	mov	x3, #0x1                   	// #1
   84ae8:	11002080 	add	w0, w4, #0x8
   84aec:	37f80584 	tbnz	w4, #31, 84b9c <mailbox_tag_message+0x11c>
   84af0:	d37ef465 	lsl	x5, x3, #2
   84af4:	b840b441 	ldr	w1, [x2], #11
   84af8:	8b050280 	add	x0, x20, x5
   84afc:	6b03027f 	cmp	w19, w3
   84b00:	927df042 	and	x2, x2, #0xfffffffffffffff8
   84b04:	b9000401 	str	w1, [x0, #4]
   84b08:	5400014d 	b.le	84b30 <mailbox_tag_message+0xb0>
   84b0c:	aa0203e4 	mov	x4, x2
   84b10:	8b050281 	add	x1, x20, x5
   84b14:	91000463 	add	x3, x3, #0x1
   84b18:	91002042 	add	x2, x2, #0x8
   84b1c:	6b03027f 	cmp	w19, w3
   84b20:	b9400080 	ldr	w0, [x4]
   84b24:	d37ef465 	lsl	x5, x3, #2
   84b28:	b9000820 	str	w0, [x1, #8]
   84b2c:	54ffff0c 	b.gt	84b0c <mailbox_tag_message+0x8c>
   84b30:	aa1403e0 	mov	x0, x20
   84b34:	97fff13c 	bl	81024 <ARMaddrToGPUaddr>
   84b38:	d0000061 	adrp	x1, 92000 <BitFont+0xbc0>
   84b3c:	b94b0023 	ldr	w3, [x1, #2816]
   84b40:	121c6c00 	and	w0, w0, #0xfffffff0
   84b44:	52971001 	mov	w1, #0xb880                	// #47232
   84b48:	321d0000 	orr	w0, w0, #0x8
   84b4c:	0b010063 	add	w3, w3, w1
   84b50:	b9403862 	ldr	w2, [x3, #56]
   84b54:	37ffffe2 	tbnz	w2, #31, 84b50 <mailbox_tag_message+0xd0>
   84b58:	b9002060 	str	w0, [x3, #32]
   84b5c:	d503201f 	nop
   84b60:	b9401862 	ldr	w2, [x3, #24]
   84b64:	37f7ffe2 	tbnz	w2, #30, 84b60 <mailbox_tag_message+0xe0>
   84b68:	b9400062 	ldr	w2, [x3]
   84b6c:	12000c42 	and	w2, w2, #0xf
   84b70:	7100205f 	cmp	w2, #0x8
   84b74:	54ffff61 	b.ne	84b60 <mailbox_tag_message+0xe0>  // b.any
   84b78:	b94057e2 	ldr	w2, [sp, #84]
   84b7c:	52b00001 	mov	w1, #0x80000000            	// #-2147483648
   84b80:	52800000 	mov	w0, #0x0                   	// #0
   84b84:	6b01005f 	cmp	w2, w1
   84b88:	54000280 	b.eq	84bd8 <mailbox_tag_message+0x158>  // b.none
   84b8c:	a94153f3 	ldp	x19, x20, [sp, #16]
   84b90:	f94013f5 	ldr	x21, [sp, #32]
   84b94:	a8d07bfd 	ldp	x29, x30, [sp], #256
   84b98:	d65f03c0 	ret
   84b9c:	7100001f 	cmp	w0, #0x0
   84ba0:	5400016d 	b.le	84bcc <mailbox_tag_message+0x14c>
   84ba4:	aa0203e4 	mov	x4, x2
   84ba8:	91002042 	add	x2, x2, #0x8
   84bac:	8b030a81 	add	x1, x20, x3, lsl #2
   84bb0:	b9400085 	ldr	w5, [x4]
   84bb4:	6b03027f 	cmp	w19, w3
   84bb8:	2a0003e4 	mov	w4, w0
   84bbc:	91000463 	add	x3, x3, #0x1
   84bc0:	b9000425 	str	w5, [x1, #4]
   84bc4:	54fff92c 	b.gt	84ae8 <mailbox_tag_message+0x68>
   84bc8:	17ffffda 	b	84b30 <mailbox_tag_message+0xb0>
   84bcc:	910403e1 	add	x1, sp, #0x100
   84bd0:	8b24c024 	add	x4, x1, w4, sxtw
   84bd4:	17fffff6 	b	84bac <mailbox_tag_message+0x12c>
   84bd8:	b4000155 	cbz	x21, 84c00 <mailbox_tag_message+0x180>
   84bdc:	34000133 	cbz	w19, 84c00 <mailbox_tag_message+0x180>
   84be0:	d2800000 	mov	x0, #0x0                   	// #0
   84be4:	d503201f 	nop
   84be8:	8b000a81 	add	x1, x20, x0, lsl #2
   84bec:	b9400821 	ldr	w1, [x1, #8]
   84bf0:	b8207aa1 	str	w1, [x21, x0, lsl #2]
   84bf4:	91000400 	add	x0, x0, #0x1
   84bf8:	6b00027f 	cmp	w19, w0
   84bfc:	54ffff6c 	b.gt	84be8 <mailbox_tag_message+0x168>
   84c00:	a94153f3 	ldp	x19, x20, [sp, #16]
   84c04:	52800020 	mov	w0, #0x1                   	// #1
   84c08:	f94013f5 	ldr	x21, [sp, #32]
   84c0c:	a8d07bfd 	ldp	x29, x30, [sp], #256
   84c10:	d65f03c0 	ret
   84c14:	d503201f 	nop
   84c18:	d503201f 	nop
   84c1c:	d503201f 	nop

0000000000084c20 <ClearTimerIrq>:
   84c20:	d0000060 	adrp	x0, 92000 <BitFont+0xbc0>
   84c24:	b94b0000 	ldr	w0, [x0, #2816]
   84c28:	52968002 	mov	w2, #0xb400                	// #46080
   84c2c:	52800021 	mov	w1, #0x1                   	// #1
   84c30:	0b020000 	add	w0, w0, w2
   84c34:	b9000c01 	str	w1, [x0, #12]
   84c38:	d65f03c0 	ret
   84c3c:	d503201f 	nop

0000000000084c40 <TimerIrqSetup>:
   84c40:	a9ba7bfd 	stp	x29, x30, [sp, #-96]!
   84c44:	52800104 	mov	w4, #0x8                   	// #8
   84c48:	52800006 	mov	w6, #0x0                   	// #0
   84c4c:	910003fd 	mov	x29, sp
   84c50:	f9001bf7 	str	x23, [sp, #48]
   84c54:	d0000077 	adrp	x23, 92000 <BitFont+0xbc0>
   84c58:	b94b02e3 	ldr	w3, [x23, #2816]
   84c5c:	52800085 	mov	w5, #0x4                   	// #4
   84c60:	a9025bf5 	stp	x21, x22, [sp, #32]
   84c64:	52968016 	mov	w22, #0xb400                	// #46080
   84c68:	0b160063 	add	w3, w3, w22
   84c6c:	a90153f3 	stp	x19, x20, [sp, #16]
   84c70:	2a0003f4 	mov	w20, w0
   84c74:	aa0103f5 	mov	x21, x1
   84c78:	a904ffff 	stp	xzr, xzr, [sp, #72]
   84c7c:	528000a1 	mov	w1, #0x5                   	// #5
   84c80:	52800042 	mov	w2, #0x2                   	// #2
   84c84:	72a00062 	movk	w2, #0x3, lsl #16
   84c88:	b9005bff 	str	wzr, [sp, #88]
   84c8c:	b9400860 	ldr	w0, [x3, #8]
   84c90:	12187800 	and	w0, w0, #0xffffff7f
   84c94:	b9000860 	str	w0, [x3, #8]
   84c98:	2a0403e3 	mov	w3, w4
   84c9c:	910123e0 	add	x0, sp, #0x48
   84ca0:	97fffdc0 	bl	843a0 <mailbox_tag_message.constprop.2>
   84ca4:	b9405bf3 	ldr	w19, [sp, #88]
   84ca8:	5289ba61 	mov	w1, #0x4dd3                	// #19923
   84cac:	72a20c41 	movk	w1, #0x1062, lsl #16
   84cb0:	aa1503e0 	mov	x0, x21
   84cb4:	9ba17e73 	umull	x19, w19, w1
   84cb8:	97fff0e2 	bl	81040 <setIrqFuncAddress>
   84cbc:	b94b02e1 	ldr	w1, [x23, #2816]
   84cc0:	d2869b62 	mov	x2, #0x34db                	// #13531
   84cc4:	f2baf6c2 	movk	x2, #0xd7b6, lsl #16
   84cc8:	52964003 	mov	w3, #0xb200                	// #45568
   84ccc:	d364fe73 	lsr	x19, x19, #36
   84cd0:	0b030023 	add	w3, w1, w3
   84cd4:	f2dbd042 	movk	x2, #0xde82, lsl #32
   84cd8:	f2e86362 	movk	x2, #0x431b, lsl #48
   84cdc:	0b160021 	add	w1, w1, w22
   84ce0:	2a0003e0 	mov	w0, w0
   84ce4:	9bb47e73 	umull	x19, w19, w20
   84ce8:	9bc27e73 	umulh	x19, x19, x2
   84cec:	b9401862 	ldr	w2, [x3, #24]
   84cf0:	32000042 	orr	w2, w2, #0x1
   84cf4:	b9001862 	str	w2, [x3, #24]
   84cf8:	d352fe73 	lsr	x19, x19, #18
   84cfc:	b9000033 	str	w19, [x1]
   84d00:	b9400822 	ldr	w2, [x1, #8]
   84d04:	321f0042 	orr	w2, w2, #0x2
   84d08:	b9000822 	str	w2, [x1, #8]
   84d0c:	b9400822 	ldr	w2, [x1, #8]
   84d10:	121c7442 	and	w2, w2, #0xfffffff3
   84d14:	b9000822 	str	w2, [x1, #8]
   84d18:	b9400822 	ldr	w2, [x1, #8]
   84d1c:	321b0042 	orr	w2, w2, #0x20
   84d20:	b9000822 	str	w2, [x1, #8]
   84d24:	b9400822 	ldr	w2, [x1, #8]
   84d28:	32190042 	orr	w2, w2, #0x80
   84d2c:	b9000822 	str	w2, [x1, #8]
   84d30:	a94153f3 	ldp	x19, x20, [sp, #16]
   84d34:	a9425bf5 	ldp	x21, x22, [sp, #32]
   84d38:	f9401bf7 	ldr	x23, [sp, #48]
   84d3c:	a8c67bfd 	ldp	x29, x30, [sp], #96
   84d40:	d65f03c0 	ret
   84d44:	d503201f 	nop
   84d48:	d503201f 	nop
   84d4c:	d503201f 	nop

0000000000084d50 <set_Activity_LED>:
   84d50:	a9bc7bfd 	stp	x29, x30, [sp, #-64]!
   84d54:	910003fd 	mov	x29, sp
   84d58:	a90153f3 	stp	x19, x20, [sp, #16]
   84d5c:	f0000061 	adrp	x1, 93000 <_impure_data+0x148>
   84d60:	91224033 	add	x19, x1, #0x890
   84d64:	12001c14 	and	w20, w0, #0xff
   84d68:	39624020 	ldrb	w0, [x1, #2192]
   84d6c:	36000160 	tbz	w0, #0, 84d98 <set_Activity_LED+0x48>
   84d70:	39400660 	ldrb	w0, [x19, #1]
   84d74:	d0000061 	adrp	x1, 92000 <BitFont+0xbc0>
   84d78:	b94b2025 	ldr	w5, [x1, #2848]
   84d7c:	370008a0 	tbnz	w0, #0, 84e90 <set_Activity_LED+0x140>
   84d80:	7100d4bf 	cmp	w5, #0x35
   84d84:	540003c9 	b.ls	84dfc <set_Activity_LED+0xac>  // b.plast
   84d88:	a94153f3 	ldp	x19, x20, [sp, #16]
   84d8c:	52800020 	mov	w0, #0x1                   	// #1
   84d90:	a8c47bfd 	ldp	x29, x30, [sp], #64
   84d94:	d65f03c0 	ret
   84d98:	52800083 	mov	w3, #0x4                   	// #4
   84d9c:	f90013f5 	str	x21, [sp, #32]
   84da0:	52800035 	mov	w21, #0x1                   	// #1
   84da4:	39224035 	strb	w21, [x1, #2192]
   84da8:	2a0303e1 	mov	w1, w3
   84dac:	9100c3e0 	add	x0, sp, #0x30
   84db0:	52800042 	mov	w2, #0x2                   	// #2
   84db4:	72a00022 	movk	w2, #0x1, lsl #16
   84db8:	52800005 	mov	w5, #0x0                   	// #0
   84dbc:	52800004 	mov	w4, #0x0                   	// #0
   84dc0:	97fffd40 	bl	842c0 <mailbox_tag_message.constprop.1>
   84dc4:	2a0003e1 	mov	w1, w0
   84dc8:	12001c00 	and	w0, w0, #0xff
   84dcc:	36000761 	tbz	w1, #0, 84eb8 <set_Activity_LED+0x168>
   84dd0:	b9403fe1 	ldr	w1, [sp, #60]
   84dd4:	12005c20 	and	w0, w1, #0xffffff
   84dd8:	51000802 	sub	w2, w0, #0x2
   84ddc:	7100345f 	cmp	w2, #0xd
   84de0:	54000308 	b.hi	84e40 <set_Activity_LED+0xf0>  // b.pmore
   84de4:	f94013f5 	ldr	x21, [sp, #32]
   84de8:	d0000061 	adrp	x1, 92000 <BitFont+0xbc0>
   84dec:	52800200 	mov	w0, #0x10                  	// #16
   84df0:	2a0003e5 	mov	w5, w0
   84df4:	b90b2020 	str	w0, [x1, #2848]
   84df8:	3900067f 	strb	wzr, [x19, #1]
   84dfc:	d0000060 	adrp	x0, 92000 <BitFont+0xbc0>
   84e00:	b94b0000 	ldr	w0, [x0, #2816]
   84e04:	52800022 	mov	w2, #0x1                   	// #1
   84e08:	53057ca1 	lsr	w1, w5, #5
   84e0c:	11480000 	add	w0, w0, #0x200, lsl #12
   84e10:	1ac52042 	lsl	w2, w2, w5
   84e14:	360000d4 	tbz	w20, #0, 84e2c <set_Activity_LED+0xdc>
   84e18:	11001c21 	add	w1, w1, #0x7
   84e1c:	d37e6c21 	ubfiz	x1, x1, #2, #28
   84e20:	8b010000 	add	x0, x0, x1
   84e24:	b9000002 	str	w2, [x0]
   84e28:	17ffffd8 	b	84d88 <set_Activity_LED+0x38>
   84e2c:	11002821 	add	w1, w1, #0xa
   84e30:	d37e6c21 	ubfiz	x1, x1, #2, #28
   84e34:	8b010000 	add	x0, x0, x1
   84e38:	b9000002 	str	w2, [x0]
   84e3c:	17ffffd3 	b	84d88 <set_Activity_LED+0x38>
   84e40:	52841022 	mov	w2, #0x2081                	// #8321
   84e44:	72a01402 	movk	w2, #0xa0, lsl #16
   84e48:	6b02001f 	cmp	w0, w2
   84e4c:	540003e9 	b.ls	84ec8 <set_Activity_LED+0x178>  // b.plast
   84e50:	11000443 	add	w3, w2, #0x1
   84e54:	12bfe044 	mov	w4, #0xfdffff              	// #16646143
   84e58:	0a040021 	and	w1, w1, w4
   84e5c:	11007c42 	add	w2, w2, #0x1f
   84e60:	6b03003f 	cmp	w1, w3
   84e64:	52841041 	mov	w1, #0x2082                	// #8322
   84e68:	72a01461 	movk	w1, #0xa3, lsl #16
   84e6c:	7a421004 	ccmp	w0, w2, #0x4, ne	// ne = any
   84e70:	7a411004 	ccmp	w0, w1, #0x4, ne	// ne = any
   84e74:	54000381 	b.ne	84ee4 <set_Activity_LED+0x194>  // b.any
   84e78:	d0000061 	adrp	x1, 92000 <BitFont+0xbc0>
   84e7c:	39000675 	strb	w21, [x19, #1]
   84e80:	f94013f5 	ldr	x21, [sp, #32]
   84e84:	52801040 	mov	w0, #0x82                  	// #130
   84e88:	2a0003e5 	mov	w5, w0
   84e8c:	b90b2020 	str	w0, [x1, #2848]
   84e90:	2a1403e6 	mov	w6, w20
   84e94:	52800104 	mov	w4, #0x8                   	// #8
   84e98:	a94153f3 	ldp	x19, x20, [sp, #16]
   84e9c:	2a0403e3 	mov	w3, w4
   84ea0:	a8c47bfd 	ldp	x29, x30, [sp], #64
   84ea4:	52900822 	mov	w2, #0x8041                	// #32833
   84ea8:	72a00062 	movk	w2, #0x3, lsl #16
   84eac:	528000a1 	mov	w1, #0x5                   	// #5
   84eb0:	d2800000 	mov	x0, #0x0                   	// #0
   84eb4:	17fffd3b 	b	843a0 <mailbox_tag_message.constprop.2>
   84eb8:	a94153f3 	ldp	x19, x20, [sp, #16]
   84ebc:	f94013f5 	ldr	x21, [sp, #32]
   84ec0:	a8c47bfd 	ldp	x29, x30, [sp], #64
   84ec4:	d65f03c0 	ret
   84ec8:	d0000061 	adrp	x1, 92000 <BitFont+0xbc0>
   84ecc:	528005e0 	mov	w0, #0x2f                  	// #47
   84ed0:	f94013f5 	ldr	x21, [sp, #32]
   84ed4:	2a0003e5 	mov	w5, w0
   84ed8:	b90b2020 	str	w0, [x1, #2848]
   84edc:	3900067f 	strb	wzr, [x19, #1]
   84ee0:	17ffffc7 	b	84dfc <set_Activity_LED+0xac>
   84ee4:	d0000061 	adrp	x1, 92000 <BitFont+0xbc0>
   84ee8:	528003a0 	mov	w0, #0x1d                  	// #29
   84eec:	f94013f5 	ldr	x21, [sp, #32]
   84ef0:	2a0003e5 	mov	w5, w0
   84ef4:	b90b2020 	str	w0, [x1, #2848]
   84ef8:	3900067f 	strb	wzr, [x19, #1]
   84efc:	17ffffc0 	b	84dfc <set_Activity_LED+0xac>

0000000000084f00 <ARM_setmaxspeed>:
   84f00:	a9bc7bfd 	stp	x29, x30, [sp, #-64]!
   84f04:	52800104 	mov	w4, #0x8                   	// #8
   84f08:	52800082 	mov	w2, #0x4                   	// #4
   84f0c:	72a00062 	movk	w2, #0x3, lsl #16
   84f10:	910003fd 	mov	x29, sp
   84f14:	2a0403e3 	mov	w3, w4
   84f18:	52800006 	mov	w6, #0x0                   	// #0
   84f1c:	52800065 	mov	w5, #0x3                   	// #3
   84f20:	528000a1 	mov	w1, #0x5                   	// #5
   84f24:	a90153f3 	stp	x19, x20, [sp, #16]
   84f28:	aa0003f3 	mov	x19, x0
   84f2c:	9100a3e0 	add	x0, sp, #0x28
   84f30:	a902ffff 	stp	xzr, xzr, [sp, #40]
   84f34:	b9003bff 	str	wzr, [sp, #56]
   84f38:	97fffd1a 	bl	843a0 <mailbox_tag_message.constprop.2>
   84f3c:	370000c0 	tbnz	w0, #0, 84f54 <ARM_setmaxspeed+0x54>
   84f40:	52800014 	mov	w20, #0x0                   	// #0
   84f44:	2a1403e0 	mov	w0, w20
   84f48:	a94153f3 	ldp	x19, x20, [sp, #16]
   84f4c:	a8c47bfd 	ldp	x29, x30, [sp], #64
   84f50:	d65f03c0 	ret
   84f54:	b9403be6 	ldr	w6, [sp, #56]
   84f58:	52800104 	mov	w4, #0x8                   	// #8
   84f5c:	9100a3e0 	add	x0, sp, #0x28
   84f60:	2a0403e3 	mov	w3, w4
   84f64:	52900042 	mov	w2, #0x8002                	// #32770
   84f68:	72a00062 	movk	w2, #0x3, lsl #16
   84f6c:	52800065 	mov	w5, #0x3                   	// #3
   84f70:	528000a1 	mov	w1, #0x5                   	// #5
   84f74:	97fffd0b 	bl	843a0 <mailbox_tag_message.constprop.2>
   84f78:	12001c14 	and	w20, w0, #0xff
   84f7c:	3607fe20 	tbz	w0, #0, 84f40 <ARM_setmaxspeed+0x40>
   84f80:	b4fffe33 	cbz	x19, 84f44 <ARM_setmaxspeed+0x44>
   84f84:	b9403be1 	ldr	w1, [sp, #56]
   84f88:	90000060 	adrp	x0, 90000 <__sflush_r+0x40>
   84f8c:	91146000 	add	x0, x0, #0x518
   84f90:	d63f0260 	blr	x19
   84f94:	17ffffec 	b	84f44 <ARM_setmaxspeed+0x44>
   84f98:	d503201f 	nop
   84f9c:	d503201f 	nop

0000000000084fa0 <displaySmartStart>:
   84fa0:	b4000440 	cbz	x0, 85028 <displaySmartStart+0x88>
   84fa4:	d10083ff 	sub	sp, sp, #0x20
   84fa8:	aa0003e8 	mov	x8, x0
   84fac:	d0000060 	adrp	x0, 92000 <BitFont+0xbc0>
   84fb0:	912c7001 	add	x1, x0, #0xb1c
   84fb4:	d0000065 	adrp	x5, 92000 <BitFont+0xbc0>
   84fb8:	90000069 	adrp	x9, 90000 <__sflush_r+0x40>
   84fbc:	9114e129 	add	x9, x9, #0x538
   84fc0:	a9017bfd 	stp	x29, x30, [sp, #16]
   84fc4:	910043fd 	add	x29, sp, #0x10
   84fc8:	d0000062 	adrp	x2, 92000 <BitFont+0xbc0>
   84fcc:	b94b1844 	ldr	w4, [x2, #2840]
   84fd0:	d0000066 	adrp	x6, 92000 <BitFont+0xbc0>
   84fd4:	b94b14c6 	ldr	w6, [x6, #2836]
   84fd8:	396c7003 	ldrb	w3, [x0, #2844]
   84fdc:	7100009f 	cmp	w4, #0x0
   84fe0:	396c7402 	ldrb	w2, [x0, #2845]
   84fe4:	90000060 	adrp	x0, 90000 <__sflush_r+0x40>
   84fe8:	91150000 	add	x0, x0, #0x540
   84fec:	39400821 	ldrb	w1, [x1, #2]
   84ff0:	b94b0ca7 	ldr	w7, [x5, #2828]
   84ff4:	d3441085 	ubfx	x5, x4, #4, #1
   84ff8:	9a89a000 	csel	x0, x0, x9, ge	// ge = tcont
   84ffc:	110004a5 	add	w5, w5, #0x1
   85000:	f90003e0 	str	x0, [sp]
   85004:	12000c84 	and	w4, w4, #0xf
   85008:	531b68a5 	lsl	w5, w5, #5
   8500c:	d3443cc6 	ubfx	x6, x6, #4, #12
   85010:	f0000040 	adrp	x0, 90000 <__sflush_r+0x40>
   85014:	91152000 	add	x0, x0, #0x548
   85018:	d63f0100 	blr	x8
   8501c:	a9417bfd 	ldp	x29, x30, [sp, #16]
   85020:	910083ff 	add	sp, sp, #0x20
   85024:	d65f03c0 	ret
   85028:	d65f03c0 	ret
   8502c:	d503201f 	nop

0000000000085030 <Embedded_Console_WriteChar>:
   85030:	12001c01 	and	w1, w0, #0xff
   85034:	7100283f 	cmp	w1, #0xa
   85038:	54000380 	b.eq	850a8 <Embedded_Console_WriteChar+0x78>  // b.none
   8503c:	7100343f 	cmp	w1, #0xd
   85040:	540002e0 	b.eq	8509c <Embedded_Console_WriteChar+0x6c>  // b.none
   85044:	7100243f 	cmp	w1, #0x9
   85048:	540003c0 	b.eq	850c0 <Embedded_Console_WriteChar+0x90>  // b.none
   8504c:	a9be7bfd 	stp	x29, x30, [sp, #-32]!
   85050:	910003fd 	mov	x29, sp
   85054:	f9000bf3 	str	x19, [sp, #16]
   85058:	d0000073 	adrp	x19, 93000 <_impure_data+0x148>
   8505c:	91224273 	add	x19, x19, #0x890
   85060:	91001273 	add	x19, x19, #0x4
   85064:	aa1303e0 	mov	x0, x19
   85068:	29440e64 	ldp	w4, w3, [x19, #32]
   8506c:	294a8a65 	ldp	w5, w2, [x19, #84]
   85070:	531d7084 	lsl	w4, w4, #3
   85074:	531c6c63 	lsl	w3, w3, #4
   85078:	29030e64 	stp	w4, w3, [x19, #24]
   8507c:	aa0280a2 	orr	x2, x5, x2, lsl #32
   85080:	d63f0040 	blr	x2
   85084:	b9402260 	ldr	w0, [x19, #32]
   85088:	11000400 	add	w0, w0, #0x1
   8508c:	b9002260 	str	w0, [x19, #32]
   85090:	f9400bf3 	ldr	x19, [sp, #16]
   85094:	a8c27bfd 	ldp	x29, x30, [sp], #32
   85098:	d65f03c0 	ret
   8509c:	d0000060 	adrp	x0, 93000 <_impure_data+0x148>
   850a0:	b908b41f 	str	wzr, [x0, #2228]
   850a4:	d65f03c0 	ret
   850a8:	d0000060 	adrp	x0, 93000 <_impure_data+0x148>
   850ac:	91224000 	add	x0, x0, #0x890
   850b0:	b9402801 	ldr	w1, [x0, #40]
   850b4:	11000421 	add	w1, w1, #0x1
   850b8:	2904841f 	stp	wzr, w1, [x0, #36]
   850bc:	d65f03c0 	ret
   850c0:	d0000061 	adrp	x1, 93000 <_impure_data+0x148>
   850c4:	91224021 	add	x1, x1, #0x890
   850c8:	b9402420 	ldr	w0, [x1, #36]
   850cc:	11001400 	add	w0, w0, #0x5
   850d0:	6b0003e2 	negs	w2, w0
   850d4:	12000403 	and	w3, w0, #0x3
   850d8:	12000442 	and	w2, w2, #0x3
   850dc:	5a824462 	csneg	w2, w3, w2, mi	// mi = first
   850e0:	4b020000 	sub	w0, w0, w2
   850e4:	b9002420 	str	w0, [x1, #36]
   850e8:	d65f03c0 	ret
   850ec:	d503201f 	nop

00000000000850f0 <WriteText>:
   850f0:	b4000762 	cbz	x2, 851dc <WriteText+0xec>
   850f4:	a9bd7bfd 	stp	x29, x30, [sp, #-48]!
   850f8:	2a0003e3 	mov	w3, w0
   850fc:	aa0203e0 	mov	x0, x2
   85100:	910003fd 	mov	x29, sp
   85104:	a9025bf5 	stp	x21, x22, [sp, #32]
   85108:	d0000075 	adrp	x21, 93000 <_impure_data+0x148>
   8510c:	912242b5 	add	x21, x21, #0x890
   85110:	a90153f3 	stp	x19, x20, [sp, #16]
   85114:	aa0203f3 	mov	x19, x2
   85118:	290486a3 	stp	w3, w1, [x21, #36]
   8511c:	94001c89 	bl	8c340 <strlen>
   85120:	b40003c0 	cbz	x0, 85198 <WriteText+0xa8>
   85124:	8b000276 	add	x22, x19, x0
   85128:	14000013 	b	85174 <WriteText+0x84>
   8512c:	910012a2 	add	x2, x21, #0x4
   85130:	7100243f 	cmp	w1, #0x9
   85134:	54000420 	b.eq	851b8 <WriteText+0xc8>  // b.none
   85138:	29448ea4 	ldp	w4, w3, [x21, #36]
   8513c:	910012b4 	add	x20, x21, #0x4
   85140:	294b0aa5 	ldp	w5, w2, [x21, #88]
   85144:	aa1403e0 	mov	x0, x20
   85148:	531d7084 	lsl	w4, w4, #3
   8514c:	531c6c63 	lsl	w3, w3, #4
   85150:	29038ea4 	stp	w4, w3, [x21, #28]
   85154:	aa0280a2 	orr	x2, x5, x2, lsl #32
   85158:	d63f0040 	blr	x2
   8515c:	b94026a0 	ldr	w0, [x21, #36]
   85160:	11000400 	add	w0, w0, #0x1
   85164:	b90026a0 	str	w0, [x21, #36]
   85168:	91000673 	add	x19, x19, #0x1
   8516c:	eb16027f 	cmp	x19, x22
   85170:	54000140 	b.eq	85198 <WriteText+0xa8>  // b.none
   85174:	39400261 	ldrb	w1, [x19]
   85178:	7100283f 	cmp	w1, #0xa
   8517c:	54000160 	b.eq	851a8 <WriteText+0xb8>  // b.none
   85180:	7100343f 	cmp	w1, #0xd
   85184:	54fffd41 	b.ne	8512c <WriteText+0x3c>  // b.any
   85188:	b90026bf 	str	wzr, [x21, #36]
   8518c:	91000673 	add	x19, x19, #0x1
   85190:	eb16027f 	cmp	x19, x22
   85194:	54ffff01 	b.ne	85174 <WriteText+0x84>  // b.any
   85198:	a94153f3 	ldp	x19, x20, [sp, #16]
   8519c:	a9425bf5 	ldp	x21, x22, [sp, #32]
   851a0:	a8c37bfd 	ldp	x29, x30, [sp], #48
   851a4:	d65f03c0 	ret
   851a8:	b9402aa1 	ldr	w1, [x21, #40]
   851ac:	11000421 	add	w1, w1, #0x1
   851b0:	290486bf 	stp	wzr, w1, [x21, #36]
   851b4:	17ffffed 	b	85168 <WriteText+0x78>
   851b8:	b9402040 	ldr	w0, [x2, #32]
   851bc:	11001400 	add	w0, w0, #0x5
   851c0:	6b0003e1 	negs	w1, w0
   851c4:	12000403 	and	w3, w0, #0x3
   851c8:	12000421 	and	w1, w1, #0x3
   851cc:	5a814461 	csneg	w1, w3, w1, mi	// mi = first
   851d0:	4b010000 	sub	w0, w0, w1
   851d4:	b9002040 	str	w0, [x2, #32]
   851d8:	17ffffe4 	b	85168 <WriteText+0x78>
   851dc:	d65f03c0 	ret

00000000000851e0 <SetDCPenColor>:
   851e0:	aa0003e2 	mov	x2, x0
   851e4:	52800000 	mov	w0, #0x0                   	// #0
   851e8:	b4000062 	cbz	x2, 851f4 <SetDCPenColor+0x14>
   851ec:	b9402840 	ldr	w0, [x2, #40]
   851f0:	b9002841 	str	w1, [x2, #40]
   851f4:	d65f03c0 	ret
   851f8:	d503201f 	nop
   851fc:	d503201f 	nop

0000000000085200 <SetDCBrushColor>:
   85200:	aa0003e2 	mov	x2, x0
   85204:	52800000 	mov	w0, #0x0                   	// #0
   85208:	b4000062 	cbz	x2, 85214 <SetDCBrushColor+0x14>
   8520c:	b9403040 	ldr	w0, [x2, #48]
   85210:	b9003041 	str	w1, [x2, #48]
   85214:	d65f03c0 	ret
   85218:	d503201f 	nop
   8521c:	d503201f 	nop

0000000000085220 <MoveToEx>:
   85220:	aa0003e4 	mov	x4, x0
   85224:	52800000 	mov	w0, #0x0                   	// #0
   85228:	b5000044 	cbnz	x4, 85230 <MoveToEx+0x10>
   8522c:	d65f03c0 	ret
   85230:	b40000a3 	cbz	x3, 85244 <MoveToEx+0x24>
   85234:	b9401880 	ldr	w0, [x4, #24]
   85238:	b9000060 	str	w0, [x3]
   8523c:	b9401c80 	ldr	w0, [x4, #28]
   85240:	b9000460 	str	w0, [x3, #4]
   85244:	52800020 	mov	w0, #0x1                   	// #1
   85248:	29030881 	stp	w1, w2, [x4, #24]
   8524c:	d65f03c0 	ret

0000000000085250 <LineTo>:
   85250:	b5000060 	cbnz	x0, 8525c <LineTo+0xc>
   85254:	52800000 	mov	w0, #0x0                   	// #0
   85258:	d65f03c0 	ret
   8525c:	a9bf7bfd 	stp	x29, x30, [sp, #-16]!
   85260:	910003fd 	mov	x29, sp
   85264:	29430c04 	ldp	w4, w3, [x0, #24]
   85268:	6b01009f 	cmp	w4, w1
   8526c:	540001cc 	b.gt	852a4 <LineTo+0x54>
   85270:	4b040021 	sub	w1, w1, w4
   85274:	6b03005f 	cmp	w2, w3
   85278:	540002ea 	b.ge	852d4 <LineTo+0x84>  // b.tcont
   8527c:	4b020065 	sub	w5, w3, w2
   85280:	12800002 	mov	w2, #0xffffffff            	// #-1
   85284:	350003e1 	cbnz	w1, 85300 <LineTo+0xb0>
   85288:	29478c04 	ldp	w4, w3, [x0, #60]
   8528c:	2a0503e1 	mov	w1, w5
   85290:	aa038083 	orr	x3, x4, x3, lsl #32
   85294:	d63f0060 	blr	x3
   85298:	52800020 	mov	w0, #0x1                   	// #1
   8529c:	a8c17bfd 	ldp	x29, x30, [sp], #16
   852a0:	d65f03c0 	ret
   852a4:	4b010081 	sub	w1, w4, w1
   852a8:	6b03005f 	cmp	w2, w3
   852ac:	5400024a 	b.ge	852f4 <LineTo+0xa4>  // b.tcont
   852b0:	4b020065 	sub	w5, w3, w2
   852b4:	12800004 	mov	w4, #0xffffffff            	// #-1
   852b8:	2a0403e2 	mov	w2, w4
   852bc:	29499807 	ldp	w7, w6, [x0, #76]
   852c0:	2a0203e3 	mov	w3, w2
   852c4:	2a0503e2 	mov	w2, w5
   852c8:	aa0680e5 	orr	x5, x7, x6, lsl #32
   852cc:	d63f00a0 	blr	x5
   852d0:	17fffff2 	b	85298 <LineTo+0x48>
   852d4:	4b030045 	sub	w5, w2, w3
   852d8:	52800022 	mov	w2, #0x1                   	// #1
   852dc:	34fffd61 	cbz	w1, 85288 <LineTo+0x38>
   852e0:	35000165 	cbnz	w5, 8530c <LineTo+0xbc>
   852e4:	29488c04 	ldp	w4, w3, [x0, #68]
   852e8:	aa038083 	orr	x3, x4, x3, lsl #32
   852ec:	d63f0060 	blr	x3
   852f0:	17ffffea 	b	85298 <LineTo+0x48>
   852f4:	4b030045 	sub	w5, w2, w3
   852f8:	12800002 	mov	w2, #0xffffffff            	// #-1
   852fc:	17fffff9 	b	852e0 <LineTo+0x90>
   85300:	2a0203e4 	mov	w4, w2
   85304:	52800022 	mov	w2, #0x1                   	// #1
   85308:	17ffffed 	b	852bc <LineTo+0x6c>
   8530c:	52800024 	mov	w4, #0x1                   	// #1
   85310:	17ffffeb 	b	852bc <LineTo+0x6c>
   85314:	d503201f 	nop
   85318:	d503201f 	nop
   8531c:	d503201f 	nop

0000000000085320 <TextOut>:
   85320:	7100009f 	cmp	w4, #0x0
   85324:	fa401864 	ccmp	x3, #0x0, #0x4, ne	// ne = any
   85328:	54000061 	b.ne	85334 <TextOut+0x14>  // b.any
   8532c:	52800000 	mov	w0, #0x0                   	// #0
   85330:	d65f03c0 	ret
   85334:	a9bc7bfd 	stp	x29, x30, [sp, #-64]!
   85338:	7100009f 	cmp	w4, #0x0
   8533c:	910003fd 	mov	x29, sp
   85340:	a9025bf5 	stp	x21, x22, [sp, #32]
   85344:	2a0103f5 	mov	w21, w1
   85348:	f9001bf7 	str	x23, [sp, #48]
   8534c:	2a0203f7 	mov	w23, w2
   85350:	5400024d 	b.le	85398 <TextOut+0x78>
   85354:	a90153f3 	stp	x19, x20, [sp, #16]
   85358:	d0000073 	adrp	x19, 93000 <_impure_data+0x148>
   8535c:	91224273 	add	x19, x19, #0x890
   85360:	aa0303f4 	mov	x20, x3
   85364:	8b24c076 	add	x22, x3, w4, sxtw
   85368:	91001273 	add	x19, x19, #0x4
   8536c:	d503201f 	nop
   85370:	29035e75 	stp	w21, w23, [x19, #24]
   85374:	aa1303e0 	mov	x0, x19
   85378:	294a8e62 	ldp	w2, w3, [x19, #84]
   8537c:	110022b5 	add	w21, w21, #0x8
   85380:	38401681 	ldrb	w1, [x20], #1
   85384:	aa038043 	orr	x3, x2, x3, lsl #32
   85388:	d63f0060 	blr	x3
   8538c:	eb16029f 	cmp	x20, x22
   85390:	54ffff01 	b.ne	85370 <TextOut+0x50>  // b.any
   85394:	a94153f3 	ldp	x19, x20, [sp, #16]
   85398:	52800020 	mov	w0, #0x1                   	// #1
   8539c:	a9425bf5 	ldp	x21, x22, [sp, #32]
   853a0:	f9401bf7 	ldr	x23, [sp, #48]
   853a4:	a8c47bfd 	ldp	x29, x30, [sp], #64
   853a8:	d65f03c0 	ret
   853ac:	d503201f 	nop

00000000000853b0 <TransparentTextOut>:
   853b0:	b4000382 	cbz	x2, 85420 <TransparentTextOut+0x70>
   853b4:	a9bd7bfd 	stp	x29, x30, [sp, #-48]!
   853b8:	910003fd 	mov	x29, sp
   853bc:	a90153f3 	stp	x19, x20, [sp, #16]
   853c0:	d0000073 	adrp	x19, 93000 <_impure_data+0x148>
   853c4:	91224273 	add	x19, x19, #0x890
   853c8:	a9025bf5 	stp	x21, x22, [sp, #32]
   853cc:	2a0003f5 	mov	w21, w0
   853d0:	2a0103f6 	mov	w22, w1
   853d4:	39400040 	ldrb	w0, [x2]
   853d8:	aa0203f4 	mov	x20, x2
   853dc:	91001273 	add	x19, x19, #0x4
   853e0:	34000160 	cbz	w0, 8540c <TransparentTextOut+0x5c>
   853e4:	d503201f 	nop
   853e8:	29035a75 	stp	w21, w22, [x19, #24]
   853ec:	aa1303e0 	mov	x0, x19
   853f0:	294b8a63 	ldp	w3, w2, [x19, #92]
   853f4:	110022b5 	add	w21, w21, #0x8
   853f8:	38401681 	ldrb	w1, [x20], #1
   853fc:	aa028062 	orr	x2, x3, x2, lsl #32
   85400:	d63f0040 	blr	x2
   85404:	39400280 	ldrb	w0, [x20]
   85408:	35ffff00 	cbnz	w0, 853e8 <TransparentTextOut+0x38>
   8540c:	a94153f3 	ldp	x19, x20, [sp, #16]
   85410:	52800020 	mov	w0, #0x1                   	// #1
   85414:	a9425bf5 	ldp	x21, x22, [sp, #32]
   85418:	a8c37bfd 	ldp	x29, x30, [sp], #48
   8541c:	d65f03c0 	ret
   85420:	52800000 	mov	w0, #0x0                   	// #0
   85424:	d65f03c0 	ret
   85428:	d503201f 	nop
   8542c:	d503201f 	nop

0000000000085430 <BmpOut>:
   85430:	b5000060 	cbnz	x0, 8543c <BmpOut+0xc>
   85434:	52800000 	mov	w0, #0x0                   	// #0
   85438:	d65f03c0 	ret
   8543c:	a9bf7bfd 	stp	x29, x30, [sp, #-16]!
   85440:	0b040047 	add	w7, w2, w4
   85444:	2a0103e8 	mov	w8, w1
   85448:	910003fd 	mov	x29, sp
   8544c:	294ca40a 	ldp	w10, w9, [x0, #100]
   85450:	29031c08 	stp	w8, w7, [x0, #24]
   85454:	2a0303e1 	mov	w1, w3
   85458:	2a0403e2 	mov	w2, w4
   8545c:	aa0503e3 	mov	x3, x5
   85460:	52800024 	mov	w4, #0x1                   	// #1
   85464:	aa098145 	orr	x5, x10, x9, lsl #32
   85468:	d63f00a0 	blr	x5
   8546c:	52800020 	mov	w0, #0x1                   	// #1
   85470:	a8c17bfd 	ldp	x29, x30, [sp], #16
   85474:	d65f03c0 	ret
   85478:	d503201f 	nop
   8547c:	d503201f 	nop

0000000000085480 <CvtBmpLine>:
   85480:	b5000060 	cbnz	x0, 8548c <CvtBmpLine+0xc>
   85484:	52800000 	mov	w0, #0x0                   	// #0
   85488:	d65f03c0 	ret
   8548c:	d282020c 	mov	x12, #0x1010                	// #4112
   85490:	cb2c63ff 	sub	sp, sp, x12
   85494:	2a0303e6 	mov	w6, w3
   85498:	a9007bfd 	stp	x29, x30, [sp]
   8549c:	910003fd 	mov	x29, sp
   854a0:	b9401003 	ldr	w3, [x0, #16]
   854a4:	29030801 	stp	w1, w2, [x0, #24]
   854a8:	6b04007f 	cmp	w3, w4
   854ac:	54000700 	b.eq	8558c <CvtBmpLine+0x10c>  // b.none
   854b0:	7100607f 	cmp	w3, #0x18
   854b4:	54000840 	b.eq	855bc <CvtBmpLine+0x13c>  // b.none
   854b8:	7100807f 	cmp	w3, #0x20
   854bc:	54000a40 	b.eq	85604 <CvtBmpLine+0x184>  // b.none
   854c0:	7100407f 	cmp	w3, #0x10
   854c4:	54000641 	b.ne	8558c <CvtBmpLine+0x10c>  // b.any
   854c8:	7100609f 	cmp	w4, #0x18
   854cc:	54000c40 	b.eq	85654 <CvtBmpLine+0x1d4>  // b.none
   854d0:	340005e6 	cbz	w6, 8558c <CvtBmpLine+0x10c>
   854d4:	8b2648a8 	add	x8, x5, w6, uxtw #2
   854d8:	aa0503e2 	mov	x2, x5
   854dc:	910043e4 	add	x4, sp, #0x10
   854e0:	aa0203e3 	mov	x3, x2
   854e4:	39400087 	ldrb	w7, [x4]
   854e8:	aa0403e1 	mov	x1, x4
   854ec:	91001042 	add	x2, x2, #0x4
   854f0:	eb08005f 	cmp	x2, x8
   854f4:	91000884 	add	x4, x4, #0x2
   854f8:	39400063 	ldrb	w3, [x3]
   854fc:	53037c63 	lsr	w3, w3, #3
   85500:	33001067 	bfxil	w7, w3, #0, #5
   85504:	39000027 	strb	w7, [x1]
   85508:	54fffec1 	b.ne	854e0 <CvtBmpLine+0x60>  // b.any
   8550c:	aa0503e3 	mov	x3, x5
   85510:	910043e9 	add	x9, sp, #0x10
   85514:	d503201f 	nop
   85518:	aa0303e1 	mov	x1, x3
   8551c:	aa0903e2 	mov	x2, x9
   85520:	91001063 	add	x3, x3, #0x4
   85524:	91000929 	add	x9, x9, #0x2
   85528:	eb08007f 	cmp	x3, x8
   8552c:	39400424 	ldrb	w4, [x1, #1]
   85530:	39400447 	ldrb	w7, [x2, #1]
   85534:	385fe121 	ldurb	w1, [x9, #-2]
   85538:	53027c84 	lsr	w4, w4, #2
   8553c:	121d70e7 	and	w7, w7, #0xfffffff8
   85540:	12001021 	and	w1, w1, #0x1f
   85544:	2a041421 	orr	w1, w1, w4, lsl #5
   85548:	2a440ce4 	orr	w4, w7, w4, lsr #3
   8554c:	39000041 	strb	w1, [x2]
   85550:	39000444 	strb	w4, [x2, #1]
   85554:	54fffe21 	b.ne	85518 <CvtBmpLine+0x98>  // b.any
   85558:	910043e3 	add	x3, sp, #0x10
   8555c:	d503201f 	nop
   85560:	aa0503e2 	mov	x2, x5
   85564:	39400464 	ldrb	w4, [x3, #1]
   85568:	aa0303e1 	mov	x1, x3
   8556c:	910010a5 	add	x5, x5, #0x4
   85570:	eb0800bf 	cmp	x5, x8
   85574:	91000863 	add	x3, x3, #0x2
   85578:	39400842 	ldrb	w2, [x2, #2]
   8557c:	53037c42 	lsr	w2, w2, #3
   85580:	331d1044 	bfi	w4, w2, #3, #5
   85584:	39000424 	strb	w4, [x1, #1]
   85588:	54fffec1 	b.ne	85560 <CvtBmpLine+0xe0>  // b.any
   8558c:	294c9407 	ldp	w7, w5, [x0, #100]
   85590:	910043e3 	add	x3, sp, #0x10
   85594:	2a0603e1 	mov	w1, w6
   85598:	52800024 	mov	w4, #0x1                   	// #1
   8559c:	52800022 	mov	w2, #0x1                   	// #1
   855a0:	aa0580e5 	orr	x5, x7, x5, lsl #32
   855a4:	d63f00a0 	blr	x5
   855a8:	a9407bfd 	ldp	x29, x30, [sp]
   855ac:	52800020 	mov	w0, #0x1                   	// #1
   855b0:	d282020c 	mov	x12, #0x1010                	// #4112
   855b4:	8b2c63ff 	add	sp, sp, x12
   855b8:	d65f03c0 	ret
   855bc:	7100409f 	cmp	w4, #0x10
   855c0:	54000dc0 	b.eq	85778 <CvtBmpLine+0x2f8>  // b.none
   855c4:	34fffe46 	cbz	w6, 8558c <CvtBmpLine+0x10c>
   855c8:	8b2648a8 	add	x8, x5, w6, uxtw #2
   855cc:	910043e3 	add	x3, sp, #0x10
   855d0:	aa0503e2 	mov	x2, x5
   855d4:	aa0303e1 	mov	x1, x3
   855d8:	910010a5 	add	x5, x5, #0x4
   855dc:	91000c63 	add	x3, x3, #0x3
   855e0:	eb05011f 	cmp	x8, x5
   855e4:	39400047 	ldrb	w7, [x2]
   855e8:	39400444 	ldrb	w4, [x2, #1]
   855ec:	39400842 	ldrb	w2, [x2, #2]
   855f0:	381fd067 	sturb	w7, [x3, #-3]
   855f4:	39000424 	strb	w4, [x1, #1]
   855f8:	39000822 	strb	w2, [x1, #2]
   855fc:	54fffea1 	b.ne	855d0 <CvtBmpLine+0x150>  // b.any
   85600:	17ffffe3 	b	8558c <CvtBmpLine+0x10c>
   85604:	7100409f 	cmp	w4, #0x10
   85608:	54000880 	b.eq	85718 <CvtBmpLine+0x298>  // b.none
   8560c:	34fffc06 	cbz	w6, 8558c <CvtBmpLine+0x10c>
   85610:	52800068 	mov	w8, #0x3                   	// #3
   85614:	aa0503e2 	mov	x2, x5
   85618:	910043e4 	add	x4, sp, #0x10
   8561c:	9ba814c8 	umaddl	x8, w6, w8, x5
   85620:	aa0203e3 	mov	x3, x2
   85624:	aa0403e1 	mov	x1, x4
   85628:	91000c42 	add	x2, x2, #0x3
   8562c:	91001084 	add	x4, x4, #0x4
   85630:	eb08005f 	cmp	x2, x8
   85634:	39400067 	ldrb	w7, [x3]
   85638:	39400465 	ldrb	w5, [x3, #1]
   8563c:	39400863 	ldrb	w3, [x3, #2]
   85640:	381fc087 	sturb	w7, [x4, #-4]
   85644:	39000425 	strb	w5, [x1, #1]
   85648:	39000823 	strb	w3, [x1, #2]
   8564c:	54fffea1 	b.ne	85620 <CvtBmpLine+0x1a0>  // b.any
   85650:	17ffffcf 	b	8558c <CvtBmpLine+0x10c>
   85654:	34fff9c6 	cbz	w6, 8558c <CvtBmpLine+0x10c>
   85658:	52800068 	mov	w8, #0x3                   	// #3
   8565c:	aa0503e2 	mov	x2, x5
   85660:	910043e4 	add	x4, sp, #0x10
   85664:	9ba814c8 	umaddl	x8, w6, w8, x5
   85668:	aa0203e3 	mov	x3, x2
   8566c:	39400087 	ldrb	w7, [x4]
   85670:	aa0403e1 	mov	x1, x4
   85674:	91000c42 	add	x2, x2, #0x3
   85678:	eb08005f 	cmp	x2, x8
   8567c:	91000884 	add	x4, x4, #0x2
   85680:	39400063 	ldrb	w3, [x3]
   85684:	53037c63 	lsr	w3, w3, #3
   85688:	33001067 	bfxil	w7, w3, #0, #5
   8568c:	39000027 	strb	w7, [x1]
   85690:	54fffec1 	b.ne	85668 <CvtBmpLine+0x1e8>  // b.any
   85694:	aa0503e4 	mov	x4, x5
   85698:	910043e9 	add	x9, sp, #0x10
   8569c:	d503201f 	nop
   856a0:	aa0403e2 	mov	x2, x4
   856a4:	aa0903e1 	mov	x1, x9
   856a8:	39400123 	ldrb	w3, [x9]
   856ac:	91000c84 	add	x4, x4, #0x3
   856b0:	eb08009f 	cmp	x4, x8
   856b4:	91000929 	add	x9, x9, #0x2
   856b8:	39400442 	ldrb	w2, [x2, #1]
   856bc:	12001063 	and	w3, w3, #0x1f
   856c0:	39400427 	ldrb	w7, [x1, #1]
   856c4:	53027c42 	lsr	w2, w2, #2
   856c8:	121d70e7 	and	w7, w7, #0xfffffff8
   856cc:	2a021463 	orr	w3, w3, w2, lsl #5
   856d0:	2a420ce2 	orr	w2, w7, w2, lsr #3
   856d4:	39000023 	strb	w3, [x1]
   856d8:	39000422 	strb	w2, [x1, #1]
   856dc:	54fffe21 	b.ne	856a0 <CvtBmpLine+0x220>  // b.any
   856e0:	910043e3 	add	x3, sp, #0x10
   856e4:	d503201f 	nop
   856e8:	aa0503e2 	mov	x2, x5
   856ec:	39400464 	ldrb	w4, [x3, #1]
   856f0:	aa0303e1 	mov	x1, x3
   856f4:	91000ca5 	add	x5, x5, #0x3
   856f8:	eb0800bf 	cmp	x5, x8
   856fc:	91000863 	add	x3, x3, #0x2
   85700:	39400842 	ldrb	w2, [x2, #2]
   85704:	53037c42 	lsr	w2, w2, #3
   85708:	331d1044 	bfi	w4, w2, #3, #5
   8570c:	39000424 	strb	w4, [x1, #1]
   85710:	54fffec1 	b.ne	856e8 <CvtBmpLine+0x268>  // b.any
   85714:	17ffff9e 	b	8558c <CvtBmpLine+0x10c>
   85718:	34fff3a6 	cbz	w6, 8558c <CvtBmpLine+0x10c>
   8571c:	8b2644a9 	add	x9, x5, w6, uxtw #1
   85720:	910043e7 	add	x7, sp, #0x10
   85724:	d503201f 	nop
   85728:	aa0503e2 	mov	x2, x5
   8572c:	aa0703e4 	mov	x4, x7
   85730:	910008a5 	add	x5, x5, #0x2
   85734:	910010e7 	add	x7, x7, #0x4
   85738:	eb0900bf 	cmp	x5, x9
   8573c:	39400043 	ldrb	w3, [x2]
   85740:	39400441 	ldrb	w1, [x2, #1]
   85744:	aa0103e2 	mov	x2, x1
   85748:	d3451c68 	ubfx	x8, x3, #5, #3
   8574c:	d37d0821 	ubfiz	x1, x1, #3, #3
   85750:	531d1063 	ubfiz	w3, w3, #3, #5
   85754:	aa080021 	orr	x1, x1, x8
   85758:	d3431c42 	ubfx	x2, x2, #3, #5
   8575c:	39000083 	strb	w3, [x4]
   85760:	531e1421 	ubfiz	w1, w1, #2, #6
   85764:	531d1042 	ubfiz	w2, w2, #3, #5
   85768:	39000481 	strb	w1, [x4, #1]
   8576c:	39000882 	strb	w2, [x4, #2]
   85770:	54fffdc1 	b.ne	85728 <CvtBmpLine+0x2a8>  // b.any
   85774:	17ffff86 	b	8558c <CvtBmpLine+0x10c>
   85778:	34fff0a6 	cbz	w6, 8558c <CvtBmpLine+0x10c>
   8577c:	8b2644a4 	add	x4, x5, w6, uxtw #1
   85780:	aa0503e1 	mov	x1, x5
   85784:	910043e3 	add	x3, sp, #0x10
   85788:	aa0103e2 	mov	x2, x1
   8578c:	aa0303e7 	mov	x7, x3
   85790:	91000821 	add	x1, x1, #0x2
   85794:	91000c63 	add	x3, x3, #0x3
   85798:	eb01009f 	cmp	x4, x1
   8579c:	39400042 	ldrb	w2, [x2]
   857a0:	531d1042 	ubfiz	w2, w2, #3, #5
   857a4:	390000e2 	strb	w2, [x7]
   857a8:	54ffff01 	b.ne	85788 <CvtBmpLine+0x308>  // b.any
   857ac:	aa0503e2 	mov	x2, x5
   857b0:	910043e7 	add	x7, sp, #0x10
   857b4:	d503201f 	nop
   857b8:	aa0203e1 	mov	x1, x2
   857bc:	aa0703e8 	mov	x8, x7
   857c0:	91000842 	add	x2, x2, #0x2
   857c4:	91000ce7 	add	x7, x7, #0x3
   857c8:	eb02009f 	cmp	x4, x2
   857cc:	39400023 	ldrb	w3, [x1]
   857d0:	39400421 	ldrb	w1, [x1, #1]
   857d4:	d3451c63 	ubfx	x3, x3, #5, #3
   857d8:	d37d0821 	ubfiz	x1, x1, #3, #3
   857dc:	aa030021 	orr	x1, x1, x3
   857e0:	531e1421 	ubfiz	w1, w1, #2, #6
   857e4:	39000501 	strb	w1, [x8, #1]
   857e8:	54fffe81 	b.ne	857b8 <CvtBmpLine+0x338>  // b.any
   857ec:	910043e2 	add	x2, sp, #0x10
   857f0:	aa0503e1 	mov	x1, x5
   857f4:	aa0203e3 	mov	x3, x2
   857f8:	910008a5 	add	x5, x5, #0x2
   857fc:	91000c42 	add	x2, x2, #0x3
   85800:	eb05009f 	cmp	x4, x5
   85804:	39400421 	ldrb	w1, [x1, #1]
   85808:	d3431c21 	ubfx	x1, x1, #3, #5
   8580c:	531d1021 	ubfiz	w1, w1, #3, #5
   85810:	39000861 	strb	w1, [x3, #2]
   85814:	54fffee1 	b.ne	857f0 <CvtBmpLine+0x370>  // b.any
   85818:	17ffff5d 	b	8558c <CvtBmpLine+0x10c>
   8581c:	d503201f 	nop

0000000000085820 <Rectangle>:
   85820:	b5000060 	cbnz	x0, 8582c <Rectangle+0xc>
   85824:	52800000 	mov	w0, #0x0                   	// #0
   85828:	d65f03c0 	ret
   8582c:	a9bf7bfd 	stp	x29, x30, [sp, #-16]!
   85830:	910003fd 	mov	x29, sp
   85834:	29469406 	ldp	w6, w5, [x0, #52]
   85838:	aa0580c5 	orr	x5, x6, x5, lsl #32
   8583c:	d63f00a0 	blr	x5
   85840:	52800020 	mov	w0, #0x1                   	// #1
   85844:	a8c17bfd 	ldp	x29, x30, [sp], #16
   85848:	d65f03c0 	ret
   8584c:	d503201f 	nop

0000000000085850 <PiConsole_Init>:
   85850:	d104c3ff 	sub	sp, sp, #0x130
   85854:	7100001f 	cmp	w0, #0x0
   85858:	7a401824 	ccmp	w1, #0x0, #0x4, ne	// ne = any
   8585c:	a9097bfd 	stp	x29, x30, [sp, #144]
   85860:	910243fd 	add	x29, sp, #0x90
   85864:	a90a53f3 	stp	x19, x20, [sp, #160]
   85868:	2a0003f3 	mov	w19, w0
   8586c:	2a0203f4 	mov	w20, w2
   85870:	a90b5bf5 	stp	x21, x22, [sp, #176]
   85874:	2a0103f6 	mov	w22, w1
   85878:	f90063f7 	str	x23, [sp, #192]
   8587c:	aa0303f7 	mov	x23, x3
   85880:	54000f20 	b.eq	85a64 <PiConsole_Init+0x214>  // b.none
   85884:	35000174 	cbnz	w20, 858b0 <PiConsole_Init+0x60>
   85888:	52800084 	mov	w4, #0x4                   	// #4
   8588c:	528000a2 	mov	w2, #0x5                   	// #5
   85890:	72a00082 	movk	w2, #0x4, lsl #16
   85894:	2a0403e3 	mov	w3, w4
   85898:	2a0403e1 	mov	w1, w4
   8589c:	910343e0 	add	x0, sp, #0xd0
   858a0:	52800005 	mov	w5, #0x0                   	// #0
   858a4:	97fffa87 	bl	842c0 <mailbox_tag_message.constprop.1>
   858a8:	360004e0 	tbz	w0, #0, 85944 <PiConsole_Init+0xf4>
   858ac:	b940dff4 	ldr	w20, [sp, #220]
   858b0:	52800088 	mov	w8, #0x4                   	// #4
   858b4:	52800104 	mov	w4, #0x8                   	// #8
   858b8:	5280020a 	mov	w10, #0x10                  	// #16
   858bc:	52800109 	mov	w9, #0x8                   	// #8
   858c0:	72a00089 	movk	w9, #0x4, lsl #16
   858c4:	529000a2 	mov	w2, #0x8005                	// #32773
   858c8:	72a00082 	movk	w2, #0x4, lsl #16
   858cc:	51001d21 	sub	w1, w9, #0x7
   858d0:	b90003e4 	str	w4, [sp]
   858d4:	910343e0 	add	x0, sp, #0xd0
   858d8:	b9000be4 	str	w4, [sp, #8]
   858dc:	2a0403e3 	mov	w3, w4
   858e0:	b90013f3 	str	w19, [sp, #16]
   858e4:	2a1603e6 	mov	w6, w22
   858e8:	b9001bf6 	str	w22, [sp, #24]
   858ec:	2a1303e5 	mov	w5, w19
   858f0:	b90023e2 	str	w2, [sp, #32]
   858f4:	52900087 	mov	w7, #0x8004                	// #32772
   858f8:	72a00087 	movk	w7, #0x4, lsl #16
   858fc:	b9002be8 	str	w8, [sp, #40]
   85900:	b90033e8 	str	w8, [sp, #48]
   85904:	52900062 	mov	w2, #0x8003                	// #32771
   85908:	72a00082 	movk	w2, #0x4, lsl #16
   8590c:	b9003bf4 	str	w20, [sp, #56]
   85910:	b90043e1 	str	w1, [sp, #64]
   85914:	528002e1 	mov	w1, #0x17                  	// #23
   85918:	b9004be4 	str	w4, [sp, #72]
   8591c:	b90053e8 	str	w8, [sp, #80]
   85920:	b9005bea 	str	w10, [sp, #88]
   85924:	b90063ff 	str	wzr, [sp, #96]
   85928:	b9006be9 	str	w9, [sp, #104]
   8592c:	b90073e8 	str	w8, [sp, #112]
   85930:	b9007bff 	str	wzr, [sp, #120]
   85934:	b90083ff 	str	wzr, [sp, #128]
   85938:	97fffad2 	bl	84480 <mailbox_tag_message.constprop.0>
   8593c:	12001c15 	and	w21, w0, #0xff
   85940:	37000120 	tbnz	w0, #0, 85964 <PiConsole_Init+0x114>
   85944:	52800015 	mov	w21, #0x0                   	// #0
   85948:	a9497bfd 	ldp	x29, x30, [sp, #144]
   8594c:	2a1503e0 	mov	w0, w21
   85950:	a94a53f3 	ldp	x19, x20, [sp, #160]
   85954:	a94b5bf5 	ldp	x21, x22, [sp, #176]
   85958:	f94063f7 	ldr	x23, [sp, #192]
   8595c:	9104c3ff 	add	sp, sp, #0x130
   85960:	d65f03c0 	ret
   85964:	b94117e0 	ldr	w0, [sp, #276]
   85968:	97ffedb2 	bl	81030 <GPUaddrToARMaddr>
   8596c:	d0000061 	adrp	x1, 93000 <_impure_data+0x148>
   85970:	91224021 	add	x1, x1, #0x890
   85974:	91001027 	add	x7, x1, #0x4
   85978:	b9412be4 	ldr	w4, [sp, #296]
   8597c:	12800003 	mov	w3, #0xffffffff            	// #-1
   85980:	32089fe2 	mov	w2, #0xff00ff00            	// #-16711936
   85984:	7100629f 	cmp	w20, #0x18
   85988:	29007ce0 	stp	w0, wzr, [x7]
   8598c:	290158f3 	stp	w19, w22, [x7, #8]
   85990:	290210f4 	stp	w20, w4, [x7, #16]
   85994:	29057ce3 	stp	w3, wzr, [x7, #40]
   85998:	b90030e2 	str	w2, [x7, #48]
   8599c:	54000a40 	b.eq	85ae4 <PiConsole_Init+0x294>  // b.none
   859a0:	7100829f 	cmp	w20, #0x20
   859a4:	54000800 	b.eq	85aa4 <PiConsole_Init+0x254>  // b.none
   859a8:	7100429f 	cmp	w20, #0x10
   859ac:	54000401 	b.ne	85a2c <PiConsole_Init+0x1dc>  // b.any
   859b0:	d0ffffe8 	adrp	x8, 83000 <_write>
   859b4:	91074108 	add	x8, x8, #0x1d0
   859b8:	d0ffffe6 	adrp	x6, 83000 <_write>
   859bc:	910c00c6 	add	x6, x6, #0x300
   859c0:	d0ffffe5 	adrp	x5, 83000 <_write>
   859c4:	911480a5 	add	x5, x5, #0x520
   859c8:	d0ffffe3 	adrp	x3, 83000 <_write>
   859cc:	911a8063 	add	x3, x3, #0x6a0
   859d0:	d0ffffe2 	adrp	x2, 83000 <_write>
   859d4:	911d4042 	add	x2, x2, #0x750
   859d8:	d0ffffe1 	adrp	x1, 83000 <_write>
   859dc:	91214021 	add	x1, x1, #0x850
   859e0:	d0ffffe0 	adrp	x0, 83000 <_write>
   859e4:	91244000 	add	x0, x0, #0x910
   859e8:	53017c84 	lsr	w4, w4, #1
   859ec:	d360fd0e 	lsr	x14, x8, #32
   859f0:	d360fccd 	lsr	x13, x6, #32
   859f4:	d360fcac 	lsr	x12, x5, #32
   859f8:	d360fc6b 	lsr	x11, x3, #32
   859fc:	d360fc4a 	lsr	x10, x2, #32
   85a00:	d360fc29 	lsr	x9, x1, #32
   85a04:	b90014e4 	str	w4, [x7, #20]
   85a08:	2906b8e8 	stp	w8, w14, [x7, #52]
   85a0c:	d360fc08 	lsr	x8, x0, #32
   85a10:	2907b4e6 	stp	w6, w13, [x7, #60]
   85a14:	2908b0e5 	stp	w5, w12, [x7, #68]
   85a18:	2909ace3 	stp	w3, w11, [x7, #76]
   85a1c:	290aa8e2 	stp	w2, w10, [x7, #84]
   85a20:	290ba4e1 	stp	w1, w9, [x7, #92]
   85a24:	b90064e0 	str	w0, [x7, #100]
   85a28:	b90068e8 	str	w8, [x7, #104]
   85a2c:	b4fff8f7 	cbz	x23, 85948 <PiConsole_Init+0xf8>
   85a30:	2a1403e3 	mov	w3, w20
   85a34:	2a1603e2 	mov	w2, w22
   85a38:	2a1303e1 	mov	w1, w19
   85a3c:	f0000040 	adrp	x0, 90000 <__sflush_r+0x40>
   85a40:	91164000 	add	x0, x0, #0x590
   85a44:	d63f02e0 	blr	x23
   85a48:	a9497bfd 	ldp	x29, x30, [sp, #144]
   85a4c:	2a1503e0 	mov	w0, w21
   85a50:	a94a53f3 	ldp	x19, x20, [sp, #160]
   85a54:	a94b5bf5 	ldp	x21, x22, [sp, #176]
   85a58:	f94063f7 	ldr	x23, [sp, #192]
   85a5c:	9104c3ff 	add	sp, sp, #0x130
   85a60:	d65f03c0 	ret
   85a64:	52800062 	mov	w2, #0x3                   	// #3
   85a68:	72a00082 	movk	w2, #0x4, lsl #16
   85a6c:	910343e0 	add	x0, sp, #0xd0
   85a70:	52800006 	mov	w6, #0x0                   	// #0
   85a74:	52800005 	mov	w5, #0x0                   	// #0
   85a78:	52800004 	mov	w4, #0x0                   	// #0
   85a7c:	52800103 	mov	w3, #0x8                   	// #8
   85a80:	528000a1 	mov	w1, #0x5                   	// #5
   85a84:	97fffa47 	bl	843a0 <mailbox_tag_message.constprop.2>
   85a88:	3607f5e0 	tbz	w0, #0, 85944 <PiConsole_Init+0xf4>
   85a8c:	35000073 	cbnz	w19, 85a98 <PiConsole_Init+0x248>
   85a90:	b940dff3 	ldr	w19, [sp, #220]
   85a94:	35ffef96 	cbnz	w22, 85884 <PiConsole_Init+0x34>
   85a98:	b940e3f6 	ldr	w22, [sp, #224]
   85a9c:	35fff0b4 	cbnz	w20, 858b0 <PiConsole_Init+0x60>
   85aa0:	17ffff7a 	b	85888 <PiConsole_Init+0x38>
   85aa4:	d0ffffe8 	adrp	x8, 83000 <_write>
   85aa8:	913a4108 	add	x8, x8, #0xe90
   85aac:	d0ffffe6 	adrp	x6, 83000 <_write>
   85ab0:	913c00c6 	add	x6, x6, #0xf00
   85ab4:	d0ffffe5 	adrp	x5, 83000 <_write>
   85ab8:	913f40a5 	add	x5, x5, #0xfd0
   85abc:	f0ffffe3 	adrp	x3, 84000 <HorzLine32+0x30>
   85ac0:	91018063 	add	x3, x3, #0x60
   85ac4:	f0ffffe2 	adrp	x2, 84000 <HorzLine32+0x30>
   85ac8:	9103c042 	add	x2, x2, #0xf0
   85acc:	f0ffffe1 	adrp	x1, 84000 <HorzLine32+0x30>
   85ad0:	91068021 	add	x1, x1, #0x1a0
   85ad4:	f0ffffe0 	adrp	x0, 84000 <HorzLine32+0x30>
   85ad8:	9108c000 	add	x0, x0, #0x230
   85adc:	53027c84 	lsr	w4, w4, #2
   85ae0:	17ffffc3 	b	859ec <PiConsole_Init+0x19c>
   85ae4:	52955560 	mov	w0, #0xaaab                	// #43691
   85ae8:	72b55540 	movk	w0, #0xaaaa, lsl #16
   85aec:	d0ffffe8 	adrp	x8, 83000 <_write>
   85af0:	9126c108 	add	x8, x8, #0x9b0
   85af4:	9ba07c84 	umull	x4, w4, w0
   85af8:	d0ffffe6 	adrp	x6, 83000 <_write>
   85afc:	912900c6 	add	x6, x6, #0xa40
   85b00:	d0ffffe5 	adrp	x5, 83000 <_write>
   85b04:	912cc0a5 	add	x5, x5, #0xb30
   85b08:	d0ffffe3 	adrp	x3, 83000 <_write>
   85b0c:	912f8063 	add	x3, x3, #0xbe0
   85b10:	d0ffffe2 	adrp	x2, 83000 <_write>
   85b14:	91320042 	add	x2, x2, #0xc80
   85b18:	d0ffffe1 	adrp	x1, 83000 <_write>
   85b1c:	9134c021 	add	x1, x1, #0xd30
   85b20:	d0ffffe0 	adrp	x0, 83000 <_write>
   85b24:	91378000 	add	x0, x0, #0xde0
   85b28:	d361fc84 	lsr	x4, x4, #33
   85b2c:	17ffffb0 	b	859ec <PiConsole_Init+0x19c>

0000000000085b30 <GetConsoleDC>:
   85b30:	d0000060 	adrp	x0, 93000 <_impure_data+0x148>
   85b34:	91224000 	add	x0, x0, #0x890
   85b38:	91001000 	add	x0, x0, #0x4
   85b3c:	d65f03c0 	ret

0000000000085b40 <GetConsole_FrameBuffer>:
   85b40:	d0000060 	adrp	x0, 93000 <_impure_data+0x148>
   85b44:	b9489400 	ldr	w0, [x0, #2196]
   85b48:	d65f03c0 	ret
   85b4c:	d503201f 	nop

0000000000085b50 <GetConsole_Width>:
   85b50:	d0000060 	adrp	x0, 93000 <_impure_data+0x148>
   85b54:	b9489c00 	ldr	w0, [x0, #2204]
   85b58:	d65f03c0 	ret
   85b5c:	d503201f 	nop

0000000000085b60 <GetConsole_Height>:
   85b60:	d0000060 	adrp	x0, 93000 <_impure_data+0x148>
   85b64:	b948a000 	ldr	w0, [x0, #2208]
   85b68:	d65f03c0 	ret
   85b6c:	d503201f 	nop

0000000000085b70 <WhereXY>:
   85b70:	b4000080 	cbz	x0, 85b80 <WhereXY+0x10>
   85b74:	d0000062 	adrp	x2, 93000 <_impure_data+0x148>
   85b78:	b948b442 	ldr	w2, [x2, #2228]
   85b7c:	b9000002 	str	w2, [x0]
   85b80:	b4000081 	cbz	x1, 85b90 <WhereXY+0x20>
   85b84:	d0000060 	adrp	x0, 93000 <_impure_data+0x148>
   85b88:	b948b800 	ldr	w0, [x0, #2232]
   85b8c:	b9000020 	str	w0, [x1]
   85b90:	d65f03c0 	ret
   85b94:	d503201f 	nop
   85b98:	d503201f 	nop
   85b9c:	d503201f 	nop

0000000000085ba0 <GotoXY>:
   85ba0:	d0000062 	adrp	x2, 93000 <_impure_data+0x148>
   85ba4:	91224042 	add	x2, x2, #0x890
   85ba8:	29048440 	stp	w0, w1, [x2, #36]
   85bac:	d65f03c0 	ret

0000000000085bb0 <_sbrk>:
   85bb0:	d0000062 	adrp	x2, 93000 <_impure_data+0x148>
   85bb4:	91224042 	add	x2, x2, #0x890
   85bb8:	f0000103 	adrp	x3, a8000 <__EL0_stack_core3+0x2d0>
   85bbc:	910cc063 	add	x3, x3, #0x330
   85bc0:	f9403841 	ldr	x1, [x2, #112]
   85bc4:	f100003f 	cmp	x1, #0x0
   85bc8:	9a810061 	csel	x1, x3, x1, eq	// eq = none
   85bcc:	8b20c023 	add	x3, x1, w0, sxtw
   85bd0:	aa0103e0 	mov	x0, x1
   85bd4:	f9003843 	str	x3, [x2, #112]
   85bd8:	d65f03c0 	ret
   85bdc:	00000000 	udf	#0

0000000000085be0 <myMemCopy>:
   85be0:	34000122 	cbz	w2, 85c04 <myMemCopy+0x24>
   85be4:	2a0203e4 	mov	w4, w2
   85be8:	d2800002 	mov	x2, #0x0                   	// #0
   85bec:	d503201f 	nop
   85bf0:	38626823 	ldrb	w3, [x1, x2]
   85bf4:	38226803 	strb	w3, [x0, x2]
   85bf8:	91000442 	add	x2, x2, #0x1
   85bfc:	eb04005f 	cmp	x2, x4
   85c00:	54ffff81 	b.ne	85bf0 <myMemCopy+0x10>  // b.any
   85c04:	d65f03c0 	ret
   85c08:	d503201f 	nop
   85c0c:	d503201f 	nop

0000000000085c10 <HcdProcessRootHubMessage>:
   85c10:	39400444 	ldrb	w4, [x2, #1]
   85c14:	7100149f 	cmp	w4, #0x5
   85c18:	54000ca0 	b.eq	85dac <HcdProcessRootHubMessage+0x19c>  // b.none
   85c1c:	54000548 	b.hi	85cc4 <HcdProcessRootHubMessage+0xb4>  // b.pmore
   85c20:	a9bb7bfd 	stp	x29, x30, [sp, #-80]!
   85c24:	7100049f 	cmp	w4, #0x1
   85c28:	910003fd 	mov	x29, sp
   85c2c:	54000dc0 	b.eq	85de4 <HcdProcessRootHubMessage+0x1d4>  // b.none
   85c30:	71000c9f 	cmp	w4, #0x3
   85c34:	54000680 	b.eq	85d04 <HcdProcessRootHubMessage+0xf4>  // b.none
   85c38:	35000d04 	cbnz	w4, 85dd8 <HcdProcessRootHubMessage+0x1c8>
   85c3c:	39400044 	ldrb	w4, [x2]
   85c40:	7102809f 	cmp	w4, #0xa0
   85c44:	54001de0 	b.eq	86000 <HcdProcessRootHubMessage+0x3f0>  // b.none
   85c48:	540017a8 	b.hi	85f3c <HcdProcessRootHubMessage+0x32c>  // b.pmore
   85c4c:	7102009f 	cmp	w4, #0x80
   85c50:	540014a0 	b.eq	85ee4 <HcdProcessRootHubMessage+0x2d4>  // b.none
   85c54:	1101fc82 	add	w2, w4, #0x7f
   85c58:	12001c42 	and	w2, w2, #0xff
   85c5c:	7100045f 	cmp	w2, #0x1
   85c60:	54000bc8 	b.hi	85dd8 <HcdProcessRootHubMessage+0x1c8>  // b.pmore
   85c64:	7100083f 	cmp	w1, #0x2
   85c68:	52800044 	mov	w4, #0x2                   	// #2
   85c6c:	1a849021 	csel	w1, w1, w4, ls	// ls = plast
   85c70:	d2800002 	mov	x2, #0x0                   	// #0
   85c74:	34000961 	cbz	w1, 85da0 <HcdProcessRootHubMessage+0x190>
   85c78:	39000002 	strb	w2, [x0]
   85c7c:	7100043f 	cmp	w1, #0x1
   85c80:	540037c0 	b.eq	86378 <HcdProcessRootHubMessage+0x768>  // b.none
   85c84:	d3483c44 	ubfx	x4, x2, #8, #8
   85c88:	39000404 	strb	w4, [x0, #1]
   85c8c:	7100083f 	cmp	w1, #0x2
   85c90:	54000100 	b.eq	85cb0 <HcdProcessRootHubMessage+0xa0>  // b.none
   85c94:	d3505c44 	ubfx	x4, x2, #16, #8
   85c98:	39000804 	strb	w4, [x0, #2]
   85c9c:	71000c3f 	cmp	w1, #0x3
   85ca0:	54000080 	b.eq	85cb0 <HcdProcessRootHubMessage+0xa0>  // b.none
   85ca4:	53187c42 	lsr	w2, w2, #24
   85ca8:	52800081 	mov	w1, #0x4                   	// #4
   85cac:	39000c02 	strb	w2, [x0, #3]
   85cb0:	52800000 	mov	w0, #0x0                   	// #0
   85cb4:	b4000043 	cbz	x3, 85cbc <HcdProcessRootHubMessage+0xac>
   85cb8:	b9000061 	str	w1, [x3]
   85cbc:	a8c57bfd 	ldp	x29, x30, [sp], #80
   85cc0:	d65f03c0 	ret
   85cc4:	7100209f 	cmp	w4, #0x8
   85cc8:	54000dc0 	b.eq	85e80 <HcdProcessRootHubMessage+0x270>  // b.none
   85ccc:	7100249f 	cmp	w4, #0x9
   85cd0:	54000740 	b.eq	85db8 <HcdProcessRootHubMessage+0x1a8>  // b.none
   85cd4:	7100189f 	cmp	w4, #0x6
   85cd8:	540000c1 	b.ne	85cf0 <HcdProcessRootHubMessage+0xe0>  // b.any
   85cdc:	39400044 	ldrb	w4, [x2]
   85ce0:	7102009f 	cmp	w4, #0x80
   85ce4:	540010a0 	b.eq	85ef8 <HcdProcessRootHubMessage+0x2e8>  // b.none
   85ce8:	7102809f 	cmp	w4, #0xa0
   85cec:	54000da0 	b.eq	85ea0 <HcdProcessRootHubMessage+0x290>  // b.none
   85cf0:	12800020 	mov	w0, #0xfffffffe            	// #-2
   85cf4:	52800001 	mov	w1, #0x0                   	// #0
   85cf8:	b4000663 	cbz	x3, 85dc4 <HcdProcessRootHubMessage+0x1b4>
   85cfc:	b9000061 	str	w1, [x3]
   85d00:	d65f03c0 	ret
   85d04:	39400040 	ldrb	w0, [x2]
   85d08:	7100801f 	cmp	w0, #0x20
   85d0c:	540004a0 	b.eq	85da0 <HcdProcessRootHubMessage+0x190>  // b.none
   85d10:	540005c9 	b.ls	85dc8 <HcdProcessRootHubMessage+0x1b8>  // b.plast
   85d14:	71008c1f 	cmp	w0, #0x23
   85d18:	54000601 	b.ne	85dd8 <HcdProcessRootHubMessage+0x1c8>  // b.any
   85d1c:	39401041 	ldrb	w1, [x2, #4]
   85d20:	39401440 	ldrb	w0, [x2, #5]
   85d24:	2a002020 	orr	w0, w1, w0, lsl #8
   85d28:	7100041f 	cmp	w0, #0x1
   85d2c:	54000561 	b.ne	85dd8 <HcdProcessRootHubMessage+0x1c8>  // b.any
   85d30:	39400841 	ldrb	w1, [x2, #2]
   85d34:	39400c40 	ldrb	w0, [x2, #3]
   85d38:	2a002020 	orr	w0, w1, w0, lsl #8
   85d3c:	7100101f 	cmp	w0, #0x4
   85d40:	54001960 	b.eq	8606c <HcdProcessRootHubMessage+0x45c>  // b.none
   85d44:	7100201f 	cmp	w0, #0x8
   85d48:	540002c1 	b.ne	85da0 <HcdProcessRootHubMessage+0x190>  // b.any
   85d4c:	f0000040 	adrp	x0, 90000 <__sflush_r+0x40>
   85d50:	9117c000 	add	x0, x0, #0x5f0
   85d54:	f9001fe3 	str	x3, [sp, #56]
   85d58:	97ffef7e 	bl	81b50 <printf>
   85d5c:	b0000060 	adrp	x0, 92000 <BitFont+0xbc0>
   85d60:	b94b0000 	ldr	w0, [x0, #2816]
   85d64:	128005c2 	mov	w2, #0xffffffd1            	// #-47
   85d68:	11660000 	add	w0, w0, #0x980, lsl #12
   85d6c:	11110000 	add	w0, w0, #0x440
   85d70:	f9401fe3 	ldr	x3, [sp, #56]
   85d74:	b9400001 	ldr	w1, [x0]
   85d78:	b90043e1 	str	w1, [sp, #64]
   85d7c:	b94043e1 	ldr	w1, [sp, #64]
   85d80:	0a020021 	and	w1, w1, w2
   85d84:	b90043e1 	str	w1, [sp, #64]
   85d88:	394107e1 	ldrb	w1, [sp, #65]
   85d8c:	321c0021 	orr	w1, w1, #0x10
   85d90:	390107e1 	strb	w1, [sp, #65]
   85d94:	b94043e1 	ldr	w1, [sp, #64]
   85d98:	b9000001 	str	w1, [x0]
   85d9c:	d503201f 	nop
   85da0:	52800000 	mov	w0, #0x0                   	// #0
   85da4:	52800001 	mov	w1, #0x0                   	// #0
   85da8:	17ffffc3 	b	85cb4 <HcdProcessRootHubMessage+0xa4>
   85dac:	d0000060 	adrp	x0, 93000 <_impure_data+0x148>
   85db0:	39400841 	ldrb	w1, [x2, #2]
   85db4:	39242001 	strb	w1, [x0, #2312]
   85db8:	52800000 	mov	w0, #0x0                   	// #0
   85dbc:	52800001 	mov	w1, #0x0                   	// #0
   85dc0:	b5fff9e3 	cbnz	x3, 85cfc <HcdProcessRootHubMessage+0xec>
   85dc4:	d65f03c0 	ret
   85dc8:	51000400 	sub	w0, w0, #0x1
   85dcc:	12001c00 	and	w0, w0, #0xff
   85dd0:	7100041f 	cmp	w0, #0x1
   85dd4:	54fffe69 	b.ls	85da0 <HcdProcessRootHubMessage+0x190>  // b.plast
   85dd8:	12800020 	mov	w0, #0xfffffffe            	// #-2
   85ddc:	52800001 	mov	w1, #0x0                   	// #0
   85de0:	17ffffb5 	b	85cb4 <HcdProcessRootHubMessage+0xa4>
   85de4:	39400040 	ldrb	w0, [x2]
   85de8:	7100801f 	cmp	w0, #0x20
   85dec:	54fffda0 	b.eq	85da0 <HcdProcessRootHubMessage+0x190>  // b.none
   85df0:	54fffec9 	b.ls	85dc8 <HcdProcessRootHubMessage+0x1b8>  // b.plast
   85df4:	71008c1f 	cmp	w0, #0x23
   85df8:	54ffff01 	b.ne	85dd8 <HcdProcessRootHubMessage+0x1c8>  // b.any
   85dfc:	39401041 	ldrb	w1, [x2, #4]
   85e00:	39401440 	ldrb	w0, [x2, #5]
   85e04:	2a002020 	orr	w0, w1, w0, lsl #8
   85e08:	7100041f 	cmp	w0, #0x1
   85e0c:	54fffe61 	b.ne	85dd8 <HcdProcessRootHubMessage+0x1c8>  // b.any
   85e10:	39400841 	ldrb	w1, [x2, #2]
   85e14:	39400c40 	ldrb	w0, [x2, #3]
   85e18:	2a002020 	orr	w0, w1, w0, lsl #8
   85e1c:	7100401f 	cmp	w0, #0x10
   85e20:	54001d20 	b.eq	861c4 <HcdProcessRootHubMessage+0x5b4>  // b.none
   85e24:	54000fc8 	b.hi	8601c <HcdProcessRootHubMessage+0x40c>  // b.pmore
   85e28:	7100081f 	cmp	w0, #0x2
   85e2c:	54002360 	b.eq	86298 <HcdProcessRootHubMessage+0x688>  // b.none
   85e30:	7100201f 	cmp	w0, #0x8
   85e34:	54002080 	b.eq	86244 <HcdProcessRootHubMessage+0x634>  // b.none
   85e38:	7100041f 	cmp	w0, #0x1
   85e3c:	54fffb21 	b.ne	85da0 <HcdProcessRootHubMessage+0x190>  // b.any
   85e40:	b0000060 	adrp	x0, 92000 <BitFont+0xbc0>
   85e44:	b94b0000 	ldr	w0, [x0, #2816]
   85e48:	128005c2 	mov	w2, #0xffffffd1            	// #-47
   85e4c:	11660000 	add	w0, w0, #0x980, lsl #12
   85e50:	11110000 	add	w0, w0, #0x440
   85e54:	b9400001 	ldr	w1, [x0]
   85e58:	b90043e1 	str	w1, [sp, #64]
   85e5c:	b94043e1 	ldr	w1, [sp, #64]
   85e60:	0a020021 	and	w1, w1, w2
   85e64:	b90043e1 	str	w1, [sp, #64]
   85e68:	394103e1 	ldrb	w1, [sp, #64]
   85e6c:	321e0021 	orr	w1, w1, #0x4
   85e70:	390103e1 	strb	w1, [sp, #64]
   85e74:	b94043e1 	ldr	w1, [sp, #64]
   85e78:	b9000001 	str	w1, [x0]
   85e7c:	17ffffc9 	b	85da0 <HcdProcessRootHubMessage+0x190>
   85e80:	d2800024 	mov	x4, #0x1                   	// #1
   85e84:	d2800002 	mov	x2, #0x0                   	// #0
   85e88:	b3401c82 	bfxil	x2, x4, #0, #8
   85e8c:	34fff961 	cbz	w1, 85db8 <HcdProcessRootHubMessage+0x1a8>
   85e90:	52800021 	mov	w1, #0x1                   	// #1
   85e94:	39000002 	strb	w2, [x0]
   85e98:	52800000 	mov	w0, #0x0                   	// #0
   85e9c:	17ffff97 	b	85cf8 <HcdProcessRootHubMessage+0xe8>
   85ea0:	b0000062 	adrp	x2, 92000 <BitFont+0xbc0>
   85ea4:	912ca042 	add	x2, x2, #0xb28
   85ea8:	91026046 	add	x6, x2, #0x98
   85eac:	39426042 	ldrb	w2, [x2, #152]
   85eb0:	6b01005f 	cmp	w2, w1
   85eb4:	1a819041 	csel	w1, w2, w1, ls	// ls = plast
   85eb8:	34fff801 	cbz	w1, 85db8 <HcdProcessRootHubMessage+0x1a8>
   85ebc:	2a0103e5 	mov	w5, w1
   85ec0:	d2800002 	mov	x2, #0x0                   	// #0
   85ec4:	d503201f 	nop
   85ec8:	386268c4 	ldrb	w4, [x6, x2]
   85ecc:	38226804 	strb	w4, [x0, x2]
   85ed0:	91000442 	add	x2, x2, #0x1
   85ed4:	eb05005f 	cmp	x2, x5
   85ed8:	54ffff81 	b.ne	85ec8 <HcdProcessRootHubMessage+0x2b8>  // b.any
   85edc:	52800000 	mov	w0, #0x0                   	// #0
   85ee0:	17ffff86 	b	85cf8 <HcdProcessRootHubMessage+0xe8>
   85ee4:	7100083f 	cmp	w1, #0x2
   85ee8:	52800044 	mov	w4, #0x2                   	// #2
   85eec:	d2800022 	mov	x2, #0x1                   	// #1
   85ef0:	1a849021 	csel	w1, w1, w4, ls	// ls = plast
   85ef4:	17ffff60 	b	85c74 <HcdProcessRootHubMessage+0x64>
   85ef8:	39400844 	ldrb	w4, [x2, #2]
   85efc:	39400c42 	ldrb	w2, [x2, #3]
   85f00:	2a022082 	orr	w2, w4, w2, lsl #8
   85f04:	53087c44 	lsr	w4, w2, #8
   85f08:	7100089f 	cmp	w4, #0x2
   85f0c:	540014e0 	b.eq	861a8 <HcdProcessRootHubMessage+0x598>  // b.none
   85f10:	71000c9f 	cmp	w4, #0x3
   85f14:	54001320 	b.eq	86178 <HcdProcessRootHubMessage+0x568>  // b.none
   85f18:	7100049f 	cmp	w4, #0x1
   85f1c:	54ffeea1 	b.ne	85cf0 <HcdProcessRootHubMessage+0xe0>  // b.any
   85f20:	7100483f 	cmp	w1, #0x12
   85f24:	b0000066 	adrp	x6, 92000 <BitFont+0xbc0>
   85f28:	912ca0c6 	add	x6, x6, #0xb28
   85f2c:	52800242 	mov	w2, #0x12                  	// #18
   85f30:	910020c6 	add	x6, x6, #0x8
   85f34:	1a829021 	csel	w1, w1, w2, ls	// ls = plast
   85f38:	17ffffe0 	b	85eb8 <HcdProcessRootHubMessage+0x2a8>
   85f3c:	71028c9f 	cmp	w4, #0xa3
   85f40:	54fff4c1 	b.ne	85dd8 <HcdProcessRootHubMessage+0x1c8>  // b.any
   85f44:	39401044 	ldrb	w4, [x2, #4]
   85f48:	39401442 	ldrb	w2, [x2, #5]
   85f4c:	2a022082 	orr	w2, w4, w2, lsl #8
   85f50:	7100045f 	cmp	w2, #0x1
   85f54:	54fff421 	b.ne	85dd8 <HcdProcessRootHubMessage+0x1c8>  // b.any
   85f58:	b0000062 	adrp	x2, 92000 <BitFont+0xbc0>
   85f5c:	b94b0044 	ldr	w4, [x2, #2816]
   85f60:	d2800002 	mov	x2, #0x0                   	// #0
   85f64:	11660084 	add	w4, w4, #0x980, lsl #12
   85f68:	11110084 	add	w4, w4, #0x440
   85f6c:	b9400084 	ldr	w4, [x4]
   85f70:	b90043e4 	str	w4, [sp, #64]
   85f74:	394103e5 	ldrb	w5, [sp, #64]
   85f78:	394103e4 	ldrb	w4, [sp, #64]
   85f7c:	120000a5 	and	w5, w5, #0x1
   85f80:	394103e7 	ldrb	w7, [sp, #64]
   85f84:	394103e6 	ldrb	w6, [sp, #64]
   85f88:	b34000a2 	bfxil	x2, x5, #0, #1
   85f8c:	d3420884 	ubfx	x4, x4, #2, #1
   85f90:	d3471ce7 	ubfx	x7, x7, #7, #1
   85f94:	394107e5 	ldrb	w5, [sp, #65]
   85f98:	b37f0082 	bfi	x2, x4, #1, #1
   85f9c:	d34410c6 	ubfx	x6, x6, #4, #1
   85fa0:	394107e4 	ldrb	w4, [sp, #65]
   85fa4:	120000a5 	and	w5, w5, #0x1
   85fa8:	b37e00e2 	bfi	x2, x7, #2, #1
   85fac:	b94043e7 	ldr	w7, [sp, #64]
   85fb0:	b37d00c2 	bfi	x2, x6, #3, #1
   85fb4:	d3441084 	ubfx	x4, x4, #4, #1
   85fb8:	f26f04ff 	tst	x7, #0x60000
   85fbc:	b37c00a2 	bfi	x2, x5, #4, #1
   85fc0:	b3780082 	bfi	x2, x4, #8, #1
   85fc4:	54000ce1 	b.ne	86160 <HcdProcessRootHubMessage+0x550>  // b.any
   85fc8:	b2760042 	orr	x2, x2, #0x400
   85fcc:	b94043e6 	ldr	w6, [sp, #64]
   85fd0:	7100103f 	cmp	w1, #0x4
   85fd4:	394103e5 	ldrb	w5, [sp, #64]
   85fd8:	52800087 	mov	w7, #0x4                   	// #4
   85fdc:	394103e4 	ldrb	w4, [sp, #64]
   85fe0:	1a879021 	csel	w1, w1, w7, ls	// ls = plast
   85fe4:	d34d40c6 	ubfx	x6, x6, #13, #4
   85fe8:	d34104a5 	ubfx	x5, x5, #1, #1
   85fec:	b37500c2 	bfi	x2, x6, #11, #1
   85ff0:	d3451484 	ubfx	x4, x4, #5, #1
   85ff4:	b37000a2 	bfi	x2, x5, #16, #1
   85ff8:	b36d0082 	bfi	x2, x4, #19, #1
   85ffc:	17ffff1e 	b	85c74 <HcdProcessRootHubMessage+0x64>
   86000:	7100103f 	cmp	w1, #0x4
   86004:	d2800025 	mov	x5, #0x1                   	// #1
   86008:	d2800002 	mov	x2, #0x0                   	// #0
   8600c:	52800084 	mov	w4, #0x4                   	// #4
   86010:	b3407ca2 	bfxil	x2, x5, #0, #32
   86014:	1a849021 	csel	w1, w1, w4, ls	// ls = plast
   86018:	17ffff17 	b	85c74 <HcdProcessRootHubMessage+0x64>
   8601c:	7100441f 	cmp	w0, #0x11
   86020:	54000f20 	b.eq	86204 <HcdProcessRootHubMessage+0x5f4>  // b.none
   86024:	71004c1f 	cmp	w0, #0x13
   86028:	54ffebc1 	b.ne	85da0 <HcdProcessRootHubMessage+0x190>  // b.any
   8602c:	90000060 	adrp	x0, 92000 <BitFont+0xbc0>
   86030:	b94b0000 	ldr	w0, [x0, #2816]
   86034:	128005c2 	mov	w2, #0xffffffd1            	// #-47
   86038:	11660000 	add	w0, w0, #0x980, lsl #12
   8603c:	11110000 	add	w0, w0, #0x440
   86040:	b9400001 	ldr	w1, [x0]
   86044:	b90043e1 	str	w1, [sp, #64]
   86048:	b94043e1 	ldr	w1, [sp, #64]
   8604c:	0a020021 	and	w1, w1, w2
   86050:	b90043e1 	str	w1, [sp, #64]
   86054:	394103e1 	ldrb	w1, [sp, #64]
   86058:	321b0021 	orr	w1, w1, #0x20
   8605c:	390103e1 	strb	w1, [sp, #64]
   86060:	b94043e1 	ldr	w1, [sp, #64]
   86064:	b9000001 	str	w1, [x0]
   86068:	17ffff4e 	b	85da0 <HcdProcessRootHubMessage+0x190>
   8606c:	a90153f3 	stp	x19, x20, [sp, #16]
   86070:	90000073 	adrp	x19, 92000 <BitFont+0xbc0>
   86074:	b94b0261 	ldr	w1, [x19, #2816]
   86078:	5281c014 	mov	w20, #0xe00                 	// #3584
   8607c:	72a01314 	movk	w20, #0x98, lsl #16
   86080:	0b140021 	add	w1, w1, w20
   86084:	a9025bf5 	stp	x21, x22, [sp, #32]
   86088:	d284e200 	mov	x0, #0x2710                	// #10000
   8608c:	f9001fe3 	str	x3, [sp, #56]
   86090:	51270296 	sub	w22, w20, #0x9c0
   86094:	b9400022 	ldr	w2, [x1]
   86098:	128005d5 	mov	w21, #0xffffffd1            	// #-47
   8609c:	b9004be2 	str	w2, [sp, #72]
   860a0:	394123e2 	ldrb	w2, [sp, #72]
   860a4:	121a7842 	and	w2, w2, #0xffffffdf
   860a8:	390123e2 	strb	w2, [sp, #72]
   860ac:	394123e2 	ldrb	w2, [sp, #72]
   860b0:	121f7842 	and	w2, w2, #0xfffffffe
   860b4:	390123e2 	strb	w2, [sp, #72]
   860b8:	b9404be2 	ldr	w2, [sp, #72]
   860bc:	b9000022 	str	w2, [x1]
   860c0:	97fffa30 	bl	84980 <timer_wait>
   860c4:	b94b0261 	ldr	w1, [x19, #2816]
   860c8:	d29d4c00 	mov	x0, #0xea60                	// #60000
   860cc:	0b140021 	add	w1, w1, w20
   860d0:	b900003f 	str	wzr, [x1]
   860d4:	b94b0261 	ldr	w1, [x19, #2816]
   860d8:	0b160021 	add	w1, w1, w22
   860dc:	b9400022 	ldr	w2, [x1]
   860e0:	b90043e2 	str	w2, [sp, #64]
   860e4:	b94043e2 	ldr	w2, [sp, #64]
   860e8:	0a150042 	and	w2, w2, w21
   860ec:	b90043e2 	str	w2, [sp, #64]
   860f0:	394103e2 	ldrb	w2, [sp, #64]
   860f4:	12001842 	and	w2, w2, #0x7f
   860f8:	390103e2 	strb	w2, [sp, #64]
   860fc:	394107e2 	ldrb	w2, [sp, #65]
   86100:	32000042 	orr	w2, w2, #0x1
   86104:	390107e2 	strb	w2, [sp, #65]
   86108:	394107e2 	ldrb	w2, [sp, #65]
   8610c:	321c0042 	orr	w2, w2, #0x10
   86110:	390107e2 	strb	w2, [sp, #65]
   86114:	b94043e2 	ldr	w2, [sp, #64]
   86118:	b9000022 	str	w2, [x1]
   8611c:	97fffa19 	bl	84980 <timer_wait>
   86120:	b94b0260 	ldr	w0, [x19, #2816]
   86124:	0b160000 	add	w0, w0, w22
   86128:	b9400001 	ldr	w1, [x0]
   8612c:	b90043e1 	str	w1, [sp, #64]
   86130:	b94043e1 	ldr	w1, [sp, #64]
   86134:	0a150021 	and	w1, w1, w21
   86138:	b90043e1 	str	w1, [sp, #64]
   8613c:	394107e1 	ldrb	w1, [sp, #65]
   86140:	121f7821 	and	w1, w1, #0xfffffffe
   86144:	390107e1 	strb	w1, [sp, #65]
   86148:	b94043e1 	ldr	w1, [sp, #64]
   8614c:	a94153f3 	ldp	x19, x20, [sp, #16]
   86150:	a9425bf5 	ldp	x21, x22, [sp, #32]
   86154:	f9401fe3 	ldr	x3, [sp, #56]
   86158:	b9000001 	str	w1, [x0]
   8615c:	17ffff11 	b	85da0 <HcdProcessRootHubMessage+0x190>
   86160:	b94043e4 	ldr	w4, [sp, #64]
   86164:	b2770045 	orr	x5, x2, #0x200
   86168:	d3514884 	ubfx	x4, x4, #17, #2
   8616c:	7100089f 	cmp	w4, #0x2
   86170:	9a8200a2 	csel	x2, x5, x2, eq	// eq = none
   86174:	17ffff96 	b	85fcc <HcdProcessRootHubMessage+0x3bc>
   86178:	12001c42 	and	w2, w2, #0xff
   8617c:	7100045f 	cmp	w2, #0x1
   86180:	54000ee0 	b.eq	8635c <HcdProcessRootHubMessage+0x74c>  // b.none
   86184:	7100085f 	cmp	w2, #0x2
   86188:	54000dc0 	b.eq	86340 <HcdProcessRootHubMessage+0x730>  // b.none
   8618c:	35ffe162 	cbnz	w2, 85db8 <HcdProcessRootHubMessage+0x1a8>
   86190:	90000066 	adrp	x6, 92000 <BitFont+0xbc0>
   86194:	396ca0c2 	ldrb	w2, [x6, #2856]
   86198:	912ca0c6 	add	x6, x6, #0xb28
   8619c:	6b01005f 	cmp	w2, w1
   861a0:	1a819041 	csel	w1, w2, w1, ls	// ls = plast
   861a4:	17ffff45 	b	85eb8 <HcdProcessRootHubMessage+0x2a8>
   861a8:	7100643f 	cmp	w1, #0x19
   861ac:	90000066 	adrp	x6, 92000 <BitFont+0xbc0>
   861b0:	912ca0c6 	add	x6, x6, #0xb28
   861b4:	52800322 	mov	w2, #0x19                  	// #25
   861b8:	9101e0c6 	add	x6, x6, #0x78
   861bc:	1a829021 	csel	w1, w1, w2, ls	// ls = plast
   861c0:	17ffff3e 	b	85eb8 <HcdProcessRootHubMessage+0x2a8>
   861c4:	90000060 	adrp	x0, 92000 <BitFont+0xbc0>
   861c8:	b94b0000 	ldr	w0, [x0, #2816]
   861cc:	128005c2 	mov	w2, #0xffffffd1            	// #-47
   861d0:	11660000 	add	w0, w0, #0x980, lsl #12
   861d4:	11110000 	add	w0, w0, #0x440
   861d8:	b9400001 	ldr	w1, [x0]
   861dc:	b90043e1 	str	w1, [sp, #64]
   861e0:	b94043e1 	ldr	w1, [sp, #64]
   861e4:	0a020021 	and	w1, w1, w2
   861e8:	b90043e1 	str	w1, [sp, #64]
   861ec:	394103e1 	ldrb	w1, [sp, #64]
   861f0:	321f0021 	orr	w1, w1, #0x2
   861f4:	390103e1 	strb	w1, [sp, #64]
   861f8:	b94043e1 	ldr	w1, [sp, #64]
   861fc:	b9000001 	str	w1, [x0]
   86200:	17fffee8 	b	85da0 <HcdProcessRootHubMessage+0x190>
   86204:	90000060 	adrp	x0, 92000 <BitFont+0xbc0>
   86208:	b94b0000 	ldr	w0, [x0, #2816]
   8620c:	128005c2 	mov	w2, #0xffffffd1            	// #-47
   86210:	11660000 	add	w0, w0, #0x980, lsl #12
   86214:	11110000 	add	w0, w0, #0x440
   86218:	b9400001 	ldr	w1, [x0]
   8621c:	b90043e1 	str	w1, [sp, #64]
   86220:	b94043e1 	ldr	w1, [sp, #64]
   86224:	0a020021 	and	w1, w1, w2
   86228:	b90043e1 	str	w1, [sp, #64]
   8622c:	394103e1 	ldrb	w1, [sp, #64]
   86230:	321d0021 	orr	w1, w1, #0x8
   86234:	390103e1 	strb	w1, [sp, #64]
   86238:	b94043e1 	ldr	w1, [sp, #64]
   8623c:	b9000001 	str	w1, [x0]
   86240:	17fffed8 	b	85da0 <HcdProcessRootHubMessage+0x190>
   86244:	d0000040 	adrp	x0, 90000 <__sflush_r+0x40>
   86248:	91174000 	add	x0, x0, #0x5d0
   8624c:	f9001fe3 	str	x3, [sp, #56]
   86250:	97ffee40 	bl	81b50 <printf>
   86254:	90000060 	adrp	x0, 92000 <BitFont+0xbc0>
   86258:	b94b0000 	ldr	w0, [x0, #2816]
   8625c:	128005c2 	mov	w2, #0xffffffd1            	// #-47
   86260:	11660000 	add	w0, w0, #0x980, lsl #12
   86264:	11110000 	add	w0, w0, #0x440
   86268:	f9401fe3 	ldr	x3, [sp, #56]
   8626c:	b9400001 	ldr	w1, [x0]
   86270:	b90043e1 	str	w1, [sp, #64]
   86274:	b94043e1 	ldr	w1, [sp, #64]
   86278:	0a020021 	and	w1, w1, w2
   8627c:	b90043e1 	str	w1, [sp, #64]
   86280:	394107e1 	ldrb	w1, [sp, #65]
   86284:	121b7821 	and	w1, w1, #0xffffffef
   86288:	390107e1 	strb	w1, [sp, #65]
   8628c:	b94043e1 	ldr	w1, [sp, #64]
   86290:	b9000001 	str	w1, [x0]
   86294:	17fffec3 	b	85da0 <HcdProcessRootHubMessage+0x190>
   86298:	a90153f3 	stp	x19, x20, [sp, #16]
   8629c:	90000074 	adrp	x20, 92000 <BitFont+0xbc0>
   862a0:	b94b0281 	ldr	w1, [x20, #2816]
   862a4:	5281c013 	mov	w19, #0xe00                 	// #3584
   862a8:	72a01313 	movk	w19, #0x98, lsl #16
   862ac:	0b130021 	add	w1, w1, w19
   862b0:	a9025bf5 	stp	x21, x22, [sp, #32]
   862b4:	d2827100 	mov	x0, #0x1388                	// #5000
   862b8:	f9001fe3 	str	x3, [sp, #56]
   862bc:	51270273 	sub	w19, w19, #0x9c0
   862c0:	b900003f 	str	wzr, [x1]
   862c4:	128005d5 	mov	w21, #0xffffffd1            	// #-47
   862c8:	97fff9ae 	bl	84980 <timer_wait>
   862cc:	b94b0281 	ldr	w1, [x20, #2816]
   862d0:	d290d400 	mov	x0, #0x86a0                	// #34464
   862d4:	f2a00020 	movk	x0, #0x1, lsl #16
   862d8:	0b130021 	add	w1, w1, w19
   862dc:	b9400022 	ldr	w2, [x1]
   862e0:	b90043e2 	str	w2, [sp, #64]
   862e4:	b94043e2 	ldr	w2, [sp, #64]
   862e8:	0a150042 	and	w2, w2, w21
   862ec:	b90043e2 	str	w2, [sp, #64]
   862f0:	394103e2 	ldrb	w2, [sp, #64]
   862f4:	321a0042 	orr	w2, w2, #0x40
   862f8:	390103e2 	strb	w2, [sp, #64]
   862fc:	b94043e2 	ldr	w2, [sp, #64]
   86300:	b9000022 	str	w2, [x1]
   86304:	97fff99f 	bl	84980 <timer_wait>
   86308:	b94b0280 	ldr	w0, [x20, #2816]
   8630c:	0b130000 	add	w0, w0, w19
   86310:	b9400001 	ldr	w1, [x0]
   86314:	b90043e1 	str	w1, [sp, #64]
   86318:	b94043e1 	ldr	w1, [sp, #64]
   8631c:	0a150021 	and	w1, w1, w21
   86320:	b90043e1 	str	w1, [sp, #64]
   86324:	394103e1 	ldrb	w1, [sp, #64]
   86328:	12001821 	and	w1, w1, #0x7f
   8632c:	390103e1 	strb	w1, [sp, #64]
   86330:	394103e1 	ldrb	w1, [sp, #64]
   86334:	12197821 	and	w1, w1, #0xffffffbf
   86338:	390103e1 	strb	w1, [sp, #64]
   8633c:	17ffff83 	b	86148 <HcdProcessRootHubMessage+0x538>
   86340:	90000062 	adrp	x2, 92000 <BitFont+0xbc0>
   86344:	912ca042 	add	x2, x2, #0xb28
   86348:	91008046 	add	x6, x2, #0x20
   8634c:	39408042 	ldrb	w2, [x2, #32]
   86350:	6b01005f 	cmp	w2, w1
   86354:	1a819041 	csel	w1, w2, w1, ls	// ls = plast
   86358:	17fffed8 	b	85eb8 <HcdProcessRootHubMessage+0x2a8>
   8635c:	90000062 	adrp	x2, 92000 <BitFont+0xbc0>
   86360:	912ca042 	add	x2, x2, #0xb28
   86364:	91012046 	add	x6, x2, #0x48
   86368:	39412042 	ldrb	w2, [x2, #72]
   8636c:	6b01005f 	cmp	w2, w1
   86370:	1a819041 	csel	w1, w2, w1, ls	// ls = plast
   86374:	17fffed1 	b	85eb8 <HcdProcessRootHubMessage+0x2a8>
   86378:	52800021 	mov	w1, #0x1                   	// #1
   8637c:	52800000 	mov	w0, #0x0                   	// #0
   86380:	17fffe4d 	b	85cb4 <HcdProcessRootHubMessage+0xa4>
   86384:	d503201f 	nop
   86388:	d503201f 	nop
   8638c:	d503201f 	nop

0000000000086390 <PowerOnUsb>:
   86390:	a9bd7bfd 	stp	x29, x30, [sp, #-48]!
   86394:	d2900023 	mov	x3, #0x8001                	// #32769
   86398:	f2a00043 	movk	x3, #0x2, lsl #16
   8639c:	d2800102 	mov	x2, #0x8                   	// #8
   863a0:	d2800404 	mov	x4, #0x20                  	// #32
   863a4:	f2c00103 	movk	x3, #0x8, lsl #32
   863a8:	f2c00062 	movk	x2, #0x3, lsl #32
   863ac:	d2800021 	mov	x1, #0x1                   	// #1
   863b0:	910003fd 	mov	x29, sp
   863b4:	910043e0 	add	x0, sp, #0x10
   863b8:	a9010fe4 	stp	x4, x3, [sp, #16]
   863bc:	a90207e2 	stp	x2, x1, [sp, #32]
   863c0:	97ffeb19 	bl	81024 <ARMaddrToGPUaddr>
   863c4:	2a0003e1 	mov	w1, w0
   863c8:	52800100 	mov	w0, #0x8                   	// #8
   863cc:	97fff989 	bl	849f0 <mailbox_write>
   863d0:	52800100 	mov	w0, #0x8                   	// #8
   863d4:	97fff997 	bl	84a30 <mailbox_read>
   863d8:	b94017e0 	ldr	w0, [sp, #20]
   863dc:	52b00001 	mov	w1, #0x80000000            	// #-2147483648
   863e0:	6b01001f 	cmp	w0, w1
   863e4:	54000101 	b.ne	86404 <PowerOnUsb+0x74>  // b.any
   863e8:	b94023e2 	ldr	w2, [sp, #32]
   863ec:	11002000 	add	w0, w0, #0x8
   863f0:	12800061 	mov	w1, #0xfffffffc            	// #-4
   863f4:	6b00005f 	cmp	w2, w0
   863f8:	1a8103e0 	csel	w0, wzr, w1, eq	// eq = none
   863fc:	a8c37bfd 	ldp	x29, x30, [sp], #48
   86400:	d65f03c0 	ret
   86404:	12800060 	mov	w0, #0xfffffffc            	// #-4
   86408:	17fffffd 	b	863fc <PowerOnUsb+0x6c>
   8640c:	d503201f 	nop

0000000000086410 <PowerOffUsb>:
   86410:	a9bd7bfd 	stp	x29, x30, [sp, #-48]!
   86414:	d2900022 	mov	x2, #0x8001                	// #32769
   86418:	f2a00042 	movk	x2, #0x2, lsl #16
   8641c:	d2800101 	mov	x1, #0x8                   	// #8
   86420:	d2800403 	mov	x3, #0x20                  	// #32
   86424:	f2c00102 	movk	x2, #0x8, lsl #32
   86428:	f2c00061 	movk	x1, #0x3, lsl #32
   8642c:	910003fd 	mov	x29, sp
   86430:	910043e0 	add	x0, sp, #0x10
   86434:	a9010be3 	stp	x3, x2, [sp, #16]
   86438:	a9027fe1 	stp	x1, xzr, [sp, #32]
   8643c:	97ffeafa 	bl	81024 <ARMaddrToGPUaddr>
   86440:	2a0003e1 	mov	w1, w0
   86444:	52800100 	mov	w0, #0x8                   	// #8
   86448:	97fff96a 	bl	849f0 <mailbox_write>
   8644c:	52800100 	mov	w0, #0x8                   	// #8
   86450:	97fff978 	bl	84a30 <mailbox_read>
   86454:	b94017e0 	ldr	w0, [sp, #20]
   86458:	52b00001 	mov	w1, #0x80000000            	// #-2147483648
   8645c:	6b01001f 	cmp	w0, w1
   86460:	54000101 	b.ne	86480 <PowerOffUsb+0x70>  // b.any
   86464:	b94023e2 	ldr	w2, [sp, #32]
   86468:	11002000 	add	w0, w0, #0x8
   8646c:	12800061 	mov	w1, #0xfffffffc            	// #-4
   86470:	6b00005f 	cmp	w2, w0
   86474:	1a8103e0 	csel	w0, wzr, w1, eq	// eq = none
   86478:	a8c37bfd 	ldp	x29, x30, [sp], #48
   8647c:	d65f03c0 	ret
   86480:	12800060 	mov	w0, #0xfffffffc            	// #-4
   86484:	17fffffd 	b	86478 <PowerOffUsb+0x68>
   86488:	d503201f 	nop
   8648c:	d503201f 	nop

0000000000086490 <HCDReset>:
   86490:	a9bc7bfd 	stp	x29, x30, [sp, #-64]!
   86494:	910003fd 	mov	x29, sp
   86498:	a90153f3 	stp	x19, x20, [sp, #16]
   8649c:	90000073 	adrp	x19, 92000 <BitFont+0xbc0>
   864a0:	912c0273 	add	x19, x19, #0xb00
   864a4:	a9025bf5 	stp	x21, x22, [sp, #32]
   864a8:	d290d415 	mov	x21, #0x86a0                	// #34464
   864ac:	f2a00035 	movk	x21, #0x1, lsl #16
   864b0:	52800216 	mov	w22, #0x10                  	// #16
   864b4:	72a01316 	movk	w22, #0x98, lsl #16
   864b8:	97fff926 	bl	84950 <timer_getTickCount64>
   864bc:	aa0003f4 	mov	x20, x0
   864c0:	14000005 	b	864d4 <HCDReset+0x44>
   864c4:	b9400261 	ldr	w1, [x19]
   864c8:	0b160021 	add	w1, w1, w22
   864cc:	39400c22 	ldrb	w2, [x1, #3]
   864d0:	37380182 	tbnz	w2, #7, 86500 <HCDReset+0x70>
   864d4:	97fff91f 	bl	84950 <timer_getTickCount64>
   864d8:	aa0003e1 	mov	x1, x0
   864dc:	aa1403e0 	mov	x0, x20
   864e0:	97fff940 	bl	849e0 <tick_difference>
   864e4:	eb15001f 	cmp	x0, x21
   864e8:	54fffee9 	b.ls	864c4 <HCDReset+0x34>  // b.plast
   864ec:	a94153f3 	ldp	x19, x20, [sp, #16]
   864f0:	128000e0 	mov	w0, #0xfffffff8            	// #-8
   864f4:	a9425bf5 	ldp	x21, x22, [sp, #32]
   864f8:	a8c47bfd 	ldp	x29, x30, [sp], #64
   864fc:	d65f03c0 	ret
   86500:	39400020 	ldrb	w0, [x1]
   86504:	d290d415 	mov	x21, #0x86a0                	// #34464
   86508:	f2a00035 	movk	x21, #0x1, lsl #16
   8650c:	52800216 	mov	w22, #0x10                  	// #16
   86510:	72a01316 	movk	w22, #0x98, lsl #16
   86514:	32000000 	orr	w0, w0, #0x1
   86518:	39000020 	strb	w0, [x1]
   8651c:	97fff90d 	bl	84950 <timer_getTickCount64>
   86520:	aa0003f4 	mov	x20, x0
   86524:	d503201f 	nop
   86528:	97fff90a 	bl	84950 <timer_getTickCount64>
   8652c:	aa0003e1 	mov	x1, x0
   86530:	aa1403e0 	mov	x0, x20
   86534:	97fff92b 	bl	849e0 <tick_difference>
   86538:	eb15001f 	cmp	x0, x21
   8653c:	54fffd88 	b.hi	864ec <HCDReset+0x5c>  // b.pmore
   86540:	b9400261 	ldr	w1, [x19]
   86544:	0b160021 	add	w1, w1, w22
   86548:	b9400021 	ldr	w1, [x1]
   8654c:	b9003be1 	str	w1, [sp, #56]
   86550:	3940e3e1 	ldrb	w1, [sp, #56]
   86554:	3707fea1 	tbnz	w1, #0, 86528 <HCDReset+0x98>
   86558:	3940efe0 	ldrb	w0, [sp, #59]
   8655c:	363ffe60 	tbz	w0, #7, 86528 <HCDReset+0x98>
   86560:	a94153f3 	ldp	x19, x20, [sp, #16]
   86564:	52800000 	mov	w0, #0x0                   	// #0
   86568:	a9425bf5 	ldp	x21, x22, [sp, #32]
   8656c:	a8c47bfd 	ldp	x29, x30, [sp], #64
   86570:	d65f03c0 	ret
   86574:	d503201f 	nop
   86578:	d503201f 	nop
   8657c:	d503201f 	nop

0000000000086580 <HCDTransmitFifoFlush>:
   86580:	a9bd7bfd 	stp	x29, x30, [sp, #-48]!
   86584:	910003fd 	mov	x29, sp
   86588:	a90153f3 	stp	x19, x20, [sp, #16]
   8658c:	90000073 	adrp	x19, 92000 <BitFont+0xbc0>
   86590:	b94b0261 	ldr	w1, [x19, #2816]
   86594:	a9025bf5 	stp	x21, x22, [sp, #32]
   86598:	52800215 	mov	w21, #0x10                  	// #16
   8659c:	72a01315 	movk	w21, #0x98, lsl #16
   865a0:	0b150021 	add	w1, w1, w21
   865a4:	d290d416 	mov	x22, #0x86a0                	// #34464
   865a8:	f2a00036 	movk	x22, #0x1, lsl #16
   865ac:	b9400022 	ldr	w2, [x1]
   865b0:	331a1002 	bfi	w2, w0, #6, #5
   865b4:	b9000022 	str	w2, [x1]
   865b8:	b94b0260 	ldr	w0, [x19, #2816]
   865bc:	912c0273 	add	x19, x19, #0xb00
   865c0:	0b150000 	add	w0, w0, w21
   865c4:	39400001 	ldrb	w1, [x0]
   865c8:	321b0021 	orr	w1, w1, #0x20
   865cc:	39000001 	strb	w1, [x0]
   865d0:	97fff8e0 	bl	84950 <timer_getTickCount64>
   865d4:	aa0003f4 	mov	x20, x0
   865d8:	14000005 	b	865ec <HCDTransmitFifoFlush+0x6c>
   865dc:	b9400261 	ldr	w1, [x19]
   865e0:	0b150021 	add	w1, w1, w21
   865e4:	39400021 	ldrb	w1, [x1]
   865e8:	36280181 	tbz	w1, #5, 86618 <HCDTransmitFifoFlush+0x98>
   865ec:	97fff8d9 	bl	84950 <timer_getTickCount64>
   865f0:	aa0003e1 	mov	x1, x0
   865f4:	aa1403e0 	mov	x0, x20
   865f8:	97fff8fa 	bl	849e0 <tick_difference>
   865fc:	eb16001f 	cmp	x0, x22
   86600:	54fffee9 	b.ls	865dc <HCDTransmitFifoFlush+0x5c>  // b.plast
   86604:	a94153f3 	ldp	x19, x20, [sp, #16]
   86608:	128000e0 	mov	w0, #0xfffffff8            	// #-8
   8660c:	a9425bf5 	ldp	x21, x22, [sp, #32]
   86610:	a8c37bfd 	ldp	x29, x30, [sp], #48
   86614:	d65f03c0 	ret
   86618:	a94153f3 	ldp	x19, x20, [sp, #16]
   8661c:	52800000 	mov	w0, #0x0                   	// #0
   86620:	a9425bf5 	ldp	x21, x22, [sp, #32]
   86624:	a8c37bfd 	ldp	x29, x30, [sp], #48
   86628:	d65f03c0 	ret
   8662c:	d503201f 	nop

0000000000086630 <HCDReceiveFifoFlush>:
   86630:	a9bd7bfd 	stp	x29, x30, [sp, #-48]!
   86634:	910003fd 	mov	x29, sp
   86638:	a90153f3 	stp	x19, x20, [sp, #16]
   8663c:	90000073 	adrp	x19, 92000 <BitFont+0xbc0>
   86640:	b94b0260 	ldr	w0, [x19, #2816]
   86644:	a9025bf5 	stp	x21, x22, [sp, #32]
   86648:	52800215 	mov	w21, #0x10                  	// #16
   8664c:	72a01315 	movk	w21, #0x98, lsl #16
   86650:	0b150000 	add	w0, w0, w21
   86654:	d290d416 	mov	x22, #0x86a0                	// #34464
   86658:	f2a00036 	movk	x22, #0x1, lsl #16
   8665c:	912c0273 	add	x19, x19, #0xb00
   86660:	39400001 	ldrb	w1, [x0]
   86664:	321c0021 	orr	w1, w1, #0x10
   86668:	39000001 	strb	w1, [x0]
   8666c:	97fff8b9 	bl	84950 <timer_getTickCount64>
   86670:	aa0003f4 	mov	x20, x0
   86674:	14000005 	b	86688 <HCDReceiveFifoFlush+0x58>
   86678:	b9400261 	ldr	w1, [x19]
   8667c:	0b150021 	add	w1, w1, w21
   86680:	39400021 	ldrb	w1, [x1]
   86684:	36200181 	tbz	w1, #4, 866b4 <HCDReceiveFifoFlush+0x84>
   86688:	97fff8b2 	bl	84950 <timer_getTickCount64>
   8668c:	aa0003e1 	mov	x1, x0
   86690:	aa1403e0 	mov	x0, x20
   86694:	97fff8d3 	bl	849e0 <tick_difference>
   86698:	eb16001f 	cmp	x0, x22
   8669c:	54fffee9 	b.ls	86678 <HCDReceiveFifoFlush+0x48>  // b.plast
   866a0:	a94153f3 	ldp	x19, x20, [sp, #16]
   866a4:	128000e0 	mov	w0, #0xfffffff8            	// #-8
   866a8:	a9425bf5 	ldp	x21, x22, [sp, #32]
   866ac:	a8c37bfd 	ldp	x29, x30, [sp], #48
   866b0:	d65f03c0 	ret
   866b4:	a94153f3 	ldp	x19, x20, [sp, #16]
   866b8:	52800000 	mov	w0, #0x0                   	// #0
   866bc:	a9425bf5 	ldp	x21, x22, [sp, #32]
   866c0:	a8c37bfd 	ldp	x29, x30, [sp], #48
   866c4:	d65f03c0 	ret
   866c8:	d503201f 	nop
   866cc:	d503201f 	nop

00000000000866d0 <HCDStart>:
   866d0:	a9ba7bfd 	stp	x29, x30, [sp, #-96]!
   866d4:	910003fd 	mov	x29, sp
   866d8:	a90153f3 	stp	x19, x20, [sp, #16]
   866dc:	90000073 	adrp	x19, 92000 <BitFont+0xbc0>
   866e0:	b94b0260 	ldr	w0, [x19, #2816]
   866e4:	52800194 	mov	w20, #0xc                   	// #12
   866e8:	72a01314 	movk	w20, #0x98, lsl #16
   866ec:	0b140000 	add	w0, w0, w20
   866f0:	a90363f7 	stp	x23, x24, [sp, #48]
   866f4:	b9400001 	ldr	w1, [x0]
   866f8:	b90043e1 	str	w1, [sp, #64]
   866fc:	39410be1 	ldrb	w1, [sp, #66]
   86700:	121b7821 	and	w1, w1, #0xffffffef
   86704:	39010be1 	strb	w1, [sp, #66]
   86708:	39410be1 	ldrb	w1, [sp, #66]
   8670c:	12197821 	and	w1, w1, #0xffffffbf
   86710:	39010be1 	strb	w1, [sp, #66]
   86714:	b94043e1 	ldr	w1, [sp, #64]
   86718:	b9000001 	str	w1, [x0]
   8671c:	97ffff5d 	bl	86490 <HCDReset>
   86720:	2a0003f8 	mov	w24, w0
   86724:	35001260 	cbnz	w0, 86970 <HCDStart+0x2a0>
   86728:	b0000060 	adrp	x0, 93000 <_impure_data+0x148>
   8672c:	91242000 	add	x0, x0, #0x908
   86730:	b94b0261 	ldr	w1, [x19, #2816]
   86734:	39400402 	ldrb	w2, [x0, #1]
   86738:	360013c2 	tbz	w2, #0, 869b0 <HCDStart+0x2e0>
   8673c:	b94b0260 	ldr	w0, [x19, #2816]
   86740:	a9025bf5 	stp	x21, x22, [sp, #32]
   86744:	11660002 	add	w2, w0, #0x980, lsl #12
   86748:	11003042 	add	w2, w2, #0xc
   8674c:	11660000 	add	w0, w0, #0x980, lsl #12
   86750:	11011000 	add	w0, w0, #0x44
   86754:	b9400041 	ldr	w1, [x2]
   86758:	b90043e1 	str	w1, [sp, #64]
   8675c:	b9400401 	ldr	w1, [x0, #4]
   86760:	d3461c21 	ubfx	x1, x1, #6, #2
   86764:	7100083f 	cmp	w1, #0x2
   86768:	54001460 	b.eq	869f4 <HCDStart+0x324>  // b.none
   8676c:	39410be0 	ldrb	w0, [sp, #66]
   86770:	121e7800 	and	w0, w0, #0xfffffffd
   86774:	39010be0 	strb	w0, [sp, #66]
   86778:	39410be0 	ldrb	w0, [sp, #66]
   8677c:	121c7800 	and	w0, w0, #0xfffffff7
   86780:	39010be0 	strb	w0, [sp, #66]
   86784:	b94043e0 	ldr	w0, [sp, #64]
   86788:	b9000040 	str	w0, [x2]
   8678c:	b94b0260 	ldr	w0, [x19, #2816]
   86790:	11660000 	add	w0, w0, #0x980, lsl #12
   86794:	11002000 	add	w0, w0, #0x8
   86798:	b9400001 	ldr	w1, [x0]
   8679c:	b9004be1 	str	w1, [sp, #72]
   867a0:	394123e1 	ldrb	w1, [sp, #72]
   867a4:	321b0021 	orr	w1, w1, #0x20
   867a8:	390123e1 	strb	w1, [sp, #72]
   867ac:	b9404be1 	ldr	w1, [sp, #72]
   867b0:	12087821 	and	w1, w1, #0xff7fffff
   867b4:	b9004be1 	str	w1, [sp, #72]
   867b8:	b9404be1 	ldr	w1, [sp, #72]
   867bc:	b9000001 	str	w1, [x0]
   867c0:	b94b0260 	ldr	w0, [x19, #2816]
   867c4:	11660001 	add	w1, w0, #0x980, lsl #12
   867c8:	11660000 	add	w0, w0, #0x980, lsl #12
   867cc:	11003021 	add	w1, w1, #0xc
   867d0:	11011000 	add	w0, w0, #0x44
   867d4:	b9400022 	ldr	w2, [x1]
   867d8:	b90043e2 	str	w2, [sp, #64]
   867dc:	b9400400 	ldr	w0, [x0, #4]
   867e0:	12000800 	and	w0, w0, #0x7
   867e4:	7100041f 	cmp	w0, #0x1
   867e8:	540011c0 	b.eq	86a20 <HCDStart+0x350>  // b.none
   867ec:	54000cc8 	b.hi	86984 <HCDStart+0x2b4>  // b.pmore
   867f0:	394107e0 	ldrb	w0, [sp, #65]
   867f4:	321f0000 	orr	w0, w0, #0x2
   867f8:	390107e0 	strb	w0, [sp, #65]
   867fc:	394107e0 	ldrb	w0, [sp, #65]
   86800:	32000000 	orr	w0, w0, #0x1
   86804:	390107e0 	strb	w0, [sp, #65]
   86808:	b94043e0 	ldr	w0, [sp, #64]
   8680c:	5281c002 	mov	w2, #0xe00                 	// #3584
   86810:	72a01302 	movk	w2, #0x98, lsl #16
   86814:	b9000020 	str	w0, [x1]
   86818:	5136f041 	sub	w1, w2, #0xdbc
   8681c:	b94b0260 	ldr	w0, [x19, #2816]
   86820:	0b020000 	add	w0, w0, w2
   86824:	b900001f 	str	wzr, [x0]
   86828:	b94b0260 	ldr	w0, [x19, #2816]
   8682c:	0b010001 	add	w1, w0, w1
   86830:	b9400422 	ldr	w2, [x1, #4]
   86834:	d3461c42 	ubfx	x2, x2, #6, #2
   86838:	7100085f 	cmp	w2, #0x2
   8683c:	540012a0 	b.eq	86a90 <HCDStart+0x3c0>  // b.none
   86840:	11660000 	add	w0, w0, #0x980, lsl #12
   86844:	11100000 	add	w0, w0, #0x400
   86848:	b9400001 	ldr	w1, [x0]
   8684c:	121e7421 	and	w1, w1, #0xfffffffc
   86850:	b9000001 	str	w1, [x0]
   86854:	b94b0260 	ldr	w0, [x19, #2816]
   86858:	52808001 	mov	w1, #0x400                 	// #1024
   8685c:	72a01301 	movk	w1, #0x98, lsl #16
   86860:	510f7022 	sub	w2, w1, #0x3dc
   86864:	0b010000 	add	w0, w0, w1
   86868:	528a0006 	mov	w6, #0x5000                	// #20480
   8686c:	52aa0004 	mov	w4, #0x50000000            	// #1342177280
   86870:	51005056 	sub	w22, w2, #0x14
   86874:	52800205 	mov	w5, #0x10                  	// #16
   86878:	d290d417 	mov	x23, #0x86a0                	// #34464
   8687c:	f2a00037 	movk	x23, #0x1, lsl #16
   86880:	39400001 	ldrb	w1, [x0]
   86884:	912c0274 	add	x20, x19, #0xb00
   86888:	321e0021 	orr	w1, w1, #0x4
   8688c:	39000001 	strb	w1, [x0]
   86890:	b94b0260 	ldr	w0, [x19, #2816]
   86894:	0b020000 	add	w0, w0, w2
   86898:	b9000006 	str	w6, [x0]
   8689c:	b94b0260 	ldr	w0, [x19, #2816]
   868a0:	11660003 	add	w3, w0, #0x980, lsl #12
   868a4:	11660002 	add	w2, w0, #0x980, lsl #12
   868a8:	1100a063 	add	w3, w3, #0x28
   868ac:	11040042 	add	w2, w2, #0x100
   868b0:	11660000 	add	w0, w0, #0x980, lsl #12
   868b4:	b9400061 	ldr	w1, [x3]
   868b8:	12003c21 	and	w1, w1, #0xffff
   868bc:	2a040021 	orr	w1, w1, w4
   868c0:	b9000061 	str	w1, [x3]
   868c4:	b9400061 	ldr	w1, [x3]
   868c8:	12103c21 	and	w1, w1, #0xffff0000
   868cc:	2a060021 	orr	w1, w1, w6
   868d0:	b9000061 	str	w1, [x3]
   868d4:	b9400041 	ldr	w1, [x2]
   868d8:	12003c21 	and	w1, w1, #0xffff
   868dc:	2a040021 	orr	w1, w1, w4
   868e0:	b9000041 	str	w1, [x2]
   868e4:	b9400041 	ldr	w1, [x2]
   868e8:	72940001 	movk	w1, #0xa000
   868ec:	b9000041 	str	w1, [x2]
   868f0:	b9400001 	ldr	w1, [x0]
   868f4:	b90053e1 	str	w1, [sp, #80]
   868f8:	394147e1 	ldrb	w1, [sp, #81]
   868fc:	321e0021 	orr	w1, w1, #0x4
   86900:	390147e1 	strb	w1, [sp, #81]
   86904:	b94053e1 	ldr	w1, [sp, #80]
   86908:	b9000001 	str	w1, [x0]
   8690c:	b94b0260 	ldr	w0, [x19, #2816]
   86910:	0b160000 	add	w0, w0, w22
   86914:	b9400001 	ldr	w1, [x0]
   86918:	331a10a1 	bfi	w1, w5, #6, #5
   8691c:	b9000001 	str	w1, [x0]
   86920:	b94b0260 	ldr	w0, [x19, #2816]
   86924:	0b160000 	add	w0, w0, w22
   86928:	39400001 	ldrb	w1, [x0]
   8692c:	321b0021 	orr	w1, w1, #0x20
   86930:	39000001 	strb	w1, [x0]
   86934:	97fff807 	bl	84950 <timer_getTickCount64>
   86938:	aa0003f5 	mov	x21, x0
   8693c:	14000005 	b	86950 <HCDStart+0x280>
   86940:	b9400281 	ldr	w1, [x20]
   86944:	0b160021 	add	w1, w1, w22
   86948:	39400020 	ldrb	w0, [x1]
   8694c:	36280780 	tbz	w0, #5, 86a3c <HCDStart+0x36c>
   86950:	97fff800 	bl	84950 <timer_getTickCount64>
   86954:	aa0003e1 	mov	x1, x0
   86958:	aa1503e0 	mov	x0, x21
   8695c:	97fff821 	bl	849e0 <tick_difference>
   86960:	eb17001f 	cmp	x0, x23
   86964:	54fffee9 	b.ls	86940 <HCDStart+0x270>  // b.plast
   86968:	a9425bf5 	ldp	x21, x22, [sp, #32]
   8696c:	128000f8 	mov	w24, #0xfffffff8            	// #-8
   86970:	a94153f3 	ldp	x19, x20, [sp, #16]
   86974:	2a1803e0 	mov	w0, w24
   86978:	a94363f7 	ldp	x23, x24, [sp, #48]
   8697c:	a8c67bfd 	ldp	x29, x30, [sp], #96
   86980:	d65f03c0 	ret
   86984:	51000c00 	sub	w0, w0, #0x3
   86988:	52801fa2 	mov	w2, #0xfd                  	// #253
   8698c:	6a02001f 	tst	w0, w2
   86990:	54000480 	b.eq	86a20 <HCDStart+0x350>  // b.none
   86994:	394107e0 	ldrb	w0, [sp, #65]
   86998:	121e7800 	and	w0, w0, #0xfffffffd
   8699c:	390107e0 	strb	w0, [sp, #65]
   869a0:	394107e0 	ldrb	w0, [sp, #65]
   869a4:	121f7800 	and	w0, w0, #0xfffffffe
   869a8:	390107e0 	strb	w0, [sp, #65]
   869ac:	17ffff97 	b	86808 <HCDStart+0x138>
   869b0:	0b140021 	add	w1, w1, w20
   869b4:	52800022 	mov	w2, #0x1                   	// #1
   869b8:	39000402 	strb	w2, [x0, #1]
   869bc:	b9400020 	ldr	w0, [x1]
   869c0:	b90043e0 	str	w0, [sp, #64]
   869c4:	b94043e0 	ldr	w0, [sp, #64]
   869c8:	321c0000 	orr	w0, w0, #0x10
   869cc:	b90043e0 	str	w0, [sp, #64]
   869d0:	394103e0 	ldrb	w0, [sp, #64]
   869d4:	121c7800 	and	w0, w0, #0xfffffff7
   869d8:	390103e0 	strb	w0, [sp, #64]
   869dc:	b94043e0 	ldr	w0, [sp, #64]
   869e0:	b9000020 	str	w0, [x1]
   869e4:	97fffeab 	bl	86490 <HCDReset>
   869e8:	34ffeaa0 	cbz	w0, 8673c <HCDStart+0x6c>
   869ec:	2a0003f8 	mov	w24, w0
   869f0:	17ffffe0 	b	86970 <HCDStart+0x2a0>
   869f4:	b9400400 	ldr	w0, [x0, #4]
   869f8:	d3482400 	ubfx	x0, x0, #8, #2
   869fc:	7100041f 	cmp	w0, #0x1
   86a00:	54ffeb61 	b.ne	8676c <HCDStart+0x9c>  // b.any
   86a04:	39410be0 	ldrb	w0, [sp, #66]
   86a08:	321f0000 	orr	w0, w0, #0x2
   86a0c:	39010be0 	strb	w0, [sp, #66]
   86a10:	39410be0 	ldrb	w0, [sp, #66]
   86a14:	321d0000 	orr	w0, w0, #0x8
   86a18:	39010be0 	strb	w0, [sp, #66]
   86a1c:	17ffff5a 	b	86784 <HCDStart+0xb4>
   86a20:	394107e0 	ldrb	w0, [sp, #65]
   86a24:	121e7800 	and	w0, w0, #0xfffffffd
   86a28:	390107e0 	strb	w0, [sp, #65]
   86a2c:	394107e0 	ldrb	w0, [sp, #65]
   86a30:	32000000 	orr	w0, w0, #0x1
   86a34:	390107e0 	strb	w0, [sp, #65]
   86a38:	17ffff74 	b	86808 <HCDStart+0x138>
   86a3c:	39400020 	ldrb	w0, [x1]
   86a40:	d290d416 	mov	x22, #0x86a0                	// #34464
   86a44:	f2a00036 	movk	x22, #0x1, lsl #16
   86a48:	52800217 	mov	w23, #0x10                  	// #16
   86a4c:	72a01317 	movk	w23, #0x98, lsl #16
   86a50:	321c0000 	orr	w0, w0, #0x10
   86a54:	39000020 	strb	w0, [x1]
   86a58:	97fff7be 	bl	84950 <timer_getTickCount64>
   86a5c:	aa0003f5 	mov	x21, x0
   86a60:	14000005 	b	86a74 <HCDStart+0x3a4>
   86a64:	b9400281 	ldr	w1, [x20]
   86a68:	0b170020 	add	w0, w1, w23
   86a6c:	39400002 	ldrb	w2, [x0]
   86a70:	36200282 	tbz	w2, #4, 86ac0 <HCDStart+0x3f0>
   86a74:	97fff7b7 	bl	84950 <timer_getTickCount64>
   86a78:	aa0003e1 	mov	x1, x0
   86a7c:	aa1503e0 	mov	x0, x21
   86a80:	97fff7d8 	bl	849e0 <tick_difference>
   86a84:	eb16001f 	cmp	x0, x22
   86a88:	54fffee9 	b.ls	86a64 <HCDStart+0x394>  // b.plast
   86a8c:	17ffffb7 	b	86968 <HCDStart+0x298>
   86a90:	b9400421 	ldr	w1, [x1, #4]
   86a94:	d3482421 	ubfx	x1, x1, #8, #2
   86a98:	7100043f 	cmp	w1, #0x1
   86a9c:	54ffed21 	b.ne	86840 <HCDStart+0x170>  // b.any
   86aa0:	39410be2 	ldrb	w2, [sp, #66]
   86aa4:	360fece2 	tbz	w2, #1, 86840 <HCDStart+0x170>
   86aa8:	11660000 	add	w0, w0, #0x980, lsl #12
   86aac:	11100000 	add	w0, w0, #0x400
   86ab0:	b9400002 	ldr	w2, [x0]
   86ab4:	33000422 	bfxil	w2, w1, #0, #2
   86ab8:	b9000002 	str	w2, [x0]
   86abc:	17ffff66 	b	86854 <HCDStart+0x184>
   86ac0:	11660022 	add	w2, w1, #0x980, lsl #12
   86ac4:	11011042 	add	w2, w2, #0x44
   86ac8:	b9400440 	ldr	w0, [x2, #4]
   86acc:	f2720c1f 	tst	x0, #0x3c000
   86ad0:	54001180 	b.eq	86d00 <HCDStart+0x630>  // b.none
   86ad4:	11660020 	add	w0, w1, #0x980, lsl #12
   86ad8:	528fffe5 	mov	w5, #0x7fff                	// #32767
   86adc:	72a7ffe5 	movk	w5, #0x3fff, lsl #16
   86ae0:	11140000 	add	w0, w0, #0x500
   86ae4:	52900004 	mov	w4, #0x8000                	// #32768
   86ae8:	72a80004 	movk	w4, #0x4000, lsl #16
   86aec:	b9400003 	ldr	w3, [x0]
   86af0:	0a050063 	and	w3, w3, w5
   86af4:	2a040063 	orr	w3, w3, w4
   86af8:	b9000003 	str	w3, [x0]
   86afc:	b9005be3 	str	w3, [sp, #88]
   86b00:	b9400443 	ldr	w3, [x2, #4]
   86b04:	d34e4463 	ubfx	x3, x3, #14, #4
   86b08:	7100047f 	cmp	w3, #0x1
   86b0c:	54000fa9 	b.ls	86d00 <HCDStart+0x630>  // b.plast
   86b10:	b9402003 	ldr	w3, [x0, #32]
   86b14:	0a050063 	and	w3, w3, w5
   86b18:	2a040063 	orr	w3, w3, w4
   86b1c:	b9002003 	str	w3, [x0, #32]
   86b20:	b9005be3 	str	w3, [sp, #88]
   86b24:	b9400443 	ldr	w3, [x2, #4]
   86b28:	d34e4463 	ubfx	x3, x3, #14, #4
   86b2c:	7100087f 	cmp	w3, #0x2
   86b30:	54000e89 	b.ls	86d00 <HCDStart+0x630>  // b.plast
   86b34:	b9404003 	ldr	w3, [x0, #64]
   86b38:	0a050063 	and	w3, w3, w5
   86b3c:	2a040063 	orr	w3, w3, w4
   86b40:	b9004003 	str	w3, [x0, #64]
   86b44:	b9005be3 	str	w3, [sp, #88]
   86b48:	b9400443 	ldr	w3, [x2, #4]
   86b4c:	d34e4463 	ubfx	x3, x3, #14, #4
   86b50:	71000c7f 	cmp	w3, #0x3
   86b54:	54000d69 	b.ls	86d00 <HCDStart+0x630>  // b.plast
   86b58:	b9406003 	ldr	w3, [x0, #96]
   86b5c:	0a050063 	and	w3, w3, w5
   86b60:	2a040063 	orr	w3, w3, w4
   86b64:	b9005be3 	str	w3, [sp, #88]
   86b68:	b9006003 	str	w3, [x0, #96]
   86b6c:	b9400443 	ldr	w3, [x2, #4]
   86b70:	d34e4463 	ubfx	x3, x3, #14, #4
   86b74:	7100107f 	cmp	w3, #0x4
   86b78:	54000c49 	b.ls	86d00 <HCDStart+0x630>  // b.plast
   86b7c:	b9408003 	ldr	w3, [x0, #128]
   86b80:	0a050063 	and	w3, w3, w5
   86b84:	2a040063 	orr	w3, w3, w4
   86b88:	b9005be3 	str	w3, [sp, #88]
   86b8c:	b9008003 	str	w3, [x0, #128]
   86b90:	b9400443 	ldr	w3, [x2, #4]
   86b94:	d34e4463 	ubfx	x3, x3, #14, #4
   86b98:	7100147f 	cmp	w3, #0x5
   86b9c:	54000b29 	b.ls	86d00 <HCDStart+0x630>  // b.plast
   86ba0:	b940a003 	ldr	w3, [x0, #160]
   86ba4:	0a050063 	and	w3, w3, w5
   86ba8:	2a040063 	orr	w3, w3, w4
   86bac:	b9005be3 	str	w3, [sp, #88]
   86bb0:	b900a003 	str	w3, [x0, #160]
   86bb4:	b9400443 	ldr	w3, [x2, #4]
   86bb8:	d34e4463 	ubfx	x3, x3, #14, #4
   86bbc:	7100187f 	cmp	w3, #0x6
   86bc0:	54000a09 	b.ls	86d00 <HCDStart+0x630>  // b.plast
   86bc4:	b940c003 	ldr	w3, [x0, #192]
   86bc8:	0a050063 	and	w3, w3, w5
   86bcc:	2a040063 	orr	w3, w3, w4
   86bd0:	b9005be3 	str	w3, [sp, #88]
   86bd4:	b900c003 	str	w3, [x0, #192]
   86bd8:	b9400443 	ldr	w3, [x2, #4]
   86bdc:	d34e4463 	ubfx	x3, x3, #14, #4
   86be0:	71001c7f 	cmp	w3, #0x7
   86be4:	540008e9 	b.ls	86d00 <HCDStart+0x630>  // b.plast
   86be8:	b940e003 	ldr	w3, [x0, #224]
   86bec:	0a050063 	and	w3, w3, w5
   86bf0:	2a040063 	orr	w3, w3, w4
   86bf4:	b9005be3 	str	w3, [sp, #88]
   86bf8:	b900e003 	str	w3, [x0, #224]
   86bfc:	b9400443 	ldr	w3, [x2, #4]
   86c00:	d34e4463 	ubfx	x3, x3, #14, #4
   86c04:	7100207f 	cmp	w3, #0x8
   86c08:	540007c9 	b.ls	86d00 <HCDStart+0x630>  // b.plast
   86c0c:	b9410003 	ldr	w3, [x0, #256]
   86c10:	0a050063 	and	w3, w3, w5
   86c14:	2a040063 	orr	w3, w3, w4
   86c18:	b9005be3 	str	w3, [sp, #88]
   86c1c:	b9010003 	str	w3, [x0, #256]
   86c20:	b9400443 	ldr	w3, [x2, #4]
   86c24:	d34e4463 	ubfx	x3, x3, #14, #4
   86c28:	7100247f 	cmp	w3, #0x9
   86c2c:	540006a9 	b.ls	86d00 <HCDStart+0x630>  // b.plast
   86c30:	b9412003 	ldr	w3, [x0, #288]
   86c34:	0a050063 	and	w3, w3, w5
   86c38:	2a040063 	orr	w3, w3, w4
   86c3c:	b9005be3 	str	w3, [sp, #88]
   86c40:	b9012003 	str	w3, [x0, #288]
   86c44:	b9400443 	ldr	w3, [x2, #4]
   86c48:	d34e4463 	ubfx	x3, x3, #14, #4
   86c4c:	7100287f 	cmp	w3, #0xa
   86c50:	54000589 	b.ls	86d00 <HCDStart+0x630>  // b.plast
   86c54:	b9414003 	ldr	w3, [x0, #320]
   86c58:	0a050063 	and	w3, w3, w5
   86c5c:	2a040063 	orr	w3, w3, w4
   86c60:	b9005be3 	str	w3, [sp, #88]
   86c64:	b9014003 	str	w3, [x0, #320]
   86c68:	b9400443 	ldr	w3, [x2, #4]
   86c6c:	d34e4463 	ubfx	x3, x3, #14, #4
   86c70:	71002c7f 	cmp	w3, #0xb
   86c74:	54000469 	b.ls	86d00 <HCDStart+0x630>  // b.plast
   86c78:	b9416003 	ldr	w3, [x0, #352]
   86c7c:	0a050063 	and	w3, w3, w5
   86c80:	2a040063 	orr	w3, w3, w4
   86c84:	b9005be3 	str	w3, [sp, #88]
   86c88:	b9016003 	str	w3, [x0, #352]
   86c8c:	b9400443 	ldr	w3, [x2, #4]
   86c90:	d34e4463 	ubfx	x3, x3, #14, #4
   86c94:	7100307f 	cmp	w3, #0xc
   86c98:	54000349 	b.ls	86d00 <HCDStart+0x630>  // b.plast
   86c9c:	b9418003 	ldr	w3, [x0, #384]
   86ca0:	0a050063 	and	w3, w3, w5
   86ca4:	2a040063 	orr	w3, w3, w4
   86ca8:	b9005be3 	str	w3, [sp, #88]
   86cac:	b9018003 	str	w3, [x0, #384]
   86cb0:	b9400443 	ldr	w3, [x2, #4]
   86cb4:	d34e4463 	ubfx	x3, x3, #14, #4
   86cb8:	7100347f 	cmp	w3, #0xd
   86cbc:	54000229 	b.ls	86d00 <HCDStart+0x630>  // b.plast
   86cc0:	b941a003 	ldr	w3, [x0, #416]
   86cc4:	0a050063 	and	w3, w3, w5
   86cc8:	2a040063 	orr	w3, w3, w4
   86ccc:	b9005be3 	str	w3, [sp, #88]
   86cd0:	b901a003 	str	w3, [x0, #416]
   86cd4:	b9400443 	ldr	w3, [x2, #4]
   86cd8:	d34e4463 	ubfx	x3, x3, #14, #4
   86cdc:	71003c7f 	cmp	w3, #0xf
   86ce0:	54000101 	b.ne	86d00 <HCDStart+0x630>  // b.any
   86ce4:	b941c003 	ldr	w3, [x0, #448]
   86ce8:	0a050063 	and	w3, w3, w5
   86cec:	2a040063 	orr	w3, w3, w4
   86cf0:	b9005be3 	str	w3, [sp, #88]
   86cf4:	b901c003 	str	w3, [x0, #448]
   86cf8:	b9400440 	ldr	w0, [x2, #4]
   86cfc:	d503201f 	nop
   86d00:	52808800 	mov	w0, #0x440                 	// #1088
   86d04:	72a01300 	movk	w0, #0x98, lsl #16
   86d08:	0b000021 	add	w1, w1, w0
   86d0c:	b9400022 	ldr	w2, [x1]
   86d10:	b9005be2 	str	w2, [sp, #88]
   86d14:	394167e2 	ldrb	w2, [sp, #89]
   86d18:	37200182 	tbnz	w2, #4, 86d48 <HCDStart+0x678>
   86d1c:	b9405be2 	ldr	w2, [sp, #88]
   86d20:	128005c3 	mov	w3, #0xffffffd1            	// #-47
   86d24:	0a030042 	and	w2, w2, w3
   86d28:	b9005be2 	str	w2, [sp, #88]
   86d2c:	394167e2 	ldrb	w2, [sp, #89]
   86d30:	321c0042 	orr	w2, w2, #0x10
   86d34:	390167e2 	strb	w2, [sp, #89]
   86d38:	b9405be2 	ldr	w2, [sp, #88]
   86d3c:	b9000022 	str	w2, [x1]
   86d40:	b94b0261 	ldr	w1, [x19, #2816]
   86d44:	0b000021 	add	w1, w1, w0
   86d48:	b9400020 	ldr	w0, [x1]
   86d4c:	128005d4 	mov	w20, #0xffffffd1            	// #-47
   86d50:	b9005be0 	str	w0, [sp, #88]
   86d54:	d29d4c00 	mov	x0, #0xea60                	// #60000
   86d58:	b9405be2 	ldr	w2, [sp, #88]
   86d5c:	0a140042 	and	w2, w2, w20
   86d60:	b9005be2 	str	w2, [sp, #88]
   86d64:	394167e2 	ldrb	w2, [sp, #89]
   86d68:	32000042 	orr	w2, w2, #0x1
   86d6c:	390167e2 	strb	w2, [sp, #89]
   86d70:	b9405be2 	ldr	w2, [sp, #88]
   86d74:	b9000022 	str	w2, [x1]
   86d78:	97fff702 	bl	84980 <timer_wait>
   86d7c:	b94b0260 	ldr	w0, [x19, #2816]
   86d80:	a9425bf5 	ldp	x21, x22, [sp, #32]
   86d84:	11660000 	add	w0, w0, #0x980, lsl #12
   86d88:	11110000 	add	w0, w0, #0x440
   86d8c:	b9400001 	ldr	w1, [x0]
   86d90:	b9005be1 	str	w1, [sp, #88]
   86d94:	b9405be1 	ldr	w1, [sp, #88]
   86d98:	0a140021 	and	w1, w1, w20
   86d9c:	b9005be1 	str	w1, [sp, #88]
   86da0:	a94153f3 	ldp	x19, x20, [sp, #16]
   86da4:	394167e1 	ldrb	w1, [sp, #89]
   86da8:	121f7821 	and	w1, w1, #0xfffffffe
   86dac:	390167e1 	strb	w1, [sp, #89]
   86db0:	b9405be1 	ldr	w1, [sp, #88]
   86db4:	b9000001 	str	w1, [x0]
   86db8:	2a1803e0 	mov	w0, w24
   86dbc:	a94363f7 	ldp	x23, x24, [sp, #48]
   86dc0:	a8c67bfd 	ldp	x29, x30, [sp], #96
   86dc4:	d65f03c0 	ret
   86dc8:	d503201f 	nop
   86dcc:	d503201f 	nop

0000000000086dd0 <HCDCheckErrorAndAction>:
   86dd0:	d10043ff 	sub	sp, sp, #0x10
   86dd4:	b9000be0 	str	w0, [sp, #8]
   86dd8:	39400c40 	ldrb	w0, [x2, #3]
   86ddc:	394023e3 	ldrb	w3, [sp, #8]
   86de0:	121a7400 	and	w0, w0, #0xffffffcf
   86de4:	39000c40 	strb	w0, [x2, #3]
   86de8:	37100963 	tbnz	w3, #2, 86f14 <HCDCheckErrorAndAction+0x144>
   86dec:	394027e0 	ldrb	w0, [sp, #9]
   86df0:	37100880 	tbnz	w0, #2, 86f00 <HCDCheckErrorAndAction+0x130>
   86df4:	394023e0 	ldrb	w0, [sp, #8]
   86df8:	37280560 	tbnz	w0, #5, 86ea4 <HCDCheckErrorAndAction+0xd4>
   86dfc:	12001c21 	and	w1, w1, #0xff
   86e00:	370003e1 	tbnz	w1, #0, 86e7c <HCDCheckErrorAndAction+0xac>
   86e04:	39400440 	ldrb	w0, [x2, #1]
   86e08:	11000400 	add	w0, w0, #0x1
   86e0c:	12001c00 	and	w0, w0, #0xff
   86e10:	39000440 	strb	w0, [x2, #1]
   86e14:	71000c1f 	cmp	w0, #0x3
   86e18:	54000740 	b.eq	86f00 <HCDCheckErrorAndAction+0x130>  // b.none
   86e1c:	b9400040 	ldr	w0, [x2]
   86e20:	32030000 	orr	w0, w0, #0x20000000
   86e24:	b9000040 	str	w0, [x2]
   86e28:	394023e0 	ldrb	w0, [sp, #8]
   86e2c:	37180060 	tbnz	w0, #3, 86e38 <HCDCheckErrorAndAction+0x68>
   86e30:	394027e0 	ldrb	w0, [sp, #9]
   86e34:	36000520 	tbz	w0, #0, 86ed8 <HCDCheckErrorAndAction+0x108>
   86e38:	39400840 	ldrb	w0, [x2, #2]
   86e3c:	11000400 	add	w0, w0, #0x1
   86e40:	12001c00 	and	w0, w0, #0xff
   86e44:	39000840 	strb	w0, [x2, #2]
   86e48:	71000c1f 	cmp	w0, #0x3
   86e4c:	54000720 	b.eq	86f30 <HCDCheckErrorAndAction+0x160>  // b.none
   86e50:	394023e0 	ldrb	w0, [sp, #8]
   86e54:	371806a0 	tbnz	w0, #3, 86f28 <HCDCheckErrorAndAction+0x158>
   86e58:	394027e0 	ldrb	w0, [sp, #9]
   86e5c:	370004a0 	tbnz	w0, #0, 86ef0 <HCDCheckErrorAndAction+0x120>
   86e60:	394027e0 	ldrb	w0, [sp, #9]
   86e64:	37080460 	tbnz	w0, #1, 86ef0 <HCDCheckErrorAndAction+0x120>
   86e68:	394023e0 	ldrb	w0, [sp, #8]
   86e6c:	37380420 	tbnz	w0, #7, 86ef0 <HCDCheckErrorAndAction+0x120>
   86e70:	12800000 	mov	w0, #0xffffffff            	// #-1
   86e74:	910043ff 	add	sp, sp, #0x10
   86e78:	d65f03c0 	ret
   86e7c:	39400040 	ldrb	w0, [x2]
   86e80:	11000400 	add	w0, w0, #0x1
   86e84:	12001c00 	and	w0, w0, #0xff
   86e88:	39000040 	strb	w0, [x2]
   86e8c:	7100141f 	cmp	w0, #0x5
   86e90:	54000380 	b.eq	86f00 <HCDCheckErrorAndAction+0x130>  // b.none
   86e94:	b9400040 	ldr	w0, [x2]
   86e98:	32040000 	orr	w0, w0, #0x10000000
   86e9c:	b9000040 	str	w0, [x2]
   86ea0:	17ffffe2 	b	86e28 <HCDCheckErrorAndAction+0x58>
   86ea4:	394023e0 	ldrb	w0, [sp, #8]
   86ea8:	37000100 	tbnz	w0, #0, 86ec8 <HCDCheckErrorAndAction+0xf8>
   86eac:	b9400040 	ldr	w0, [x2]
   86eb0:	32040000 	orr	w0, w0, #0x10000000
   86eb4:	b9000040 	str	w0, [x2]
   86eb8:	3900085f 	strb	wzr, [x2, #2]
   86ebc:	52800000 	mov	w0, #0x0                   	// #0
   86ec0:	910043ff 	add	sp, sp, #0x10
   86ec4:	d65f03c0 	ret
   86ec8:	b9400040 	ldr	w0, [x2]
   86ecc:	32010000 	orr	w0, w0, #0x80000000
   86ed0:	b9000040 	str	w0, [x2]
   86ed4:	17fffff9 	b	86eb8 <HCDCheckErrorAndAction+0xe8>
   86ed8:	394027e0 	ldrb	w0, [sp, #9]
   86edc:	370ffae0 	tbnz	w0, #1, 86e38 <HCDCheckErrorAndAction+0x68>
   86ee0:	394023e0 	ldrb	w0, [sp, #8]
   86ee4:	37200060 	tbnz	w0, #4, 86ef0 <HCDCheckErrorAndAction+0x120>
   86ee8:	394023e0 	ldrb	w0, [sp, #8]
   86eec:	36300060 	tbz	w0, #6, 86ef8 <HCDCheckErrorAndAction+0x128>
   86ef0:	12800120 	mov	w0, #0xfffffff6            	// #-10
   86ef4:	17ffffe0 	b	86e74 <HCDCheckErrorAndAction+0xa4>
   86ef8:	128000e0 	mov	w0, #0xfffffff8            	// #-8
   86efc:	17ffffde 	b	86e74 <HCDCheckErrorAndAction+0xa4>
   86f00:	b9400040 	ldr	w0, [x2]
   86f04:	32020000 	orr	w0, w0, #0x40000000
   86f08:	b9000040 	str	w0, [x2]
   86f0c:	12800120 	mov	w0, #0xfffffff6            	// #-10
   86f10:	17ffffd9 	b	86e74 <HCDCheckErrorAndAction+0xa4>
   86f14:	b9400041 	ldr	w1, [x2]
   86f18:	12800060 	mov	w0, #0xfffffffc            	// #-4
   86f1c:	32020021 	orr	w1, w1, #0x40000000
   86f20:	b9000041 	str	w1, [x2]
   86f24:	17ffffd4 	b	86e74 <HCDCheckErrorAndAction+0xa4>
   86f28:	128001e0 	mov	w0, #0xfffffff0            	// #-16
   86f2c:	17ffffd2 	b	86e74 <HCDCheckErrorAndAction+0xa4>
   86f30:	39400c40 	ldrb	w0, [x2, #3]
   86f34:	12197000 	and	w0, w0, #0xffffff8f
   86f38:	321a0000 	orr	w0, w0, #0x40
   86f3c:	39000c40 	strb	w0, [x2, #3]
   86f40:	12800120 	mov	w0, #0xfffffff6            	// #-10
   86f44:	17ffffcc 	b	86e74 <HCDCheckErrorAndAction+0xa4>
   86f48:	d503201f 	nop
   86f4c:	d503201f 	nop

0000000000086f50 <HCDWaitOnTransmissionResult>:
   86f50:	a9bb7bfd 	stp	x29, x30, [sp, #-80]!
   86f54:	910003fd 	mov	x29, sp
   86f58:	a9025bf5 	stp	x21, x22, [sp, #32]
   86f5c:	12001c36 	and	w22, w1, #0xff
   86f60:	90000075 	adrp	x21, 92000 <BitFont+0xbc0>
   86f64:	912c02b5 	add	x21, x21, #0xb00
   86f68:	d37b1ed6 	ubfiz	x22, x22, #5, #8
   86f6c:	a90153f3 	stp	x19, x20, [sp, #16]
   86f70:	2a0003f3 	mov	w19, w0
   86f74:	a90363f7 	stp	x23, x24, [sp, #48]
   86f78:	aa0203f8 	mov	x24, x2
   86f7c:	5280a017 	mov	w23, #0x500                 	// #1280
   86f80:	72a01317 	movk	w23, #0x98, lsl #16
   86f84:	97fff673 	bl	84950 <timer_getTickCount64>
   86f88:	aa0003f4 	mov	x20, x0
   86f8c:	14000008 	b	86fac <HCDWaitOnTransmissionResult+0x5c>
   86f90:	b94002a1 	ldr	w1, [x21]
   86f94:	0b170021 	add	w1, w1, w23
   86f98:	8b160021 	add	x1, x1, x22
   86f9c:	b9400820 	ldr	w0, [x1, #8]
   86fa0:	b9004be0 	str	w0, [sp, #72]
   86fa4:	394123e1 	ldrb	w1, [sp, #72]
   86fa8:	37080241 	tbnz	w1, #1, 86ff0 <HCDWaitOnTransmissionResult+0xa0>
   86fac:	d2800c80 	mov	x0, #0x64                  	// #100
   86fb0:	97fff674 	bl	84980 <timer_wait>
   86fb4:	97fff667 	bl	84950 <timer_getTickCount64>
   86fb8:	aa0003e1 	mov	x1, x0
   86fbc:	aa1403e0 	mov	x0, x20
   86fc0:	97fff688 	bl	849e0 <tick_difference>
   86fc4:	eb13001f 	cmp	x0, x19
   86fc8:	54fffe49 	b.ls	86f90 <HCDWaitOnTransmissionResult+0x40>  // b.plast
   86fcc:	b4000078 	cbz	x24, 86fd8 <HCDWaitOnTransmissionResult+0x88>
   86fd0:	b9404be0 	ldr	w0, [sp, #72]
   86fd4:	b9000300 	str	w0, [x24]
   86fd8:	a94153f3 	ldp	x19, x20, [sp, #16]
   86fdc:	128000e0 	mov	w0, #0xfffffff8            	// #-8
   86fe0:	a9425bf5 	ldp	x21, x22, [sp, #32]
   86fe4:	a94363f7 	ldp	x23, x24, [sp, #48]
   86fe8:	a8c57bfd 	ldp	x29, x30, [sp], #80
   86fec:	d65f03c0 	ret
   86ff0:	b4000058 	cbz	x24, 86ff8 <HCDWaitOnTransmissionResult+0xa8>
   86ff4:	b9000300 	str	w0, [x24]
   86ff8:	a94153f3 	ldp	x19, x20, [sp, #16]
   86ffc:	52800000 	mov	w0, #0x0                   	// #0
   87000:	a9425bf5 	ldp	x21, x22, [sp, #32]
   87004:	a94363f7 	ldp	x23, x24, [sp, #48]
   87008:	a8c57bfd 	ldp	x29, x30, [sp], #80
   8700c:	d65f03c0 	ret

0000000000087010 <HCDChannelTransfer>:
   87010:	a9b47bfd 	stp	x29, x30, [sp, #-192]!
   87014:	910003fd 	mov	x29, sp
   87018:	f0000045 	adrp	x5, 92000 <BitFont+0xbc0>
   8701c:	b94b00a5 	ldr	w5, [x5, #2816]
   87020:	b90083e1 	str	w1, [sp, #128]
   87024:	116600a1 	add	w1, w5, #0x980, lsl #12
   87028:	a9046bf9 	stp	x25, x26, [sp, #64]
   8702c:	11011021 	add	w1, w1, #0x44
   87030:	b9008be0 	str	w0, [sp, #136]
   87034:	b9009bff 	str	wzr, [sp, #152]
   87038:	39420bf9 	ldrb	w25, [sp, #130]
   8703c:	b9400421 	ldr	w1, [x1, #4]
   87040:	f90033e2 	str	x2, [sp, #96]
   87044:	d34e4421 	ubfx	x1, x1, #14, #4
   87048:	6b19003f 	cmp	w1, w25
   8704c:	54002743 	b.cc	87534 <HCDChannelTransfer+0x524>  // b.lo, b.ul, b.last
   87050:	f94047e0 	ldr	x0, [sp, #136]
   87054:	a90153f3 	stp	x19, x20, [sp, #16]
   87058:	a9025bf5 	stp	x21, x22, [sp, #32]
   8705c:	72000400 	ands	w0, w0, #0x3
   87060:	a90363f7 	stp	x23, x24, [sp, #48]
   87064:	a90573fb 	stp	x27, x28, [sp, #80]
   87068:	2a0303fb 	mov	w27, w3
   8706c:	54002120 	b.eq	87490 <HCDChannelTransfer+0x480>  // b.none
   87070:	7100041f 	cmp	w0, #0x1
   87074:	540023c0 	b.eq	874ec <HCDChannelTransfer+0x4dc>  // b.none
   87078:	7100081f 	cmp	w0, #0x2
   8707c:	5280080a 	mov	w10, #0x40                  	// #64
   87080:	52800400 	mov	w0, #0x20                  	// #32
   87084:	1a80114b 	csel	w11, w10, w0, ne	// ne = any
   87088:	2a0b03ea 	mov	w10, w11
   8708c:	116600a1 	add	w1, w5, #0x980, lsl #12
   87090:	d37b1f33 	ubfiz	x19, x25, #5, #8
   87094:	11140021 	add	w1, w1, #0x500
   87098:	12800000 	mov	w0, #0xffffffff            	// #-1
   8709c:	394223e5 	ldrb	w5, [sp, #136]
   870a0:	2a1903e6 	mov	w6, w25
   870a4:	8b214263 	add	x3, x19, w1, uxtw
   870a8:	394227e7 	ldrb	w7, [sp, #137]
   870ac:	121e04a5 	and	w5, w5, #0xc
   870b0:	390287ff 	strb	wzr, [sp, #161]
   870b4:	710020bf 	cmp	w5, #0x8
   870b8:	39028bff 	strb	wzr, [sp, #162]
   870bc:	b9000860 	str	w0, [x3, #8]
   870c0:	1a9f17e8 	cset	w8, eq	// eq = none
   870c4:	b9000c7f 	str	wzr, [x3, #12]
   870c8:	530a18e7 	ubfiz	w7, w7, #22, #7
   870cc:	39028fff 	strb	wzr, [sp, #163]
   870d0:	5280ffed 	mov	w13, #0x7ff                 	// #2047
   870d4:	72bc062d 	movk	w13, #0xe031, lsl #16
   870d8:	f90037e6 	str	x6, [sp, #104]
   870dc:	a9480be0 	ldp	x0, x2, [sp, #128]
   870e0:	b900abff 	str	wzr, [sp, #168]
   870e4:	b940a3e6 	ldr	w6, [sp, #160]
   870e8:	12004b6c 	and	w12, w27, #0x7ffff
   870ec:	0a0d00c6 	and	w6, w6, w13
   870f0:	53041c42 	ubfx	w2, w2, #4, #4
   870f4:	53186009 	ubfx	w9, w0, #24, #1
   870f8:	530e3c00 	ubfx	w0, w0, #14, #2
   870fc:	53155042 	lsl	w2, w2, #11
   87100:	2a093c42 	orr	w2, w2, w9, lsl #15
   87104:	2a084442 	orr	w2, w2, w8, lsl #17
   87108:	2a004840 	orr	w0, w2, w0, lsl #18
   8710c:	2a070000 	orr	w0, w0, w7
   87110:	2a060000 	orr	w0, w0, w6
   87114:	33002940 	bfxil	w0, w10, #0, #11
   87118:	b900a3e0 	str	w0, [sp, #160]
   8711c:	b8214a60 	str	w0, [x19, w1, uxtw]
   87120:	35000ba5 	cbnz	w5, 87294 <HCDChannelTransfer+0x284>
   87124:	b900047f 	str	wzr, [x3, #4]
   87128:	790167ff 	strh	wzr, [sp, #178]
   8712c:	b940b3e0 	ldr	w0, [sp, #176]
   87130:	33004980 	bfxil	w0, w12, #0, #19
   87134:	b900b3e0 	str	w0, [sp, #176]
   87138:	51000760 	sub	w0, w27, #0x1
   8713c:	0b0b0000 	add	w0, w0, w11
   87140:	1acb0800 	udiv	w0, w0, w11
   87144:	12002400 	and	w0, w0, #0x3ff
   87148:	7100001f 	cmp	w0, #0x0
   8714c:	794167e5 	ldrh	w5, [sp, #178]
   87150:	1a9f1400 	csinc	w0, w0, wzr, ne	// ne = any
   87154:	12000482 	and	w2, w4, #0x3
   87158:	12114ca4 	and	w4, w5, #0xffff8007
   8715c:	f0000056 	adrp	x22, 92000 <BitFont+0xbc0>
   87160:	912c02d6 	add	x22, x22, #0xb00
   87164:	531d3000 	ubfiz	w0, w0, #3, #13
   87168:	2a023400 	orr	w0, w0, w2, lsl #13
   8716c:	5280a015 	mov	w21, #0x500                 	// #1280
   87170:	72a01315 	movk	w21, #0x98, lsl #16
   87174:	2a040000 	orr	w0, w0, w4
   87178:	790167e0 	strh	w0, [sp, #178]
   8717c:	5280001c 	mov	w28, #0x0                   	// #0
   87180:	12800018 	mov	w24, #0xffffffff            	// #-1
   87184:	b940b3e0 	ldr	w0, [sp, #176]
   87188:	b9001060 	str	w0, [x3, #16]
   8718c:	f94033e0 	ldr	x0, [sp, #96]
   87190:	8b214274 	add	x20, x19, w1, uxtw
   87194:	b9000a98 	str	w24, [x20, #8]
   87198:	8b3c401a 	add	x26, x0, w28, uxtw
   8719c:	b9000e9f 	str	wzr, [x20, #12]
   871a0:	72000740 	ands	w0, w26, #0x3
   871a4:	b90077e0 	str	w0, [sp, #116]
   871a8:	b9400680 	ldr	w0, [x20, #4]
   871ac:	120f7800 	and	w0, w0, #0xfffeffff
   871b0:	b900abe0 	str	w0, [sp, #168]
   871b4:	b9000680 	str	w0, [x20, #4]
   871b8:	540013e0 	b.eq	87434 <HCDChannelTransfer+0x424>  // b.none
   871bc:	39420fe0 	ldrb	w0, [sp, #131]
   871c0:	b00000b7 	adrp	x23, 9c000 <DeviceTable+0x7d60>
   871c4:	910a82f7 	add	x23, x23, #0x2a0
   871c8:	360016a0 	tbz	w0, #0, 8749c <HCDChannelTransfer+0x48c>
   871cc:	f94037e0 	ldr	x0, [sp, #104]
   871d0:	d376d403 	lsl	x3, x0, #10
   871d4:	8b0302e0 	add	x0, x23, x3
   871d8:	97ffe793 	bl	81024 <ARMaddrToGPUaddr>
   871dc:	b9001680 	str	w0, [x20, #20]
   871e0:	b94002c1 	ldr	w1, [x22]
   871e4:	5287f9e3 	mov	w3, #0x3fcf                	// #16335
   871e8:	128ffde2 	mov	w2, #0xffff8010            	// #-32752
   871ec:	d2827117 	mov	x23, #0x1388                	// #5000
   871f0:	0b150021 	add	w1, w1, w21
   871f4:	b8614a60 	ldr	w0, [x19, w1, uxtw]
   871f8:	b900a3e0 	str	w0, [sp, #160]
   871fc:	794147e0 	ldrh	w0, [sp, #162]
   87200:	0a030000 	and	w0, w0, w3
   87204:	2a020000 	orr	w0, w0, w2
   87208:	790147e0 	strh	w0, [sp, #162]
   8720c:	b940a3e0 	ldr	w0, [sp, #160]
   87210:	b8214a60 	str	w0, [x19, w1, uxtw]
   87214:	97fff5cf 	bl	84950 <timer_getTickCount64>
   87218:	aa0003f4 	mov	x20, x0
   8721c:	14000008 	b	8723c <HCDChannelTransfer+0x22c>
   87220:	b94002c1 	ldr	w1, [x22]
   87224:	0b150021 	add	w1, w1, w21
   87228:	8b130021 	add	x1, x1, x19
   8722c:	b9400820 	ldr	w0, [x1, #8]
   87230:	b900bbe0 	str	w0, [sp, #184]
   87234:	3942e3e2 	ldrb	w2, [sp, #184]
   87238:	37080482 	tbnz	w2, #1, 872c8 <HCDChannelTransfer+0x2b8>
   8723c:	d2800c80 	mov	x0, #0x64                  	// #100
   87240:	97fff5d0 	bl	84980 <timer_wait>
   87244:	97fff5c3 	bl	84950 <timer_getTickCount64>
   87248:	aa0003e1 	mov	x1, x0
   8724c:	aa1403e0 	mov	x0, x20
   87250:	97fff5e4 	bl	849e0 <tick_difference>
   87254:	eb17001f 	cmp	x0, x23
   87258:	54fffe49 	b.ls	87220 <HCDChannelTransfer+0x210>  // b.plast
   8725c:	b0000040 	adrp	x0, 90000 <__sflush_r+0x40>
   87260:	9118e000 	add	x0, x0, #0x638
   87264:	2a1903e1 	mov	w1, w25
   87268:	97ffea3a 	bl	81b50 <printf>
   8726c:	d503201f 	nop
   87270:	a94153f3 	ldp	x19, x20, [sp, #16]
   87274:	128000e1 	mov	w1, #0xfffffff8            	// #-8
   87278:	a9425bf5 	ldp	x21, x22, [sp, #32]
   8727c:	a94363f7 	ldp	x23, x24, [sp, #48]
   87280:	a94573fb 	ldp	x27, x28, [sp, #80]
   87284:	2a0103e0 	mov	w0, w1
   87288:	a9446bf9 	ldp	x25, x26, [sp, #64]
   8728c:	a8cc7bfd 	ldp	x29, x30, [sp], #192
   87290:	d65f03c0 	ret
   87294:	f94047e0 	ldr	x0, [sp, #136]
   87298:	790167ff 	strh	wzr, [sp, #178]
   8729c:	53127c00 	lsr	w0, w0, #18
   872a0:	32010000 	orr	w0, w0, #0x80000000
   872a4:	b9000460 	str	w0, [x3, #4]
   872a8:	b900abe0 	str	w0, [sp, #168]
   872ac:	b940b3e0 	ldr	w0, [sp, #176]
   872b0:	33004980 	bfxil	w0, w12, #0, #19
   872b4:	b900b3e0 	str	w0, [sp, #176]
   872b8:	54fff401 	b.ne	87138 <HCDChannelTransfer+0x128>  // b.any
   872bc:	11001f60 	add	w0, w27, #0x7
   872c0:	d3433000 	ubfx	x0, x0, #3, #10
   872c4:	17ffffa1 	b	87148 <HCDChannelTransfer+0x138>
   872c8:	b9400421 	ldr	w1, [x1, #4]
   872cc:	910263e2 	add	x2, sp, #0x98
   872d0:	b900abe1 	str	w1, [sp, #168]
   872d4:	b90093e0 	str	w0, [sp, #144]
   872d8:	f94057e1 	ldr	x1, [sp, #168]
   872dc:	531f7c21 	lsr	w1, w1, #31
   872e0:	97fffebc 	bl	86dd0 <HCDCheckErrorAndAction>
   872e4:	2a0003e1 	mov	w1, w0
   872e8:	35000be0 	cbnz	w0, 87464 <HCDChannelTransfer+0x454>
   872ec:	b9409bf4 	ldr	w20, [sp, #152]
   872f0:	37f00ab4 	tbnz	w20, #30, 87444 <HCDChannelTransfer+0x434>
   872f4:	390263ff 	strb	wzr, [sp, #152]
   872f8:	b9409bf4 	ldr	w20, [sp, #152]
   872fc:	36e00754 	tbz	w20, #28, 873e4 <HCDChannelTransfer+0x3d4>
   87300:	d2827117 	mov	x23, #0x1388                	// #5000
   87304:	d503201f 	nop
   87308:	b94002c1 	ldr	w1, [x22]
   8730c:	0b150020 	add	w0, w1, w21
   87310:	0b150021 	add	w1, w1, w21
   87314:	8b130000 	add	x0, x0, x19
   87318:	b9000818 	str	w24, [x0, #8]
   8731c:	b9000c1f 	str	wzr, [x0, #12]
   87320:	b9400402 	ldr	w2, [x0, #4]
   87324:	32100042 	orr	w2, w2, #0x10000
   87328:	b900abe2 	str	w2, [sp, #168]
   8732c:	b9000402 	str	w2, [x0, #4]
   87330:	b8614a60 	ldr	w0, [x19, w1, uxtw]
   87334:	b900a3e0 	str	w0, [sp, #160]
   87338:	39428fe0 	ldrb	w0, [sp, #163]
   8733c:	12001400 	and	w0, w0, #0x3f
   87340:	32196000 	orr	w0, w0, #0xffffff80
   87344:	39028fe0 	strb	w0, [sp, #163]
   87348:	b940a3e0 	ldr	w0, [sp, #160]
   8734c:	b8214a60 	str	w0, [x19, w1, uxtw]
   87350:	97fff580 	bl	84950 <timer_getTickCount64>
   87354:	aa0003f4 	mov	x20, x0
   87358:	14000008 	b	87378 <HCDChannelTransfer+0x368>
   8735c:	b94002c1 	ldr	w1, [x22]
   87360:	0b150021 	add	w1, w1, w21
   87364:	8b130021 	add	x1, x1, x19
   87368:	b9400820 	ldr	w0, [x1, #8]
   8736c:	b900bbe0 	str	w0, [sp, #184]
   87370:	3942e3e2 	ldrb	w2, [sp, #184]
   87374:	370801c2 	tbnz	w2, #1, 873ac <HCDChannelTransfer+0x39c>
   87378:	d2800c80 	mov	x0, #0x64                  	// #100
   8737c:	97fff581 	bl	84980 <timer_wait>
   87380:	97fff574 	bl	84950 <timer_getTickCount64>
   87384:	aa0003e1 	mov	x1, x0
   87388:	aa1403e0 	mov	x0, x20
   8738c:	97fff595 	bl	849e0 <tick_difference>
   87390:	eb17001f 	cmp	x0, x23
   87394:	54fffe49 	b.ls	8735c <HCDChannelTransfer+0x34c>  // b.plast
   87398:	2a1903e1 	mov	w1, w25
   8739c:	b0000040 	adrp	x0, 90000 <__sflush_r+0x40>
   873a0:	911ae000 	add	x0, x0, #0x6b8
   873a4:	97ffe9eb 	bl	81b50 <printf>
   873a8:	17ffffb2 	b	87270 <HCDChannelTransfer+0x260>
   873ac:	b9400421 	ldr	w1, [x1, #4]
   873b0:	910263e2 	add	x2, sp, #0x98
   873b4:	b900abe1 	str	w1, [sp, #168]
   873b8:	b90093e0 	str	w0, [sp, #144]
   873bc:	f94057e1 	ldr	x1, [sp, #168]
   873c0:	531f7c21 	lsr	w1, w1, #31
   873c4:	97fffe83 	bl	86dd0 <HCDCheckErrorAndAction>
   873c8:	b9409bf4 	ldr	w20, [sp, #152]
   873cc:	2a0003e1 	mov	w1, w0
   873d0:	37f003b4 	tbnz	w20, #30, 87444 <HCDChannelTransfer+0x434>
   873d4:	36d80294 	tbz	w20, #27, 87424 <HCDChannelTransfer+0x414>
   873d8:	d284e200 	mov	x0, #0x2710                	// #10000
   873dc:	97fff569 	bl	84980 <timer_wait>
   873e0:	37e7f954 	tbnz	w20, #28, 87308 <HCDChannelTransfer+0x2f8>
   873e4:	b94002c5 	ldr	w5, [x22]
   873e8:	5280a003 	mov	w3, #0x500                 	// #1280
   873ec:	72a01303 	movk	w3, #0x98, lsl #16
   873f0:	0b0300a0 	add	w0, w5, w3
   873f4:	0b0300a1 	add	w1, w5, w3
   873f8:	8b130000 	add	x0, x0, x19
   873fc:	37f80694 	tbnz	w20, #31, 874cc <HCDChannelTransfer+0x4bc>
   87400:	b9401000 	ldr	w0, [x0, #16]
   87404:	f26d241f 	tst	x0, #0x1ff80000
   87408:	54ffec21 	b.ne	8718c <HCDChannelTransfer+0x17c>  // b.any
   8740c:	a94153f3 	ldp	x19, x20, [sp, #16]
   87410:	52800001 	mov	w1, #0x0                   	// #0
   87414:	a9425bf5 	ldp	x21, x22, [sp, #32]
   87418:	a94363f7 	ldp	x23, x24, [sp, #48]
   8741c:	a94573fb 	ldp	x27, x28, [sp, #80]
   87420:	17ffff99 	b	87284 <HCDChannelTransfer+0x274>
   87424:	d2813880 	mov	x0, #0x9c4                 	// #2500
   87428:	97fff556 	bl	84980 <timer_wait>
   8742c:	37e7f6f4 	tbnz	w20, #28, 87308 <HCDChannelTransfer+0x2f8>
   87430:	17ffffed 	b	873e4 <HCDChannelTransfer+0x3d4>
   87434:	aa1a03e0 	mov	x0, x26
   87438:	97ffe6fb 	bl	81024 <ARMaddrToGPUaddr>
   8743c:	b9001680 	str	w0, [x20, #20]
   87440:	17ffff68 	b	871e0 <HCDChannelTransfer+0x1d0>
   87444:	a94153f3 	ldp	x19, x20, [sp, #16]
   87448:	2a0103e0 	mov	w0, w1
   8744c:	a9425bf5 	ldp	x21, x22, [sp, #32]
   87450:	a94363f7 	ldp	x23, x24, [sp, #48]
   87454:	a9446bf9 	ldp	x25, x26, [sp, #64]
   87458:	a94573fb 	ldp	x27, x28, [sp, #80]
   8745c:	a8cc7bfd 	ldp	x29, x30, [sp], #192
   87460:	d65f03c0 	ret
   87464:	b94093e3 	ldr	w3, [sp, #144]
   87468:	b0000040 	adrp	x0, 90000 <__sflush_r+0x40>
   8746c:	9119a000 	add	x0, x0, #0x668
   87470:	b940abe4 	ldr	w4, [sp, #168]
   87474:	b9409bf4 	ldr	w20, [sp, #152]
   87478:	52800005 	mov	w5, #0x0                   	// #0
   8747c:	b9007be1 	str	w1, [sp, #120]
   87480:	2a1403e2 	mov	w2, w20
   87484:	97ffe9b3 	bl	81b50 <printf>
   87488:	b9407be1 	ldr	w1, [sp, #120]
   8748c:	17ffff99 	b	872f0 <HCDChannelTransfer+0x2e0>
   87490:	5280010a 	mov	w10, #0x8                   	// #8
   87494:	2a0a03eb 	mov	w11, w10
   87498:	17fffefd 	b	8708c <HCDChannelTransfer+0x7c>
   8749c:	f94037e0 	ldr	x0, [sp, #104]
   874a0:	4b1c0362 	sub	w2, w27, w28
   874a4:	aa1a03e1 	mov	x1, x26
   874a8:	d376d403 	lsl	x3, x0, #10
   874ac:	f9003fe3 	str	x3, [sp, #120]
   874b0:	8b0302e0 	add	x0, x23, x3
   874b4:	94001743 	bl	8d1c0 <memcpy>
   874b8:	b94002d4 	ldr	w20, [x22]
   874bc:	f9403fe3 	ldr	x3, [sp, #120]
   874c0:	0b150294 	add	w20, w20, w21
   874c4:	8b130294 	add	x20, x20, x19
   874c8:	17ffff43 	b	871d4 <HCDChannelTransfer+0x1c4>
   874cc:	b940101c 	ldr	w28, [x0, #16]
   874d0:	b94077e2 	ldr	w2, [sp, #116]
   874d4:	d3404b9c 	ubfx	x28, x28, #0, #19
   874d8:	34000062 	cbz	w2, 874e4 <HCDChannelTransfer+0x4d4>
   874dc:	39420fe2 	ldrb	w2, [sp, #131]
   874e0:	370000c2 	tbnz	w2, #0, 874f8 <HCDChannelTransfer+0x4e8>
   874e4:	4b1c037c 	sub	w28, w27, w28
   874e8:	17ffffc6 	b	87400 <HCDChannelTransfer+0x3f0>
   874ec:	5280020a 	mov	w10, #0x10                  	// #16
   874f0:	2a0a03eb 	mov	w11, w10
   874f4:	17fffee6 	b	8708c <HCDChannelTransfer+0x7c>
   874f8:	f94037e1 	ldr	x1, [sp, #104]
   874fc:	b00000b7 	adrp	x23, 9c000 <DeviceTable+0x7d60>
   87500:	910a82f7 	add	x23, x23, #0x2a0
   87504:	92404b82 	and	x2, x28, #0x7ffff
   87508:	aa1a03e0 	mov	x0, x26
   8750c:	4b1c037c 	sub	w28, w27, w28
   87510:	8b012ae1 	add	x1, x23, x1, lsl #10
   87514:	9400172b 	bl	8d1c0 <memcpy>
   87518:	b94002c5 	ldr	w5, [x22]
   8751c:	5280a003 	mov	w3, #0x500                 	// #1280
   87520:	72a01303 	movk	w3, #0x98, lsl #16
   87524:	0b0300a0 	add	w0, w5, w3
   87528:	0b0300a1 	add	w1, w5, w3
   8752c:	8b130000 	add	x0, x0, x19
   87530:	17ffffb4 	b	87400 <HCDChannelTransfer+0x3f0>
   87534:	2a1903e1 	mov	w1, w25
   87538:	b0000040 	adrp	x0, 90000 <__sflush_r+0x40>
   8753c:	91182000 	add	x0, x0, #0x608
   87540:	97ffe984 	bl	81b50 <printf>
   87544:	12800021 	mov	w1, #0xfffffffe            	// #-2
   87548:	17ffff4f 	b	87284 <HCDChannelTransfer+0x274>
   8754c:	d503201f 	nop

0000000000087550 <HCDChangeHubPortFeature.constprop.0>:
   87550:	d10283ff 	sub	sp, sp, #0xa0
   87554:	a9017bfd 	stp	x29, x30, [sp, #16]
   87558:	910043fd 	add	x29, sp, #0x10
   8755c:	a90253f3 	stp	x19, x20, [sp, #32]
   87560:	90000063 	adrp	x3, 93000 <_impure_data+0x148>
   87564:	91242074 	add	x20, x3, #0x908
   87568:	b9007be0 	str	w0, [sp, #120]
   8756c:	528003f3 	mov	w19, #0x1f                  	// #31
   87570:	a9035bf5 	stp	x21, x22, [sp, #48]
   87574:	2a0103f5 	mov	w21, w1
   87578:	b9400680 	ldr	w0, [x20, #4]
   8757c:	790137e1 	strh	w1, [sp, #154]
   87580:	5ac01001 	clz	w1, w0
   87584:	a90463f7 	stp	x23, x24, [sp, #64]
   87588:	4b010273 	sub	w19, w19, w1
   8758c:	a9056bf9 	stp	x25, x26, [sp, #80]
   87590:	72001c5a 	ands	w26, w2, #0xff
   87594:	39642079 	ldrb	w25, [x3, #2312]
   87598:	f90033fb 	str	x27, [sp, #96]
   8759c:	5280003b 	mov	w27, #0x1                   	// #1
   875a0:	3941e7f8 	ldrb	w24, [sp, #121]
   875a4:	52800417 	mov	w23, #0x20                  	// #32
   875a8:	52800062 	mov	w2, #0x3                   	// #3
   875ac:	52800461 	mov	w1, #0x23                  	// #35
   875b0:	1ad32376 	lsl	w22, w27, w19
   875b4:	1a8102e1 	csel	w1, w23, w1, eq	// eq = none
   875b8:	0a360000 	bic	w0, w0, w22
   875bc:	b9000680 	str	w0, [x20, #4]
   875c0:	b9008bff 	str	wzr, [sp, #136]
   875c4:	6b18033f 	cmp	w25, w24
   875c8:	390263e1 	strb	w1, [sp, #152]
   875cc:	390267e2 	strb	w2, [sp, #153]
   875d0:	79013bfa 	strh	w26, [sp, #156]
   875d4:	79013fff 	strh	wzr, [sp, #158]
   875d8:	54000520 	b.eq	8767c <HCDChangeHubPortFeature.constprop.0+0x12c>  // b.none
   875dc:	12001e61 	and	w1, w19, #0xff
   875e0:	39022be1 	strb	w1, [sp, #138]
   875e4:	f9403fe0 	ldr	x0, [sp, #120]
   875e8:	910263e2 	add	x2, sp, #0x98
   875ec:	b9408be1 	ldr	w1, [sp, #136]
   875f0:	52800064 	mov	w4, #0x3                   	// #3
   875f4:	b90093e1 	str	w1, [sp, #144]
   875f8:	52800103 	mov	w3, #0x8                   	// #8
   875fc:	f9404be1 	ldr	x1, [sp, #144]
   87600:	97fffe84 	bl	87010 <HCDChannelTransfer>
   87604:	35000600 	cbnz	w0, 876c4 <HCDChangeHubPortFeature.constprop.0+0x174>
   87608:	b94093e1 	ldr	w1, [sp, #144]
   8760c:	52800044 	mov	w4, #0x2                   	// #2
   87610:	f9403fe0 	ldr	x0, [sp, #120]
   87614:	32080021 	orr	w1, w1, #0x1000000
   87618:	b90093e1 	str	w1, [sp, #144]
   8761c:	52800003 	mov	w3, #0x0                   	// #0
   87620:	d2800002 	mov	x2, #0x0                   	// #0
   87624:	f9404be1 	ldr	x1, [sp, #144]
   87628:	97fffe7a 	bl	87010 <HCDChannelTransfer>
   8762c:	35000660 	cbnz	w0, 876f8 <HCDChangeHubPortFeature.constprop.0+0x1a8>
   87630:	f0000040 	adrp	x0, 92000 <BitFont+0xbc0>
   87634:	b94b0000 	ldr	w0, [x0, #2816]
   87638:	11660000 	add	w0, w0, #0x980, lsl #12
   8763c:	11140000 	add	w0, w0, #0x500
   87640:	9b370273 	smaddl	x19, w19, w23, x0
   87644:	b9401260 	ldr	w0, [x19, #16]
   87648:	b9400681 	ldr	w1, [x20, #4]
   8764c:	52800013 	mov	w19, #0x0                   	// #0
   87650:	2a160021 	orr	w1, w1, w22
   87654:	b9000681 	str	w1, [x20, #4]
   87658:	a9417bfd 	ldp	x29, x30, [sp, #16]
   8765c:	2a1303e0 	mov	w0, w19
   87660:	a94253f3 	ldp	x19, x20, [sp, #32]
   87664:	a9435bf5 	ldp	x21, x22, [sp, #48]
   87668:	a94463f7 	ldp	x23, x24, [sp, #64]
   8766c:	a9456bf9 	ldp	x25, x26, [sp, #80]
   87670:	f94033fb 	ldr	x27, [sp, #96]
   87674:	910283ff 	add	sp, sp, #0xa0
   87678:	d65f03c0 	ret
   8767c:	910263e2 	add	x2, sp, #0x98
   87680:	d2800003 	mov	x3, #0x0                   	// #0
   87684:	52800001 	mov	w1, #0x0                   	// #0
   87688:	d2800000 	mov	x0, #0x0                   	// #0
   8768c:	97fff961 	bl	85c10 <HcdProcessRootHubMessage>
   87690:	2a0003f3 	mov	w19, w0
   87694:	34fffda0 	cbz	w0, 87648 <HCDChangeHubPortFeature.constprop.0+0xf8>
   87698:	b9400685 	ldr	w5, [x20, #4]
   8769c:	2a1b03e4 	mov	w4, w27
   876a0:	2a1503e3 	mov	w3, w21
   876a4:	2a1a03e2 	mov	w2, w26
   876a8:	2a1600a5 	orr	w5, w5, w22
   876ac:	2a1903e1 	mov	w1, w25
   876b0:	b0000040 	adrp	x0, 90000 <__sflush_r+0x40>
   876b4:	911e8000 	add	x0, x0, #0x7a0
   876b8:	b9000685 	str	w5, [x20, #4]
   876bc:	97ffe925 	bl	81b50 <printf>
   876c0:	17ffffe6 	b	87658 <HCDChangeHubPortFeature.constprop.0+0x108>
   876c4:	f9403fe4 	ldr	x4, [sp, #120]
   876c8:	b90003e0 	str	w0, [sp]
   876cc:	394263e3 	ldrb	w3, [sp, #152]
   876d0:	2a1803e1 	mov	w1, w24
   876d4:	394267e2 	ldrb	w2, [sp, #153]
   876d8:	12000485 	and	w5, w4, #0x3
   876dc:	53126087 	ubfx	w7, w4, #18, #7
   876e0:	53197c86 	lsr	w6, w4, #25
   876e4:	b0000040 	adrp	x0, 90000 <__sflush_r+0x40>
   876e8:	911be000 	add	x0, x0, #0x6f8
   876ec:	53020c84 	ubfx	w4, w4, #2, #2
   876f0:	97ffe918 	bl	81b50 <printf>
   876f4:	17ffffd5 	b	87648 <HCDChangeHubPortFeature.constprop.0+0xf8>
   876f8:	2a1803e1 	mov	w1, w24
   876fc:	b0000040 	adrp	x0, 90000 <__sflush_r+0x40>
   87700:	911dc000 	add	x0, x0, #0x770
   87704:	97ffe913 	bl	81b50 <printf>
   87708:	17ffffd0 	b	87648 <HCDChangeHubPortFeature.constprop.0+0xf8>
   8770c:	d503201f 	nop

0000000000087710 <HCDSumbitControlMessage>:
   87710:	d10203ff 	sub	sp, sp, #0x80
   87714:	a9017bfd 	stp	x29, x30, [sp, #16]
   87718:	910043fd 	add	x29, sp, #0x10
   8771c:	90000065 	adrp	x5, 93000 <_impure_data+0x148>
   87720:	396420a5 	ldrb	w5, [x5, #2312]
   87724:	b90063e1 	str	w1, [sp, #96]
   87728:	a90463f7 	stp	x23, x24, [sp, #64]
   8772c:	f94033f7 	ldr	x23, [sp, #96]
   87730:	b9006be0 	str	w0, [sp, #104]
   87734:	a90253f3 	stp	x19, x20, [sp, #32]
   87738:	aa0203f3 	mov	x19, x2
   8773c:	3941a7f8 	ldrb	w24, [sp, #105]
   87740:	a9035bf5 	stp	x21, x22, [sp, #48]
   87744:	2a0303f4 	mov	w20, w3
   87748:	aa0403f5 	mov	x21, x4
   8774c:	f9002bf9 	str	x25, [sp, #80]
   87750:	aa0603f6 	mov	x22, x6
   87754:	39418bf9 	ldrb	w25, [sp, #98]
   87758:	6b1800bf 	cmp	w5, w24
   8775c:	531862f7 	ubfx	w23, w23, #24, #1
   87760:	540008a0 	b.eq	87874 <HCDSumbitControlMessage+0x164>  // b.none
   87764:	5287ffe0 	mov	w0, #0x3fff                	// #16383
   87768:	72bfdfe0 	movk	w0, #0xfeff, lsl #16
   8776c:	0a000021 	and	w1, w1, w0
   87770:	b9007be1 	str	w1, [sp, #120]
   87774:	f94037e0 	ldr	x0, [sp, #104]
   87778:	aa1503e2 	mov	x2, x21
   8777c:	f9403fe1 	ldr	x1, [sp, #120]
   87780:	52800064 	mov	w4, #0x3                   	// #3
   87784:	52800103 	mov	w3, #0x8                   	// #8
   87788:	97fffe22 	bl	87010 <HCDChannelTransfer>
   8778c:	350008a0 	cbnz	w0, 878a0 <HCDSumbitControlMessage+0x190>
   87790:	b4000313 	cbz	x19, 877f0 <HCDSumbitControlMessage+0xe0>
   87794:	b9407be1 	ldr	w1, [sp, #120]
   87798:	2a1403e3 	mov	w3, w20
   8779c:	f94037e0 	ldr	x0, [sp, #104]
   877a0:	aa1303e2 	mov	x2, x19
   877a4:	330802e1 	bfi	w1, w23, #24, #1
   877a8:	b9007be1 	str	w1, [sp, #120]
   877ac:	52800044 	mov	w4, #0x2                   	// #2
   877b0:	f9403fe1 	ldr	x1, [sp, #120]
   877b4:	97fffe17 	bl	87010 <HCDChannelTransfer>
   877b8:	35000b40 	cbnz	w0, 87920 <HCDSumbitControlMessage+0x210>
   877bc:	39418fe0 	ldrb	w0, [sp, #99]
   877c0:	2a1403f5 	mov	w21, w20
   877c4:	36000180 	tbz	w0, #0, 877f4 <HCDSumbitControlMessage+0xe4>
   877c8:	f0000040 	adrp	x0, 92000 <BitFont+0xbc0>
   877cc:	b94b0001 	ldr	w1, [x0, #2816]
   877d0:	52800400 	mov	w0, #0x20                  	// #32
   877d4:	11660021 	add	w1, w1, #0x980, lsl #12
   877d8:	11140021 	add	w1, w1, #0x500
   877dc:	9bb90400 	umaddl	x0, w0, w25, x1
   877e0:	b9401015 	ldr	w21, [x0, #16]
   877e4:	d3404ab5 	ubfx	x21, x21, #0, #19
   877e8:	4b150295 	sub	w21, w20, w21
   877ec:	14000002 	b	877f4 <HCDSumbitControlMessage+0xe4>
   877f0:	52800015 	mov	w21, #0x0                   	// #0
   877f4:	52800021 	mov	w1, #0x1                   	// #1
   877f8:	34000094 	cbz	w20, 87808 <HCDSumbitControlMessage+0xf8>
   877fc:	39418fe1 	ldrb	w1, [sp, #99]
   87800:	2a2103e1 	mvn	w1, w1
   87804:	12000021 	and	w1, w1, #0x1
   87808:	b9407be3 	ldr	w3, [sp, #120]
   8780c:	aa1303e2 	mov	x2, x19
   87810:	f94037e0 	ldr	x0, [sp, #104]
   87814:	52800044 	mov	w4, #0x2                   	// #2
   87818:	33080023 	bfi	w3, w1, #24, #1
   8781c:	b9007be3 	str	w3, [sp, #120]
   87820:	52800003 	mov	w3, #0x0                   	// #0
   87824:	f9403fe1 	ldr	x1, [sp, #120]
   87828:	97fffdfa 	bl	87010 <HCDChannelTransfer>
   8782c:	35000620 	cbnz	w0, 878f0 <HCDSumbitControlMessage+0x1e0>
   87830:	f0000040 	adrp	x0, 92000 <BitFont+0xbc0>
   87834:	b94b0001 	ldr	w1, [x0, #2816]
   87838:	52800400 	mov	w0, #0x20                  	// #32
   8783c:	11660021 	add	w1, w1, #0x980, lsl #12
   87840:	11140021 	add	w1, w1, #0x500
   87844:	9bb90400 	umaddl	x0, w0, w25, x1
   87848:	b9401000 	ldr	w0, [x0, #16]
   8784c:	b4000056 	cbz	x22, 87854 <HCDSumbitControlMessage+0x144>
   87850:	b90002d5 	str	w21, [x22]
   87854:	a9417bfd 	ldp	x29, x30, [sp, #16]
   87858:	52800000 	mov	w0, #0x0                   	// #0
   8785c:	a94253f3 	ldp	x19, x20, [sp, #32]
   87860:	a9435bf5 	ldp	x21, x22, [sp, #48]
   87864:	a94463f7 	ldp	x23, x24, [sp, #64]
   87868:	f9402bf9 	ldr	x25, [sp, #80]
   8786c:	910203ff 	add	sp, sp, #0x80
   87870:	d65f03c0 	ret
   87874:	a9417bfd 	ldp	x29, x30, [sp, #16]
   87878:	2a1403e1 	mov	w1, w20
   8787c:	a9435bf5 	ldp	x21, x22, [sp, #48]
   87880:	aa1303e0 	mov	x0, x19
   87884:	a94253f3 	ldp	x19, x20, [sp, #32]
   87888:	aa0603e3 	mov	x3, x6
   8788c:	a94463f7 	ldp	x23, x24, [sp, #64]
   87890:	aa0403e2 	mov	x2, x4
   87894:	f9402bf9 	ldr	x25, [sp, #80]
   87898:	910203ff 	add	sp, sp, #0x80
   8789c:	17fff8dd 	b	85c10 <HcdProcessRootHubMessage>
   878a0:	b90003e0 	str	w0, [sp]
   878a4:	2a1803e1 	mov	w1, w24
   878a8:	f94037e4 	ldr	x4, [sp, #104]
   878ac:	b0000040 	adrp	x0, 90000 <__sflush_r+0x40>
   878b0:	911be000 	add	x0, x0, #0x6f8
   878b4:	394002a3 	ldrb	w3, [x21]
   878b8:	394006a2 	ldrb	w2, [x21, #1]
   878bc:	12000485 	and	w5, w4, #0x3
   878c0:	53126087 	ubfx	w7, w4, #18, #7
   878c4:	53197c86 	lsr	w6, w4, #25
   878c8:	53020c84 	ubfx	w4, w4, #2, #2
   878cc:	97ffe8a1 	bl	81b50 <printf>
   878d0:	a9417bfd 	ldp	x29, x30, [sp, #16]
   878d4:	52800000 	mov	w0, #0x0                   	// #0
   878d8:	a94253f3 	ldp	x19, x20, [sp, #32]
   878dc:	a9435bf5 	ldp	x21, x22, [sp, #48]
   878e0:	a94463f7 	ldp	x23, x24, [sp, #64]
   878e4:	f9402bf9 	ldr	x25, [sp, #80]
   878e8:	910203ff 	add	sp, sp, #0x80
   878ec:	d65f03c0 	ret
   878f0:	2a1803e1 	mov	w1, w24
   878f4:	b0000040 	adrp	x0, 90000 <__sflush_r+0x40>
   878f8:	911dc000 	add	x0, x0, #0x770
   878fc:	97ffe895 	bl	81b50 <printf>
   87900:	a9417bfd 	ldp	x29, x30, [sp, #16]
   87904:	52800000 	mov	w0, #0x0                   	// #0
   87908:	a94253f3 	ldp	x19, x20, [sp, #32]
   8790c:	a9435bf5 	ldp	x21, x22, [sp, #48]
   87910:	a94463f7 	ldp	x23, x24, [sp, #64]
   87914:	f9402bf9 	ldr	x25, [sp, #80]
   87918:	910203ff 	add	sp, sp, #0x80
   8791c:	d65f03c0 	ret
   87920:	2a1803e1 	mov	w1, w24
   87924:	b0000040 	adrp	x0, 90000 <__sflush_r+0x40>
   87928:	911fc000 	add	x0, x0, #0x7f0
   8792c:	97ffe889 	bl	81b50 <printf>
   87930:	17ffffc9 	b	87854 <HCDSumbitControlMessage+0x144>
   87934:	d503201f 	nop
   87938:	d503201f 	nop
   8793c:	d503201f 	nop

0000000000087940 <HCDSetAddress>:
   87940:	d10183ff 	sub	sp, sp, #0x60
   87944:	72001c42 	ands	w2, w2, #0xff
   87948:	a9017bfd 	stp	x29, x30, [sp, #16]
   8794c:	910043fd 	add	x29, sp, #0x10
   87950:	b9003be0 	str	w0, [sp, #56]
   87954:	b9004bff 	str	wzr, [sp, #72]
   87958:	540008c0 	b.eq	87a70 <HCDSetAddress+0x130>  // b.none
   8795c:	d280a000 	mov	x0, #0x500                 	// #1280
   87960:	f9002fe0 	str	x0, [sp, #88]
   87964:	90000060 	adrp	x0, 93000 <_impure_data+0x148>
   87968:	39642000 	ldrb	w0, [x0, #2312]
   8796c:	a90253f3 	stp	x19, x20, [sp, #32]
   87970:	3940e7f4 	ldrb	w20, [sp, #57]
   87974:	7900b7e2 	strh	w2, [sp, #90]
   87978:	6b14001f 	cmp	w0, w20
   8797c:	54000440 	b.eq	87a04 <HCDSetAddress+0xc4>  // b.none
   87980:	12001c33 	and	w19, w1, #0xff
   87984:	39012bf3 	strb	w19, [sp, #74]
   87988:	f9401fe0 	ldr	x0, [sp, #56]
   8798c:	910163e2 	add	x2, sp, #0x58
   87990:	b9404be1 	ldr	w1, [sp, #72]
   87994:	52800064 	mov	w4, #0x3                   	// #3
   87998:	b90053e1 	str	w1, [sp, #80]
   8799c:	52800103 	mov	w3, #0x8                   	// #8
   879a0:	f9402be1 	ldr	x1, [sp, #80]
   879a4:	97fffd9b 	bl	87010 <HCDChannelTransfer>
   879a8:	350004a0 	cbnz	w0, 87a3c <HCDSetAddress+0xfc>
   879ac:	b94053e1 	ldr	w1, [sp, #80]
   879b0:	52800044 	mov	w4, #0x2                   	// #2
   879b4:	f9401fe0 	ldr	x0, [sp, #56]
   879b8:	32080021 	orr	w1, w1, #0x1000000
   879bc:	b90053e1 	str	w1, [sp, #80]
   879c0:	52800003 	mov	w3, #0x0                   	// #0
   879c4:	d2800002 	mov	x2, #0x0                   	// #0
   879c8:	f9402be1 	ldr	x1, [sp, #80]
   879cc:	97fffd91 	bl	87010 <HCDChannelTransfer>
   879d0:	350002c0 	cbnz	w0, 87a28 <HCDSetAddress+0xe8>
   879d4:	f0000040 	adrp	x0, 92000 <BitFont+0xbc0>
   879d8:	b94b0001 	ldr	w1, [x0, #2816]
   879dc:	52800400 	mov	w0, #0x20                  	// #32
   879e0:	11660021 	add	w1, w1, #0x980, lsl #12
   879e4:	11140021 	add	w1, w1, #0x500
   879e8:	9bb30400 	umaddl	x0, w0, w19, x1
   879ec:	b9401000 	ldr	w0, [x0, #16]
   879f0:	a94253f3 	ldp	x19, x20, [sp, #32]
   879f4:	52800000 	mov	w0, #0x0                   	// #0
   879f8:	a9417bfd 	ldp	x29, x30, [sp, #16]
   879fc:	910183ff 	add	sp, sp, #0x60
   87a00:	d65f03c0 	ret
   87a04:	910163e2 	add	x2, sp, #0x58
   87a08:	d2800003 	mov	x3, #0x0                   	// #0
   87a0c:	52800001 	mov	w1, #0x0                   	// #0
   87a10:	d2800000 	mov	x0, #0x0                   	// #0
   87a14:	97fff87f 	bl	85c10 <HcdProcessRootHubMessage>
   87a18:	a9417bfd 	ldp	x29, x30, [sp, #16]
   87a1c:	a94253f3 	ldp	x19, x20, [sp, #32]
   87a20:	910183ff 	add	sp, sp, #0x60
   87a24:	d65f03c0 	ret
   87a28:	2a1403e1 	mov	w1, w20
   87a2c:	b0000040 	adrp	x0, 90000 <__sflush_r+0x40>
   87a30:	911dc000 	add	x0, x0, #0x770
   87a34:	97ffe847 	bl	81b50 <printf>
   87a38:	17ffffee 	b	879f0 <HCDSetAddress+0xb0>
   87a3c:	f9401fe4 	ldr	x4, [sp, #56]
   87a40:	b90003e0 	str	w0, [sp]
   87a44:	394163e3 	ldrb	w3, [sp, #88]
   87a48:	2a1403e1 	mov	w1, w20
   87a4c:	394167e2 	ldrb	w2, [sp, #89]
   87a50:	12000485 	and	w5, w4, #0x3
   87a54:	53126087 	ubfx	w7, w4, #18, #7
   87a58:	53197c86 	lsr	w6, w4, #25
   87a5c:	b0000040 	adrp	x0, 90000 <__sflush_r+0x40>
   87a60:	911be000 	add	x0, x0, #0x6f8
   87a64:	53020c84 	ubfx	w4, w4, #2, #2
   87a68:	97ffe83a 	bl	81b50 <printf>
   87a6c:	17ffffe1 	b	879f0 <HCDSetAddress+0xb0>
   87a70:	12800020 	mov	w0, #0xfffffffe            	// #-2
   87a74:	17ffffe1 	b	879f8 <HCDSetAddress+0xb8>
   87a78:	d503201f 	nop
   87a7c:	d503201f 	nop

0000000000087a80 <HCDSetConfiguration>:
   87a80:	d10183ff 	sub	sp, sp, #0x60
   87a84:	12001c42 	and	w2, w2, #0xff
   87a88:	a9017bfd 	stp	x29, x30, [sp, #16]
   87a8c:	910043fd 	add	x29, sp, #0x10
   87a90:	b9003be0 	str	w0, [sp, #56]
   87a94:	d2812000 	mov	x0, #0x900                 	// #2304
   87a98:	f9002fe0 	str	x0, [sp, #88]
   87a9c:	90000060 	adrp	x0, 93000 <_impure_data+0x148>
   87aa0:	39642000 	ldrb	w0, [x0, #2312]
   87aa4:	a90253f3 	stp	x19, x20, [sp, #32]
   87aa8:	3940e7f4 	ldrb	w20, [sp, #57]
   87aac:	b9004bff 	str	wzr, [sp, #72]
   87ab0:	7900b7e2 	strh	w2, [sp, #90]
   87ab4:	6b14001f 	cmp	w0, w20
   87ab8:	54000440 	b.eq	87b40 <HCDSetConfiguration+0xc0>  // b.none
   87abc:	12001c33 	and	w19, w1, #0xff
   87ac0:	39012bf3 	strb	w19, [sp, #74]
   87ac4:	f9401fe0 	ldr	x0, [sp, #56]
   87ac8:	910163e2 	add	x2, sp, #0x58
   87acc:	b9404be1 	ldr	w1, [sp, #72]
   87ad0:	52800064 	mov	w4, #0x3                   	// #3
   87ad4:	b90053e1 	str	w1, [sp, #80]
   87ad8:	52800103 	mov	w3, #0x8                   	// #8
   87adc:	f9402be1 	ldr	x1, [sp, #80]
   87ae0:	97fffd4c 	bl	87010 <HCDChannelTransfer>
   87ae4:	35000400 	cbnz	w0, 87b64 <HCDSetConfiguration+0xe4>
   87ae8:	b94053e1 	ldr	w1, [sp, #80]
   87aec:	52800044 	mov	w4, #0x2                   	// #2
   87af0:	f9401fe0 	ldr	x0, [sp, #56]
   87af4:	32080021 	orr	w1, w1, #0x1000000
   87af8:	b90053e1 	str	w1, [sp, #80]
   87afc:	52800003 	mov	w3, #0x0                   	// #0
   87b00:	d2800002 	mov	x2, #0x0                   	// #0
   87b04:	f9402be1 	ldr	x1, [sp, #80]
   87b08:	97fffd42 	bl	87010 <HCDChannelTransfer>
   87b0c:	35000460 	cbnz	w0, 87b98 <HCDSetConfiguration+0x118>
   87b10:	f0000040 	adrp	x0, 92000 <BitFont+0xbc0>
   87b14:	b94b0001 	ldr	w1, [x0, #2816]
   87b18:	52800400 	mov	w0, #0x20                  	// #32
   87b1c:	11660021 	add	w1, w1, #0x980, lsl #12
   87b20:	11140021 	add	w1, w1, #0x500
   87b24:	9bb30400 	umaddl	x0, w0, w19, x1
   87b28:	b9401000 	ldr	w0, [x0, #16]
   87b2c:	a9417bfd 	ldp	x29, x30, [sp, #16]
   87b30:	52800000 	mov	w0, #0x0                   	// #0
   87b34:	a94253f3 	ldp	x19, x20, [sp, #32]
   87b38:	910183ff 	add	sp, sp, #0x60
   87b3c:	d65f03c0 	ret
   87b40:	910163e2 	add	x2, sp, #0x58
   87b44:	d2800003 	mov	x3, #0x0                   	// #0
   87b48:	52800001 	mov	w1, #0x0                   	// #0
   87b4c:	d2800000 	mov	x0, #0x0                   	// #0
   87b50:	97fff830 	bl	85c10 <HcdProcessRootHubMessage>
   87b54:	a9417bfd 	ldp	x29, x30, [sp, #16]
   87b58:	a94253f3 	ldp	x19, x20, [sp, #32]
   87b5c:	910183ff 	add	sp, sp, #0x60
   87b60:	d65f03c0 	ret
   87b64:	f9401fe4 	ldr	x4, [sp, #56]
   87b68:	b90003e0 	str	w0, [sp]
   87b6c:	394163e3 	ldrb	w3, [sp, #88]
   87b70:	2a1403e1 	mov	w1, w20
   87b74:	394167e2 	ldrb	w2, [sp, #89]
   87b78:	12000485 	and	w5, w4, #0x3
   87b7c:	53126087 	ubfx	w7, w4, #18, #7
   87b80:	53197c86 	lsr	w6, w4, #25
   87b84:	b0000040 	adrp	x0, 90000 <__sflush_r+0x40>
   87b88:	911be000 	add	x0, x0, #0x6f8
   87b8c:	53020c84 	ubfx	w4, w4, #2, #2
   87b90:	97ffe7f0 	bl	81b50 <printf>
   87b94:	17ffffe6 	b	87b2c <HCDSetConfiguration+0xac>
   87b98:	2a1403e1 	mov	w1, w20
   87b9c:	b0000040 	adrp	x0, 90000 <__sflush_r+0x40>
   87ba0:	911dc000 	add	x0, x0, #0x770
   87ba4:	97ffe7eb 	bl	81b50 <printf>
   87ba8:	17ffffe1 	b	87b2c <HCDSetConfiguration+0xac>
   87bac:	d503201f 	nop

0000000000087bb0 <HCDReadHubPortStatus>:
   87bb0:	d10283ff 	sub	sp, sp, #0xa0
   87bb4:	a9017bfd 	stp	x29, x30, [sp, #16]
   87bb8:	910043fd 	add	x29, sp, #0x10
   87bbc:	a9056bf9 	stp	x25, x26, [sp, #80]
   87bc0:	90000064 	adrp	x4, 93000 <_impure_data+0x148>
   87bc4:	9124209a 	add	x26, x4, #0x908
   87bc8:	b9007be0 	str	w0, [sp, #120]
   87bcc:	a90253f3 	stp	x19, x20, [sp, #32]
   87bd0:	528003f3 	mov	w19, #0x1f                  	// #31
   87bd4:	b9400743 	ldr	w3, [x26, #4]
   87bd8:	f9403fe0 	ldr	x0, [sp, #120]
   87bdc:	5ac01065 	clz	w5, w3
   87be0:	4b050273 	sub	w19, w19, w5
   87be4:	a9035bf5 	stp	x21, x22, [sp, #48]
   87be8:	52800035 	mov	w21, #0x1                   	// #1
   87bec:	a90463f7 	stp	x23, x24, [sp, #64]
   87bf0:	1ad322b5 	lsl	w21, w21, w19
   87bf4:	0a350063 	bic	w3, w3, w21
   87bf8:	b9000743 	str	w3, [x26, #4]
   87bfc:	53020c18 	ubfx	w24, w0, #2, #2
   87c00:	b9008bff 	str	wzr, [sp, #136]
   87c04:	b90097ff 	str	wzr, [sp, #148]
   87c08:	3941e7f7 	ldrb	w23, [sp, #121]
   87c0c:	b40012c2 	cbz	x2, 87e64 <HCDReadHubPortStatus+0x2b4>
   87c10:	12001c36 	and	w22, w1, #0xff
   87c14:	aa0203f4 	mov	x20, x2
   87c18:	710002df 	cmp	w22, #0x0
   87c1c:	52801401 	mov	w1, #0xa0                  	// #160
   87c20:	52801463 	mov	w3, #0xa3                  	// #163
   87c24:	52800082 	mov	w2, #0x4                   	// #4
   87c28:	1a830021 	csel	w1, w1, w3, eq	// eq = none
   87c2c:	f90033fb 	str	x27, [sp, #96]
   87c30:	3964209b 	ldrb	w27, [x4, #2312]
   87c34:	12000419 	and	w25, w0, #0x3
   87c38:	390263e1 	strb	w1, [sp, #152]
   87c3c:	390267ff 	strb	wzr, [sp, #153]
   87c40:	6b17037f 	cmp	w27, w23
   87c44:	39026bff 	strb	wzr, [sp, #154]
   87c48:	39026fff 	strb	wzr, [sp, #155]
   87c4c:	79013bf6 	strh	w22, [sp, #156]
   87c50:	79013fe2 	strh	w2, [sp, #158]
   87c54:	54000800 	b.eq	87d54 <HCDReadHubPortStatus+0x1a4>  // b.none
   87c58:	12001e65 	and	w5, w19, #0xff
   87c5c:	39022be5 	strb	w5, [sp, #138]
   87c60:	910263e2 	add	x2, sp, #0x98
   87c64:	52800064 	mov	w4, #0x3                   	// #3
   87c68:	b9408be1 	ldr	w1, [sp, #136]
   87c6c:	52800103 	mov	w3, #0x8                   	// #8
   87c70:	32080021 	orr	w1, w1, #0x1000000
   87c74:	b9008be1 	str	w1, [sp, #136]
   87c78:	12077821 	and	w1, w1, #0xfeffffff
   87c7c:	b90093e1 	str	w1, [sp, #144]
   87c80:	f9404be1 	ldr	x1, [sp, #144]
   87c84:	97fffce3 	bl	87010 <HCDChannelTransfer>
   87c88:	35000ca0 	cbnz	w0, 87e1c <HCDReadHubPortStatus+0x26c>
   87c8c:	b94093e1 	ldr	w1, [sp, #144]
   87c90:	aa1403e2 	mov	x2, x20
   87c94:	f9403fe0 	ldr	x0, [sp, #120]
   87c98:	32080021 	orr	w1, w1, #0x1000000
   87c9c:	b90093e1 	str	w1, [sp, #144]
   87ca0:	52800044 	mov	w4, #0x2                   	// #2
   87ca4:	52800083 	mov	w3, #0x4                   	// #4
   87ca8:	f9404be1 	ldr	x1, [sp, #144]
   87cac:	97fffcd9 	bl	87010 <HCDChannelTransfer>
   87cb0:	35000a60 	cbnz	w0, 87dfc <HCDReadHubPortStatus+0x24c>
   87cb4:	f0000059 	adrp	x25, 92000 <BitFont+0xbc0>
   87cb8:	b94b0321 	ldr	w1, [x25, #2816]
   87cbc:	937b7e73 	sbfiz	x19, x19, #5, #32
   87cc0:	5280a018 	mov	w24, #0x500                 	// #1280
   87cc4:	72a01318 	movk	w24, #0x98, lsl #16
   87cc8:	0b180021 	add	w1, w1, w24
   87ccc:	8b130021 	add	x1, x1, x19
   87cd0:	b94093e6 	ldr	w6, [sp, #144]
   87cd4:	f9403fe0 	ldr	x0, [sp, #120]
   87cd8:	120778c6 	and	w6, w6, #0xfeffffff
   87cdc:	b9401025 	ldr	w5, [x1, #16]
   87ce0:	aa1403e2 	mov	x2, x20
   87ce4:	b90093e6 	str	w6, [sp, #144]
   87ce8:	52800094 	mov	w20, #0x4                   	// #4
   87cec:	52800044 	mov	w4, #0x2                   	// #2
   87cf0:	52800003 	mov	w3, #0x0                   	// #0
   87cf4:	f9404be1 	ldr	x1, [sp, #144]
   87cf8:	d34048a5 	ubfx	x5, x5, #0, #19
   87cfc:	4b050294 	sub	w20, w20, w5
   87d00:	97fffcc4 	bl	87010 <HCDChannelTransfer>
   87d04:	350005e0 	cbnz	w0, 87dc0 <HCDReadHubPortStatus+0x210>
   87d08:	b94b0320 	ldr	w0, [x25, #2816]
   87d0c:	0b180000 	add	w0, w0, w24
   87d10:	8b130000 	add	x0, x0, x19
   87d14:	b9401000 	ldr	w0, [x0, #16]
   87d18:	b9400740 	ldr	w0, [x26, #4]
   87d1c:	71000e9f 	cmp	w20, #0x3
   87d20:	52800013 	mov	w19, #0x0                   	// #0
   87d24:	2a150000 	orr	w0, w0, w21
   87d28:	b9000740 	str	w0, [x26, #4]
   87d2c:	54000589 	b.ls	87ddc <HCDReadHubPortStatus+0x22c>  // b.plast
   87d30:	f94033fb 	ldr	x27, [sp, #96]
   87d34:	2a1303e0 	mov	w0, w19
   87d38:	a9417bfd 	ldp	x29, x30, [sp, #16]
   87d3c:	a94253f3 	ldp	x19, x20, [sp, #32]
   87d40:	a9435bf5 	ldp	x21, x22, [sp, #48]
   87d44:	a94463f7 	ldp	x23, x24, [sp, #64]
   87d48:	a9456bf9 	ldp	x25, x26, [sp, #80]
   87d4c:	910283ff 	add	sp, sp, #0xa0
   87d50:	d65f03c0 	ret
   87d54:	aa1403e0 	mov	x0, x20
   87d58:	910253e3 	add	x3, sp, #0x94
   87d5c:	910263e2 	add	x2, sp, #0x98
   87d60:	52800081 	mov	w1, #0x4                   	// #4
   87d64:	97fff7ab 	bl	85c10 <HcdProcessRootHubMessage>
   87d68:	2a0003f3 	mov	w19, w0
   87d6c:	34000780 	cbz	w0, 87e5c <HCDReadHubPortStatus+0x2ac>
   87d70:	b9400746 	ldr	w6, [x26, #4]
   87d74:	2a1903e5 	mov	w5, w25
   87d78:	2a1803e4 	mov	w4, w24
   87d7c:	2a1603e2 	mov	w2, w22
   87d80:	2a1500c6 	orr	w6, w6, w21
   87d84:	2a1b03e1 	mov	w1, w27
   87d88:	2a1303e3 	mov	w3, w19
   87d8c:	b0000040 	adrp	x0, 90000 <__sflush_r+0x40>
   87d90:	91208000 	add	x0, x0, #0x820
   87d94:	b9000746 	str	w6, [x26, #4]
   87d98:	97ffe76e 	bl	81b50 <printf>
   87d9c:	a9417bfd 	ldp	x29, x30, [sp, #16]
   87da0:	2a1303e0 	mov	w0, w19
   87da4:	a94253f3 	ldp	x19, x20, [sp, #32]
   87da8:	a9435bf5 	ldp	x21, x22, [sp, #48]
   87dac:	a94463f7 	ldp	x23, x24, [sp, #64]
   87db0:	a9456bf9 	ldp	x25, x26, [sp, #80]
   87db4:	f94033fb 	ldr	x27, [sp, #96]
   87db8:	910283ff 	add	sp, sp, #0xa0
   87dbc:	d65f03c0 	ret
   87dc0:	2a1703e1 	mov	w1, w23
   87dc4:	b0000040 	adrp	x0, 90000 <__sflush_r+0x40>
   87dc8:	911dc000 	add	x0, x0, #0x770
   87dcc:	97ffe761 	bl	81b50 <printf>
   87dd0:	b9400740 	ldr	w0, [x26, #4]
   87dd4:	2a150000 	orr	w0, w0, w21
   87dd8:	b9000740 	str	w0, [x26, #4]
   87ddc:	2a1603e2 	mov	w2, w22
   87de0:	2a1703e1 	mov	w1, w23
   87de4:	b0000040 	adrp	x0, 90000 <__sflush_r+0x40>
   87de8:	91222000 	add	x0, x0, #0x888
   87dec:	12800073 	mov	w19, #0xfffffffc            	// #-4
   87df0:	97ffe758 	bl	81b50 <printf>
   87df4:	f94033fb 	ldr	x27, [sp, #96]
   87df8:	17ffffcf 	b	87d34 <HCDReadHubPortStatus+0x184>
   87dfc:	2a1703e1 	mov	w1, w23
   87e00:	b0000040 	adrp	x0, 90000 <__sflush_r+0x40>
   87e04:	911fc000 	add	x0, x0, #0x7f0
   87e08:	97ffe752 	bl	81b50 <printf>
   87e0c:	b9400740 	ldr	w0, [x26, #4]
   87e10:	2a150000 	orr	w0, w0, w21
   87e14:	b9000740 	str	w0, [x26, #4]
   87e18:	17fffff1 	b	87ddc <HCDReadHubPortStatus+0x22c>
   87e1c:	f9403fe6 	ldr	x6, [sp, #120]
   87e20:	b90003e0 	str	w0, [sp]
   87e24:	394263e3 	ldrb	w3, [sp, #152]
   87e28:	2a1903e5 	mov	w5, w25
   87e2c:	394267e2 	ldrb	w2, [sp, #153]
   87e30:	2a1803e4 	mov	w4, w24
   87e34:	531260c7 	ubfx	w7, w6, #18, #7
   87e38:	2a1703e1 	mov	w1, w23
   87e3c:	53197cc6 	lsr	w6, w6, #25
   87e40:	b0000040 	adrp	x0, 90000 <__sflush_r+0x40>
   87e44:	911be000 	add	x0, x0, #0x6f8
   87e48:	97ffe742 	bl	81b50 <printf>
   87e4c:	b9400740 	ldr	w0, [x26, #4]
   87e50:	2a150000 	orr	w0, w0, w21
   87e54:	b9000740 	str	w0, [x26, #4]
   87e58:	17ffffe1 	b	87ddc <HCDReadHubPortStatus+0x22c>
   87e5c:	b94097f4 	ldr	w20, [sp, #148]
   87e60:	17ffffae 	b	87d18 <HCDReadHubPortStatus+0x168>
   87e64:	12800033 	mov	w19, #0xfffffffe            	// #-2
   87e68:	17ffffb3 	b	87d34 <HCDReadHubPortStatus+0x184>
   87e6c:	d503201f 	nop

0000000000087e70 <HCDChangeHubPortFeature>:
   87e70:	d10283ff 	sub	sp, sp, #0xa0
   87e74:	12000066 	and	w6, w3, #0x1
   87e78:	52800465 	mov	w5, #0x23                  	// #35
   87e7c:	a9017bfd 	stp	x29, x30, [sp, #16]
   87e80:	910043fd 	add	x29, sp, #0x10
   87e84:	a90253f3 	stp	x19, x20, [sp, #32]
   87e88:	90000064 	adrp	x4, 93000 <_impure_data+0x148>
   87e8c:	91242094 	add	x20, x4, #0x908
   87e90:	b9007be0 	str	w0, [sp, #120]
   87e94:	528003f3 	mov	w19, #0x1f                  	// #31
   87e98:	a9056bf9 	stp	x25, x26, [sp, #80]
   87e9c:	72001c5a 	ands	w26, w2, #0xff
   87ea0:	b9400680 	ldr	w0, [x20, #4]
   87ea4:	52800022 	mov	w2, #0x1                   	// #1
   87ea8:	a9035bf5 	stp	x21, x22, [sp, #48]
   87eac:	5ac01007 	clz	w7, w0
   87eb0:	4b070273 	sub	w19, w19, w7
   87eb4:	a90463f7 	stp	x23, x24, [sp, #64]
   87eb8:	52800417 	mov	w23, #0x20                  	// #32
   87ebc:	1a8502e5 	csel	w5, w23, w5, eq	// eq = none
   87ec0:	710000df 	cmp	w6, #0x0
   87ec4:	39642099 	ldrb	w25, [x4, #2312]
   87ec8:	1ad32056 	lsl	w22, w2, w19
   87ecc:	3941e7f8 	ldrb	w24, [sp, #121]
   87ed0:	0a360000 	bic	w0, w0, w22
   87ed4:	52800064 	mov	w4, #0x3                   	// #3
   87ed8:	1a840042 	csel	w2, w2, w4, eq	// eq = none
   87edc:	b9000680 	str	w0, [x20, #4]
   87ee0:	2a0103f5 	mov	w21, w1
   87ee4:	b9008bff 	str	wzr, [sp, #136]
   87ee8:	6b18033f 	cmp	w25, w24
   87eec:	390263e5 	strb	w5, [sp, #152]
   87ef0:	390267e2 	strb	w2, [sp, #153]
   87ef4:	790137e1 	strh	w1, [sp, #154]
   87ef8:	79013bfa 	strh	w26, [sp, #156]
   87efc:	79013fff 	strh	wzr, [sp, #158]
   87f00:	540004e0 	b.eq	87f9c <HCDChangeHubPortFeature+0x12c>  // b.none
   87f04:	12001e61 	and	w1, w19, #0xff
   87f08:	39022be1 	strb	w1, [sp, #138]
   87f0c:	f9403fe0 	ldr	x0, [sp, #120]
   87f10:	910263e2 	add	x2, sp, #0x98
   87f14:	b9408be1 	ldr	w1, [sp, #136]
   87f18:	52800103 	mov	w3, #0x8                   	// #8
   87f1c:	b90093e1 	str	w1, [sp, #144]
   87f20:	f9404be1 	ldr	x1, [sp, #144]
   87f24:	97fffc3b 	bl	87010 <HCDChannelTransfer>
   87f28:	35000720 	cbnz	w0, 8800c <HCDChangeHubPortFeature+0x19c>
   87f2c:	b94093e1 	ldr	w1, [sp, #144]
   87f30:	52800044 	mov	w4, #0x2                   	// #2
   87f34:	f9403fe0 	ldr	x0, [sp, #120]
   87f38:	32080021 	orr	w1, w1, #0x1000000
   87f3c:	b90093e1 	str	w1, [sp, #144]
   87f40:	52800003 	mov	w3, #0x0                   	// #0
   87f44:	d2800002 	mov	x2, #0x0                   	// #0
   87f48:	f9404be1 	ldr	x1, [sp, #144]
   87f4c:	97fffc31 	bl	87010 <HCDChannelTransfer>
   87f50:	35000780 	cbnz	w0, 88040 <HCDChangeHubPortFeature+0x1d0>
   87f54:	f0000040 	adrp	x0, 92000 <BitFont+0xbc0>
   87f58:	b94b0000 	ldr	w0, [x0, #2816]
   87f5c:	11660000 	add	w0, w0, #0x980, lsl #12
   87f60:	11140000 	add	w0, w0, #0x500
   87f64:	9b370273 	smaddl	x19, w19, w23, x0
   87f68:	b9401260 	ldr	w0, [x19, #16]
   87f6c:	b9400681 	ldr	w1, [x20, #4]
   87f70:	52800013 	mov	w19, #0x0                   	// #0
   87f74:	a9417bfd 	ldp	x29, x30, [sp, #16]
   87f78:	2a160021 	orr	w1, w1, w22
   87f7c:	b9000681 	str	w1, [x20, #4]
   87f80:	2a1303e0 	mov	w0, w19
   87f84:	a94253f3 	ldp	x19, x20, [sp, #32]
   87f88:	a9435bf5 	ldp	x21, x22, [sp, #48]
   87f8c:	a94463f7 	ldp	x23, x24, [sp, #64]
   87f90:	a9456bf9 	ldp	x25, x26, [sp, #80]
   87f94:	910283ff 	add	sp, sp, #0xa0
   87f98:	d65f03c0 	ret
   87f9c:	910263e2 	add	x2, sp, #0x98
   87fa0:	52800001 	mov	w1, #0x0                   	// #0
   87fa4:	d2800000 	mov	x0, #0x0                   	// #0
   87fa8:	f90033fb 	str	x27, [sp, #96]
   87fac:	12001c7b 	and	w27, w3, #0xff
   87fb0:	d2800003 	mov	x3, #0x0                   	// #0
   87fb4:	97fff717 	bl	85c10 <HcdProcessRootHubMessage>
   87fb8:	2a0003f3 	mov	w19, w0
   87fbc:	340004c0 	cbz	w0, 88054 <HCDChangeHubPortFeature+0x1e4>
   87fc0:	b9400685 	ldr	w5, [x20, #4]
   87fc4:	2a1b03e4 	mov	w4, w27
   87fc8:	2a1503e3 	mov	w3, w21
   87fcc:	2a1a03e2 	mov	w2, w26
   87fd0:	2a1600a5 	orr	w5, w5, w22
   87fd4:	2a1903e1 	mov	w1, w25
   87fd8:	b0000040 	adrp	x0, 90000 <__sflush_r+0x40>
   87fdc:	911e8000 	add	x0, x0, #0x7a0
   87fe0:	b9000685 	str	w5, [x20, #4]
   87fe4:	97ffe6db 	bl	81b50 <printf>
   87fe8:	a9417bfd 	ldp	x29, x30, [sp, #16]
   87fec:	2a1303e0 	mov	w0, w19
   87ff0:	a94253f3 	ldp	x19, x20, [sp, #32]
   87ff4:	a9435bf5 	ldp	x21, x22, [sp, #48]
   87ff8:	a94463f7 	ldp	x23, x24, [sp, #64]
   87ffc:	a9456bf9 	ldp	x25, x26, [sp, #80]
   88000:	f94033fb 	ldr	x27, [sp, #96]
   88004:	910283ff 	add	sp, sp, #0xa0
   88008:	d65f03c0 	ret
   8800c:	f9403fe4 	ldr	x4, [sp, #120]
   88010:	b90003e0 	str	w0, [sp]
   88014:	394263e3 	ldrb	w3, [sp, #152]
   88018:	2a1803e1 	mov	w1, w24
   8801c:	394267e2 	ldrb	w2, [sp, #153]
   88020:	12000485 	and	w5, w4, #0x3
   88024:	53126087 	ubfx	w7, w4, #18, #7
   88028:	53197c86 	lsr	w6, w4, #25
   8802c:	90000040 	adrp	x0, 90000 <__sflush_r+0x40>
   88030:	911be000 	add	x0, x0, #0x6f8
   88034:	53020c84 	ubfx	w4, w4, #2, #2
   88038:	97ffe6c6 	bl	81b50 <printf>
   8803c:	17ffffcc 	b	87f6c <HCDChangeHubPortFeature+0xfc>
   88040:	2a1803e1 	mov	w1, w24
   88044:	90000040 	adrp	x0, 90000 <__sflush_r+0x40>
   88048:	911dc000 	add	x0, x0, #0x770
   8804c:	97ffe6c1 	bl	81b50 <printf>
   88050:	17ffffc7 	b	87f6c <HCDChangeHubPortFeature+0xfc>
   88054:	f94033fb 	ldr	x27, [sp, #96]
   88058:	17ffffc5 	b	87f6c <HCDChangeHubPortFeature+0xfc>
   8805c:	d503201f 	nop

0000000000088060 <HCDInitialise>:
   88060:	a9bb7bfd 	stp	x29, x30, [sp, #-80]!
   88064:	52800801 	mov	w1, #0x40                  	// #64
   88068:	72a01301 	movk	w1, #0x98, lsl #16
   8806c:	910003fd 	mov	x29, sp
   88070:	f9000bf3 	str	x19, [sp, #16]
   88074:	d0000053 	adrp	x19, 92000 <BitFont+0xbc0>
   88078:	b94b0260 	ldr	w0, [x19, #2816]
   8807c:	51001022 	sub	w2, w1, #0x4
   88080:	0b010001 	add	w1, w0, w1
   88084:	0b020000 	add	w0, w0, w2
   88088:	52840002 	mov	w2, #0x2000                	// #8192
   8808c:	72a9ea82 	movk	w2, #0x4f54, lsl #16
   88090:	b9400021 	ldr	w1, [x1]
   88094:	b9400007 	ldr	w7, [x0]
   88098:	12144c20 	and	w0, w1, #0xfffff000
   8809c:	6b02001f 	cmp	w0, w2
   880a0:	530c7ce7 	lsr	w7, w7, #12
   880a4:	54000841 	b.ne	881ac <HCDInitialise+0x14c>  // b.any
   880a8:	12000c26 	and	w6, w1, #0xf
   880ac:	d3441c25 	ubfx	x5, x1, #4, #4
   880b0:	d3482c24 	ubfx	x4, x1, #8, #4
   880b4:	52800a82 	mov	w2, #0x54                  	// #84
   880b8:	528009e1 	mov	w1, #0x4f                  	// #79
   880bc:	90000040 	adrp	x0, 90000 <__sflush_r+0x40>
   880c0:	52800043 	mov	w3, #0x2                   	// #2
   880c4:	91248000 	add	x0, x0, #0x920
   880c8:	97ffe6a2 	bl	81b50 <printf>
   880cc:	b94b0260 	ldr	w0, [x19, #2816]
   880d0:	11660002 	add	w2, w0, #0x980, lsl #12
   880d4:	11011042 	add	w2, w2, #0x44
   880d8:	b9400441 	ldr	w1, [x2, #4]
   880dc:	d3431021 	ubfx	x1, x1, #3, #2
   880e0:	7100083f 	cmp	w1, #0x2
   880e4:	54000841 	b.ne	881ec <HCDInitialise+0x18c>  // b.any
   880e8:	b9400441 	ldr	w1, [x2, #4]
   880ec:	f27a043f 	tst	x1, #0xc0
   880f0:	54000740 	b.eq	881d8 <HCDInitialise+0x178>  // b.none
   880f4:	11660001 	add	w1, w0, #0x980, lsl #12
   880f8:	d2900025 	mov	x5, #0x8001                	// #32769
   880fc:	f2a00045 	movk	x5, #0x2, lsl #16
   88100:	11002021 	add	w1, w1, #0x8
   88104:	d2800104 	mov	x4, #0x8                   	// #8
   88108:	d2800406 	mov	x6, #0x20                  	// #32
   8810c:	f2c00105 	movk	x5, #0x8, lsl #32
   88110:	f2c00064 	movk	x4, #0x3, lsl #32
   88114:	b9400022 	ldr	w2, [x1]
   88118:	d2800023 	mov	x3, #0x1                   	// #1
   8811c:	b9002be2 	str	w2, [sp, #40]
   88120:	9100c3e0 	add	x0, sp, #0x30
   88124:	3940a3e2 	ldrb	w2, [sp, #40]
   88128:	121f7842 	and	w2, w2, #0xfffffffe
   8812c:	3900a3e2 	strb	w2, [sp, #40]
   88130:	b9402be2 	ldr	w2, [sp, #40]
   88134:	b9000022 	str	w2, [x1]
   88138:	b94b0261 	ldr	w1, [x19, #2816]
   8813c:	11660021 	add	w1, w1, #0x980, lsl #12
   88140:	11006021 	add	w1, w1, #0x18
   88144:	b900003f 	str	wzr, [x1]
   88148:	a90317e6 	stp	x6, x5, [sp, #48]
   8814c:	a9040fe4 	stp	x4, x3, [sp, #64]
   88150:	97ffe3b5 	bl	81024 <ARMaddrToGPUaddr>
   88154:	2a0003e1 	mov	w1, w0
   88158:	52800100 	mov	w0, #0x8                   	// #8
   8815c:	97fff225 	bl	849f0 <mailbox_write>
   88160:	52800100 	mov	w0, #0x8                   	// #8
   88164:	97fff233 	bl	84a30 <mailbox_read>
   88168:	b94037e0 	ldr	w0, [sp, #52]
   8816c:	52b00001 	mov	w1, #0x80000000            	// #-2147483648
   88170:	6b01001f 	cmp	w0, w1
   88174:	54000121 	b.ne	88198 <HCDInitialise+0x138>  // b.any
   88178:	b94043e1 	ldr	w1, [sp, #64]
   8817c:	11002000 	add	w0, w0, #0x8
   88180:	6b00003f 	cmp	w1, w0
   88184:	540000a1 	b.ne	88198 <HCDInitialise+0x138>  // b.any
   88188:	52800000 	mov	w0, #0x0                   	// #0
   8818c:	f9400bf3 	ldr	x19, [sp, #16]
   88190:	a8c57bfd 	ldp	x29, x30, [sp], #80
   88194:	d65f03c0 	ret
   88198:	90000040 	adrp	x0, 90000 <__sflush_r+0x40>
   8819c:	9126c000 	add	x0, x0, #0x9b0
   881a0:	97ffe66c 	bl	81b50 <printf>
   881a4:	12800080 	mov	w0, #0xfffffffb            	// #-5
   881a8:	17fffff9 	b	8818c <HCDInitialise+0x12c>
   881ac:	12000c26 	and	w6, w1, #0xf
   881b0:	d3441c25 	ubfx	x5, x1, #4, #4
   881b4:	d3482c24 	ubfx	x4, x1, #8, #4
   881b8:	d34c3c23 	ubfx	x3, x1, #12, #4
   881bc:	d3505c22 	ubfx	x2, x1, #16, #8
   881c0:	90000040 	adrp	x0, 90000 <__sflush_r+0x40>
   881c4:	53187c21 	lsr	w1, w1, #24
   881c8:	91230000 	add	x0, x0, #0x8c0
   881cc:	97ffe661 	bl	81b50 <printf>
   881d0:	12800080 	mov	w0, #0xfffffffb            	// #-5
   881d4:	17ffffee 	b	8818c <HCDInitialise+0x12c>
   881d8:	90000040 	adrp	x0, 90000 <__sflush_r+0x40>
   881dc:	91262000 	add	x0, x0, #0x988
   881e0:	97ffe65c 	bl	81b50 <printf>
   881e4:	12800080 	mov	w0, #0xfffffffb            	// #-5
   881e8:	17ffffe9 	b	8818c <HCDInitialise+0x12c>
   881ec:	90000040 	adrp	x0, 90000 <__sflush_r+0x40>
   881f0:	91254000 	add	x0, x0, #0x950
   881f4:	97ffe657 	bl	81b50 <printf>
   881f8:	12800080 	mov	w0, #0xfffffffb            	// #-5
   881fc:	17ffffe4 	b	8818c <HCDInitialise+0x12c>

0000000000088200 <AddHidPayload>:
   88200:	aa0003e3 	mov	x3, x0
   88204:	b4000780 	cbz	x0, 882f4 <AddHidPayload+0xf4>
   88208:	b943f000 	ldr	w0, [x0, #1008]
   8820c:	7100041f 	cmp	w0, #0x1
   88210:	54000721 	b.ne	882f4 <AddHidPayload+0xf4>  // b.any
   88214:	f0000041 	adrp	x1, 93000 <_impure_data+0x148>
   88218:	91242021 	add	x1, x1, #0x908
   8821c:	3940c024 	ldrb	w4, [x1, #48]
   88220:	34000424 	cbz	w4, 882a4 <AddHidPayload+0xa4>
   88224:	39417024 	ldrb	w4, [x1, #92]
   88228:	34000624 	cbz	w4, 882ec <AddHidPayload+0xec>
   8822c:	39422020 	ldrb	w0, [x1, #136]
   88230:	34000660 	cbz	w0, 882fc <AddHidPayload+0xfc>
   88234:	3942d020 	ldrb	w0, [x1, #180]
   88238:	34000660 	cbz	w0, 88304 <AddHidPayload+0x104>
   8823c:	39438020 	ldrb	w0, [x1, #224]
   88240:	34000660 	cbz	w0, 8830c <AddHidPayload+0x10c>
   88244:	39443020 	ldrb	w0, [x1, #268]
   88248:	34000660 	cbz	w0, 88314 <AddHidPayload+0x114>
   8824c:	3944e020 	ldrb	w0, [x1, #312]
   88250:	34000660 	cbz	w0, 8831c <AddHidPayload+0x11c>
   88254:	39459020 	ldrb	w0, [x1, #356]
   88258:	34000660 	cbz	w0, 88324 <AddHidPayload+0x124>
   8825c:	39464022 	ldrb	w2, [x1, #400]
   88260:	34000662 	cbz	w2, 8832c <AddHidPayload+0x12c>
   88264:	3946f022 	ldrb	w2, [x1, #444]
   88268:	34000662 	cbz	w2, 88334 <AddHidPayload+0x134>
   8826c:	3947a022 	ldrb	w2, [x1, #488]
   88270:	34000662 	cbz	w2, 8833c <AddHidPayload+0x13c>
   88274:	39485022 	ldrb	w2, [x1, #532]
   88278:	34000322 	cbz	w2, 882dc <AddHidPayload+0xdc>
   8827c:	39490022 	ldrb	w2, [x1, #576]
   88280:	34000622 	cbz	w2, 88344 <AddHidPayload+0x144>
   88284:	3949b022 	ldrb	w2, [x1, #620]
   88288:	34000622 	cbz	w2, 8834c <AddHidPayload+0x14c>
   8828c:	394a6022 	ldrb	w2, [x1, #664]
   88290:	34000622 	cbz	w2, 88354 <AddHidPayload+0x154>
   88294:	394b1022 	ldrb	w2, [x1, #708]
   88298:	128000c0 	mov	w0, #0xfffffff9            	// #-7
   8829c:	34000242 	cbz	w2, 882e4 <AddHidPayload+0xe4>
   882a0:	d65f03c0 	ret
   882a4:	52800002 	mov	w2, #0x0                   	// #0
   882a8:	91002021 	add	x1, x1, #0x8
   882ac:	93407c44 	sxtw	x4, w2
   882b0:	d2800580 	mov	x0, #0x2c                  	// #44
   882b4:	52800587 	mov	w7, #0x2c                  	// #44
   882b8:	52800085 	mov	w5, #0x4                   	// #4
   882bc:	52800066 	mov	w6, #0x3                   	// #3
   882c0:	9b000484 	madd	x4, x4, x0, x1
   882c4:	52800000 	mov	w0, #0x0                   	// #0
   882c8:	9b270442 	smaddl	x2, w2, w7, x1
   882cc:	b903f066 	str	w6, [x3, #1008]
   882d0:	f901fc62 	str	x2, [x3, #1016]
   882d4:	3900a085 	strb	w5, [x4, #40]
   882d8:	d65f03c0 	ret
   882dc:	52800162 	mov	w2, #0xb                   	// #11
   882e0:	17fffff2 	b	882a8 <AddHidPayload+0xa8>
   882e4:	528001e2 	mov	w2, #0xf                   	// #15
   882e8:	17fffff0 	b	882a8 <AddHidPayload+0xa8>
   882ec:	2a0003e2 	mov	w2, w0
   882f0:	17ffffee 	b	882a8 <AddHidPayload+0xa8>
   882f4:	12800020 	mov	w0, #0xfffffffe            	// #-2
   882f8:	d65f03c0 	ret
   882fc:	52800042 	mov	w2, #0x2                   	// #2
   88300:	17ffffea 	b	882a8 <AddHidPayload+0xa8>
   88304:	52800062 	mov	w2, #0x3                   	// #3
   88308:	17ffffe8 	b	882a8 <AddHidPayload+0xa8>
   8830c:	52800082 	mov	w2, #0x4                   	// #4
   88310:	17ffffe6 	b	882a8 <AddHidPayload+0xa8>
   88314:	528000a2 	mov	w2, #0x5                   	// #5
   88318:	17ffffe4 	b	882a8 <AddHidPayload+0xa8>
   8831c:	528000c2 	mov	w2, #0x6                   	// #6
   88320:	17ffffe2 	b	882a8 <AddHidPayload+0xa8>
   88324:	528000e2 	mov	w2, #0x7                   	// #7
   88328:	17ffffe0 	b	882a8 <AddHidPayload+0xa8>
   8832c:	52800102 	mov	w2, #0x8                   	// #8
   88330:	17ffffde 	b	882a8 <AddHidPayload+0xa8>
   88334:	52800122 	mov	w2, #0x9                   	// #9
   88338:	17ffffdc 	b	882a8 <AddHidPayload+0xa8>
   8833c:	52800142 	mov	w2, #0xa                   	// #10
   88340:	17ffffda 	b	882a8 <AddHidPayload+0xa8>
   88344:	52800182 	mov	w2, #0xc                   	// #12
   88348:	17ffffd8 	b	882a8 <AddHidPayload+0xa8>
   8834c:	528001a2 	mov	w2, #0xd                   	// #13
   88350:	17ffffd6 	b	882a8 <AddHidPayload+0xa8>
   88354:	528001c2 	mov	w2, #0xe                   	// #14
   88358:	17ffffd4 	b	882a8 <AddHidPayload+0xa8>
   8835c:	d503201f 	nop

0000000000088360 <RemoveHidPayload>:
   88360:	b40002c0 	cbz	x0, 883b8 <RemoveHidPayload+0x58>
   88364:	a9be7bfd 	stp	x29, x30, [sp, #-32]!
   88368:	910003fd 	mov	x29, sp
   8836c:	f9000bf3 	str	x19, [sp, #16]
   88370:	aa0003f3 	mov	x19, x0
   88374:	b943f000 	ldr	w0, [x0, #1008]
   88378:	71000c1f 	cmp	w0, #0x3
   8837c:	54000080 	b.eq	8838c <RemoveHidPayload+0x2c>  // b.none
   88380:	f9400bf3 	ldr	x19, [sp, #16]
   88384:	a8c27bfd 	ldp	x29, x30, [sp], #32
   88388:	d65f03c0 	ret
   8838c:	f941fe60 	ldr	x0, [x19, #1016]
   88390:	b4ffff80 	cbz	x0, 88380 <RemoveHidPayload+0x20>
   88394:	d2800582 	mov	x2, #0x2c                  	// #44
   88398:	52800001 	mov	w1, #0x0                   	// #0
   8839c:	94000f99 	bl	8c200 <memset>
   883a0:	f901fe7f 	str	xzr, [x19, #1016]
   883a4:	52800020 	mov	w0, #0x1                   	// #1
   883a8:	b903f260 	str	w0, [x19, #1008]
   883ac:	f9400bf3 	ldr	x19, [sp, #16]
   883b0:	a8c27bfd 	ldp	x29, x30, [sp], #32
   883b4:	d65f03c0 	ret
   883b8:	d65f03c0 	ret
   883bc:	d503201f 	nop

00000000000883c0 <AddHubPayload>:
   883c0:	aa0003e3 	mov	x3, x0
   883c4:	b40007c0 	cbz	x0, 884bc <AddHubPayload+0xfc>
   883c8:	b943f000 	ldr	w0, [x0, #1008]
   883cc:	7100041f 	cmp	w0, #0x1
   883d0:	54000761 	b.ne	884bc <AddHubPayload+0xfc>  // b.any
   883d4:	f0000041 	adrp	x1, 93000 <_impure_data+0x148>
   883d8:	91242021 	add	x1, x1, #0x908
   883dc:	910b2022 	add	x2, x1, #0x2c8
   883e0:	b942c824 	ldr	w4, [x1, #712]
   883e4:	34000444 	cbz	w4, 8846c <AddHubPayload+0xac>
   883e8:	b9433024 	ldr	w4, [x1, #816]
   883ec:	34000424 	cbz	w4, 88470 <AddHubPayload+0xb0>
   883f0:	b9439820 	ldr	w0, [x1, #920]
   883f4:	34000600 	cbz	w0, 884b4 <AddHubPayload+0xf4>
   883f8:	b9440020 	ldr	w0, [x1, #1024]
   883fc:	34000640 	cbz	w0, 884c4 <AddHubPayload+0x104>
   88400:	b9446820 	ldr	w0, [x1, #1128]
   88404:	34000640 	cbz	w0, 884cc <AddHubPayload+0x10c>
   88408:	b944d020 	ldr	w0, [x1, #1232]
   8840c:	34000640 	cbz	w0, 884d4 <AddHubPayload+0x114>
   88410:	b9453820 	ldr	w0, [x1, #1336]
   88414:	34000640 	cbz	w0, 884dc <AddHubPayload+0x11c>
   88418:	b945a020 	ldr	w0, [x1, #1440]
   8841c:	34000640 	cbz	w0, 884e4 <AddHubPayload+0x124>
   88420:	aa0203e0 	mov	x0, x2
   88424:	b9434042 	ldr	w2, [x2, #832]
   88428:	34000622 	cbz	w2, 884ec <AddHubPayload+0x12c>
   8842c:	b943a802 	ldr	w2, [x0, #936]
   88430:	34000622 	cbz	w2, 884f4 <AddHubPayload+0x134>
   88434:	b9441002 	ldr	w2, [x0, #1040]
   88438:	34000622 	cbz	w2, 884fc <AddHubPayload+0x13c>
   8843c:	b9447802 	ldr	w2, [x0, #1144]
   88440:	34000322 	cbz	w2, 884a4 <AddHubPayload+0xe4>
   88444:	b944e002 	ldr	w2, [x0, #1248]
   88448:	340005e2 	cbz	w2, 88504 <AddHubPayload+0x144>
   8844c:	b9454802 	ldr	w2, [x0, #1352]
   88450:	340005e2 	cbz	w2, 8850c <AddHubPayload+0x14c>
   88454:	b945b002 	ldr	w2, [x0, #1456]
   88458:	340005e2 	cbz	w2, 88514 <AddHubPayload+0x154>
   8845c:	b9461802 	ldr	w2, [x0, #1560]
   88460:	128000c0 	mov	w0, #0xfffffff9            	// #-7
   88464:	34000242 	cbz	w2, 884ac <AddHubPayload+0xec>
   88468:	d65f03c0 	ret
   8846c:	52800000 	mov	w0, #0x0                   	// #0
   88470:	93407c04 	sxtw	x4, w0
   88474:	d2800d05 	mov	x5, #0x68                  	// #104
   88478:	910b2021 	add	x1, x1, #0x2c8
   8847c:	52800d02 	mov	w2, #0x68                  	// #104
   88480:	52800046 	mov	w6, #0x2                   	// #2
   88484:	b903f066 	str	w6, [x3, #1008]
   88488:	9b057c84 	mul	x4, x4, x5
   8848c:	52800145 	mov	w5, #0xa                   	// #10
   88490:	9b220402 	smaddl	x2, w0, w2, x1
   88494:	52800000 	mov	w0, #0x0                   	// #0
   88498:	f901fc62 	str	x2, [x3, #1016]
   8849c:	b8246825 	str	w5, [x1, x4]
   884a0:	d65f03c0 	ret
   884a4:	52800160 	mov	w0, #0xb                   	// #11
   884a8:	17fffff2 	b	88470 <AddHubPayload+0xb0>
   884ac:	528001e0 	mov	w0, #0xf                   	// #15
   884b0:	17fffff0 	b	88470 <AddHubPayload+0xb0>
   884b4:	52800040 	mov	w0, #0x2                   	// #2
   884b8:	17ffffee 	b	88470 <AddHubPayload+0xb0>
   884bc:	12800020 	mov	w0, #0xfffffffe            	// #-2
   884c0:	d65f03c0 	ret
   884c4:	52800060 	mov	w0, #0x3                   	// #3
   884c8:	17ffffea 	b	88470 <AddHubPayload+0xb0>
   884cc:	52800080 	mov	w0, #0x4                   	// #4
   884d0:	17ffffe8 	b	88470 <AddHubPayload+0xb0>
   884d4:	528000a0 	mov	w0, #0x5                   	// #5
   884d8:	17ffffe6 	b	88470 <AddHubPayload+0xb0>
   884dc:	528000c0 	mov	w0, #0x6                   	// #6
   884e0:	17ffffe4 	b	88470 <AddHubPayload+0xb0>
   884e4:	528000e0 	mov	w0, #0x7                   	// #7
   884e8:	17ffffe2 	b	88470 <AddHubPayload+0xb0>
   884ec:	52800100 	mov	w0, #0x8                   	// #8
   884f0:	17ffffe0 	b	88470 <AddHubPayload+0xb0>
   884f4:	52800120 	mov	w0, #0x9                   	// #9
   884f8:	17ffffde 	b	88470 <AddHubPayload+0xb0>
   884fc:	52800140 	mov	w0, #0xa                   	// #10
   88500:	17ffffdc 	b	88470 <AddHubPayload+0xb0>
   88504:	52800180 	mov	w0, #0xc                   	// #12
   88508:	17ffffda 	b	88470 <AddHubPayload+0xb0>
   8850c:	528001a0 	mov	w0, #0xd                   	// #13
   88510:	17ffffd8 	b	88470 <AddHubPayload+0xb0>
   88514:	528001c0 	mov	w0, #0xe                   	// #14
   88518:	17ffffd6 	b	88470 <AddHubPayload+0xb0>
   8851c:	d503201f 	nop

0000000000088520 <UsbAllocateDevice>:
   88520:	b4000360 	cbz	x0, 8858c <UsbAllocateDevice+0x6c>
   88524:	90000064 	adrp	x4, 94000 <HubTable+0x430>
   88528:	910a8084 	add	x4, x4, #0x2a0
   8852c:	aa0403e2 	mov	x2, x4
   88530:	52800001 	mov	w1, #0x0                   	// #0
   88534:	14000004 	b	88544 <UsbAllocateDevice+0x24>
   88538:	11000421 	add	w1, w1, #0x1
   8853c:	7100803f 	cmp	w1, #0x20
   88540:	54000220 	b.eq	88584 <UsbAllocateDevice+0x64>  // b.none
   88544:	b943f043 	ldr	w3, [x2, #1008]
   88548:	91100042 	add	x2, x2, #0x400
   8854c:	35ffff63 	cbnz	w3, 88538 <UsbAllocateDevice+0x18>
   88550:	93767c23 	sbfiz	x3, x1, #10, #32
   88554:	11000421 	add	w1, w1, #0x1
   88558:	8b030082 	add	x2, x4, x3
   8855c:	f9000002 	str	x2, [x0]
   88560:	52801fe6 	mov	w6, #0xff                  	// #255
   88564:	52800025 	mov	w5, #0x1                   	// #1
   88568:	52800000 	mov	w0, #0x0                   	// #0
   8856c:	39001441 	strb	w1, [x2, #5]
   88570:	3900385f 	strb	wzr, [x2, #14]
   88574:	78236886 	strh	w6, [x4, x3]
   88578:	b903f045 	str	w5, [x2, #1008]
   8857c:	f901fc5f 	str	xzr, [x2, #1016]
   88580:	d65f03c0 	ret
   88584:	128000c0 	mov	w0, #0xfffffff9            	// #-7
   88588:	d65f03c0 	ret
   8858c:	12800020 	mov	w0, #0xfffffffe            	// #-2
   88590:	d65f03c0 	ret
   88594:	d503201f 	nop
   88598:	d503201f 	nop
   8859c:	d503201f 	nop

00000000000885a0 <UsbDeallocateDevice>:
   885a0:	a9be7bfd 	stp	x29, x30, [sp, #-32]!
   885a4:	910003fd 	mov	x29, sp
   885a8:	a90153f3 	stp	x19, x20, [sp, #16]
   885ac:	aa0003f3 	mov	x19, x0
   885b0:	39401400 	ldrb	w0, [x0, #5]
   885b4:	51000400 	sub	w0, w0, #0x1
   885b8:	12001c01 	and	w1, w0, #0xff
   885bc:	71007c3f 	cmp	w1, #0x1f
   885c0:	54000108 	b.hi	885e0 <UsbDeallocateDevice+0x40>  // b.pmore
   885c4:	93767c00 	sbfiz	x0, x0, #10, #32
   885c8:	90000061 	adrp	x1, 94000 <HubTable+0x430>
   885cc:	910a8021 	add	x1, x1, #0x2a0
   885d0:	8b000020 	add	x0, x1, x0
   885d4:	b943f001 	ldr	w1, [x0, #1008]
   885d8:	7100083f 	cmp	w1, #0x2
   885dc:	540003c0 	b.eq	88654 <UsbDeallocateDevice+0xb4>  // b.none
   885e0:	39400260 	ldrb	w0, [x19]
   885e4:	71007c1f 	cmp	w0, #0x1f
   885e8:	54000128 	b.hi	8860c <UsbDeallocateDevice+0x6c>  // b.pmore
   885ec:	51000400 	sub	w0, w0, #0x1
   885f0:	90000061 	adrp	x1, 94000 <HubTable+0x430>
   885f4:	910a8021 	add	x1, x1, #0x2a0
   885f8:	93767c00 	sbfiz	x0, x0, #10, #32
   885fc:	8b000020 	add	x0, x1, x0
   88600:	b943f001 	ldr	w1, [x0, #1008]
   88604:	7100083f 	cmp	w1, #0x2
   88608:	540000e0 	b.eq	88624 <UsbDeallocateDevice+0x84>  // b.none
   8860c:	aa1303e0 	mov	x0, x19
   88610:	d2808002 	mov	x2, #0x400                 	// #1024
   88614:	a94153f3 	ldp	x19, x20, [sp, #16]
   88618:	52800001 	mov	w1, #0x0                   	// #0
   8861c:	a8c27bfd 	ldp	x29, x30, [sp], #32
   88620:	14000ef8 	b	8c200 <memset>
   88624:	f941fc00 	ldr	x0, [x0, #1016]
   88628:	b4ffff20 	cbz	x0, 8860c <UsbDeallocateDevice+0x6c>
   8862c:	39400661 	ldrb	w1, [x19, #1]
   88630:	b9400002 	ldr	w2, [x0]
   88634:	6b02003f 	cmp	w1, w2
   88638:	54fffea2 	b.cs	8860c <UsbDeallocateDevice+0x6c>  // b.hs, b.nlast
   8863c:	8b210c01 	add	x1, x0, w1, uxtb #3
   88640:	f9400420 	ldr	x0, [x1, #8]
   88644:	eb13001f 	cmp	x0, x19
   88648:	54fffe21 	b.ne	8860c <UsbDeallocateDevice+0x6c>  // b.any
   8864c:	f900043f 	str	xzr, [x1, #8]
   88650:	17ffffef 	b	8860c <UsbDeallocateDevice+0x6c>
   88654:	f941fc00 	ldr	x0, [x0, #1016]
   88658:	b4fffc40 	cbz	x0, 885e0 <UsbDeallocateDevice+0x40>
   8865c:	f941fe61 	ldr	x1, [x19, #1016]
   88660:	b9400022 	ldr	w2, [x1]
   88664:	34000602 	cbz	w2, 88724 <UsbDeallocateDevice+0x184>
   88668:	52800014 	mov	w20, #0x0                   	// #0
   8866c:	d503201f 	nop
   88670:	8b34cc20 	add	x0, x1, w20, sxtw #3
   88674:	f9400400 	ldr	x0, [x0, #8]
   88678:	b4000280 	cbz	x0, 886c8 <UsbDeallocateDevice+0x128>
   8867c:	97ffffc9 	bl	885a0 <UsbDeallocateDevice>
   88680:	11000694 	add	w20, w20, #0x1
   88684:	f941fe61 	ldr	x1, [x19, #1016]
   88688:	b9400022 	ldr	w2, [x1]
   8868c:	6b02029f 	cmp	w20, w2
   88690:	54ffff03 	b.cc	88670 <UsbDeallocateDevice+0xd0>  // b.lo, b.ul, b.last
   88694:	b943f260 	ldr	w0, [x19, #1008]
   88698:	7100081f 	cmp	w0, #0x2
   8869c:	54fffa21 	b.ne	885e0 <UsbDeallocateDevice+0x40>  // b.any
   886a0:	35000202 	cbnz	w2, 886e0 <UsbDeallocateDevice+0x140>
   886a4:	d503201f 	nop
   886a8:	aa0103e0 	mov	x0, x1
   886ac:	d2800d02 	mov	x2, #0x68                  	// #104
   886b0:	52800001 	mov	w1, #0x0                   	// #0
   886b4:	94000ed3 	bl	8c200 <memset>
   886b8:	52800020 	mov	w0, #0x1                   	// #1
   886bc:	b903f260 	str	w0, [x19, #1008]
   886c0:	f901fe7f 	str	xzr, [x19, #1016]
   886c4:	17ffffc7 	b	885e0 <UsbDeallocateDevice+0x40>
   886c8:	11000694 	add	w20, w20, #0x1
   886cc:	6b14005f 	cmp	w2, w20
   886d0:	54fffd08 	b.hi	88670 <UsbDeallocateDevice+0xd0>  // b.pmore
   886d4:	b943f260 	ldr	w0, [x19, #1008]
   886d8:	7100081f 	cmp	w0, #0x2
   886dc:	54fff821 	b.ne	885e0 <UsbDeallocateDevice+0x40>  // b.any
   886e0:	52800014 	mov	w20, #0x0                   	// #0
   886e4:	8b34cc20 	add	x0, x1, w20, sxtw #3
   886e8:	f9400400 	ldr	x0, [x0, #8]
   886ec:	b4000140 	cbz	x0, 88714 <UsbDeallocateDevice+0x174>
   886f0:	97ffffac 	bl	885a0 <UsbDeallocateDevice>
   886f4:	11000694 	add	w20, w20, #0x1
   886f8:	f941fe61 	ldr	x1, [x19, #1016]
   886fc:	b9400022 	ldr	w2, [x1]
   88700:	6b02029f 	cmp	w20, w2
   88704:	54fffd22 	b.cs	886a8 <UsbDeallocateDevice+0x108>  // b.hs, b.nlast
   88708:	8b34cc20 	add	x0, x1, w20, sxtw #3
   8870c:	f9400400 	ldr	x0, [x0, #8]
   88710:	b5ffff00 	cbnz	x0, 886f0 <UsbDeallocateDevice+0x150>
   88714:	11000694 	add	w20, w20, #0x1
   88718:	6b14005f 	cmp	w2, w20
   8871c:	54fffe48 	b.hi	886e4 <UsbDeallocateDevice+0x144>  // b.pmore
   88720:	17ffffe2 	b	886a8 <UsbDeallocateDevice+0x108>
   88724:	b943f260 	ldr	w0, [x19, #1008]
   88728:	7100081f 	cmp	w0, #0x2
   8872c:	54fff5a1 	b.ne	885e0 <UsbDeallocateDevice+0x40>  // b.any
   88730:	17ffffde 	b	886a8 <UsbDeallocateDevice+0x108>
   88734:	d503201f 	nop
   88738:	d503201f 	nop
   8873c:	d503201f 	nop

0000000000088740 <RemoveHubPayload>:
   88740:	b40007a0 	cbz	x0, 88834 <RemoveHubPayload+0xf4>
   88744:	a9bc7bfd 	stp	x29, x30, [sp, #-64]!
   88748:	910003fd 	mov	x29, sp
   8874c:	a90153f3 	stp	x19, x20, [sp, #16]
   88750:	aa0003f3 	mov	x19, x0
   88754:	b943f000 	ldr	w0, [x0, #1008]
   88758:	7100081f 	cmp	w0, #0x2
   8875c:	54000080 	b.eq	8876c <RemoveHubPayload+0x2c>  // b.none
   88760:	a94153f3 	ldp	x19, x20, [sp, #16]
   88764:	a8c47bfd 	ldp	x29, x30, [sp], #64
   88768:	d65f03c0 	ret
   8876c:	f941fe60 	ldr	x0, [x19, #1016]
   88770:	b4ffff80 	cbz	x0, 88760 <RemoveHubPayload+0x20>
   88774:	b9400002 	ldr	w2, [x0]
   88778:	340004c2 	cbz	w2, 88810 <RemoveHubPayload+0xd0>
   8877c:	a9025bf5 	stp	x21, x22, [sp, #32]
   88780:	90000076 	adrp	x22, 94000 <HubTable+0x430>
   88784:	910a82d6 	add	x22, x22, #0x2a0
   88788:	52800015 	mov	w21, #0x0                   	// #0
   8878c:	d503201f 	nop
   88790:	8b35cc01 	add	x1, x0, w21, sxtw #3
   88794:	f9400434 	ldr	x20, [x1, #8]
   88798:	b4000354 	cbz	x20, 88800 <RemoveHubPayload+0xc0>
   8879c:	39401680 	ldrb	w0, [x20, #5]
   887a0:	51000400 	sub	w0, w0, #0x1
   887a4:	12001c01 	and	w1, w0, #0xff
   887a8:	71007c3f 	cmp	w1, #0x1f
   887ac:	540000c8 	b.hi	887c4 <RemoveHubPayload+0x84>  // b.pmore
   887b0:	93767c00 	sbfiz	x0, x0, #10, #32
   887b4:	8b0002c0 	add	x0, x22, x0
   887b8:	b943f001 	ldr	w1, [x0, #1008]
   887bc:	7100083f 	cmp	w1, #0x2
   887c0:	54000540 	b.eq	88868 <RemoveHubPayload+0x128>  // b.none
   887c4:	39400280 	ldrb	w0, [x20]
   887c8:	71007c1f 	cmp	w0, #0x1f
   887cc:	540000e8 	b.hi	887e8 <RemoveHubPayload+0xa8>  // b.pmore
   887d0:	51000400 	sub	w0, w0, #0x1
   887d4:	93767c00 	sbfiz	x0, x0, #10, #32
   887d8:	8b0002c0 	add	x0, x22, x0
   887dc:	b943f001 	ldr	w1, [x0, #1008]
   887e0:	7100083f 	cmp	w1, #0x2
   887e4:	540002a0 	b.eq	88838 <RemoveHubPayload+0xf8>  // b.none
   887e8:	d2808002 	mov	x2, #0x400                 	// #1024
   887ec:	aa1403e0 	mov	x0, x20
   887f0:	52800001 	mov	w1, #0x0                   	// #0
   887f4:	94000e83 	bl	8c200 <memset>
   887f8:	f941fe60 	ldr	x0, [x19, #1016]
   887fc:	b9400002 	ldr	w2, [x0]
   88800:	110006b5 	add	w21, w21, #0x1
   88804:	6b0202bf 	cmp	w21, w2
   88808:	54fffc43 	b.cc	88790 <RemoveHubPayload+0x50>  // b.lo, b.ul, b.last
   8880c:	a9425bf5 	ldp	x21, x22, [sp, #32]
   88810:	d2800d02 	mov	x2, #0x68                  	// #104
   88814:	52800001 	mov	w1, #0x0                   	// #0
   88818:	94000e7a 	bl	8c200 <memset>
   8881c:	52800020 	mov	w0, #0x1                   	// #1
   88820:	b903f260 	str	w0, [x19, #1008]
   88824:	f901fe7f 	str	xzr, [x19, #1016]
   88828:	a94153f3 	ldp	x19, x20, [sp, #16]
   8882c:	a8c47bfd 	ldp	x29, x30, [sp], #64
   88830:	d65f03c0 	ret
   88834:	d65f03c0 	ret
   88838:	f941fc00 	ldr	x0, [x0, #1016]
   8883c:	b4fffd60 	cbz	x0, 887e8 <RemoveHubPayload+0xa8>
   88840:	39400681 	ldrb	w1, [x20, #1]
   88844:	b9400002 	ldr	w2, [x0]
   88848:	6b02003f 	cmp	w1, w2
   8884c:	54fffce2 	b.cs	887e8 <RemoveHubPayload+0xa8>  // b.hs, b.nlast
   88850:	8b210c01 	add	x1, x0, w1, uxtb #3
   88854:	f9400420 	ldr	x0, [x1, #8]
   88858:	eb00029f 	cmp	x20, x0
   8885c:	54fffc61 	b.ne	887e8 <RemoveHubPayload+0xa8>  // b.any
   88860:	f900043f 	str	xzr, [x1, #8]
   88864:	17ffffe1 	b	887e8 <RemoveHubPayload+0xa8>
   88868:	f941fc00 	ldr	x0, [x0, #1016]
   8886c:	b4fffac0 	cbz	x0, 887c4 <RemoveHubPayload+0x84>
   88870:	f941fe81 	ldr	x1, [x20, #1016]
   88874:	b9400022 	ldr	w2, [x1]
   88878:	34000642 	cbz	w2, 88940 <RemoveHubPayload+0x200>
   8887c:	f9001bf7 	str	x23, [sp, #48]
   88880:	52800017 	mov	w23, #0x0                   	// #0
   88884:	d503201f 	nop
   88888:	8b37cc20 	add	x0, x1, w23, sxtw #3
   8888c:	f9400400 	ldr	x0, [x0, #8]
   88890:	b4000400 	cbz	x0, 88910 <RemoveHubPayload+0x1d0>
   88894:	97ffff43 	bl	885a0 <UsbDeallocateDevice>
   88898:	110006f7 	add	w23, w23, #0x1
   8889c:	f941fe81 	ldr	x1, [x20, #1016]
   888a0:	b9400022 	ldr	w2, [x1]
   888a4:	6b0202ff 	cmp	w23, w2
   888a8:	54ffff03 	b.cc	88888 <RemoveHubPayload+0x148>  // b.lo, b.ul, b.last
   888ac:	b943f280 	ldr	w0, [x20, #1008]
   888b0:	7100081f 	cmp	w0, #0x2
   888b4:	540003a1 	b.ne	88928 <RemoveHubPayload+0x1e8>  // b.any
   888b8:	340001a2 	cbz	w2, 888ec <RemoveHubPayload+0x1ac>
   888bc:	d503201f 	nop
   888c0:	52800017 	mov	w23, #0x0                   	// #0
   888c4:	d503201f 	nop
   888c8:	8b37cc20 	add	x0, x1, w23, sxtw #3
   888cc:	f9400400 	ldr	x0, [x0, #8]
   888d0:	b4000300 	cbz	x0, 88930 <RemoveHubPayload+0x1f0>
   888d4:	97ffff33 	bl	885a0 <UsbDeallocateDevice>
   888d8:	110006f7 	add	w23, w23, #0x1
   888dc:	f941fe81 	ldr	x1, [x20, #1016]
   888e0:	b9400022 	ldr	w2, [x1]
   888e4:	6b0202ff 	cmp	w23, w2
   888e8:	54ffff03 	b.cc	888c8 <RemoveHubPayload+0x188>  // b.lo, b.ul, b.last
   888ec:	f9401bf7 	ldr	x23, [sp, #48]
   888f0:	aa0103e0 	mov	x0, x1
   888f4:	d2800d02 	mov	x2, #0x68                  	// #104
   888f8:	52800001 	mov	w1, #0x0                   	// #0
   888fc:	94000e41 	bl	8c200 <memset>
   88900:	f901fe9f 	str	xzr, [x20, #1016]
   88904:	52800020 	mov	w0, #0x1                   	// #1
   88908:	b903f280 	str	w0, [x20, #1008]
   8890c:	17ffffae 	b	887c4 <RemoveHubPayload+0x84>
   88910:	110006f7 	add	w23, w23, #0x1
   88914:	6b0202ff 	cmp	w23, w2
   88918:	54fffb83 	b.cc	88888 <RemoveHubPayload+0x148>  // b.lo, b.ul, b.last
   8891c:	b943f280 	ldr	w0, [x20, #1008]
   88920:	7100081f 	cmp	w0, #0x2
   88924:	54fffce0 	b.eq	888c0 <RemoveHubPayload+0x180>  // b.none
   88928:	f9401bf7 	ldr	x23, [sp, #48]
   8892c:	17ffffa6 	b	887c4 <RemoveHubPayload+0x84>
   88930:	110006f7 	add	w23, w23, #0x1
   88934:	6b0202ff 	cmp	w23, w2
   88938:	54fffc83 	b.cc	888c8 <RemoveHubPayload+0x188>  // b.lo, b.ul, b.last
   8893c:	17ffffec 	b	888ec <RemoveHubPayload+0x1ac>
   88940:	b943f280 	ldr	w0, [x20, #1008]
   88944:	7100081f 	cmp	w0, #0x2
   88948:	54fff3e1 	b.ne	887c4 <RemoveHubPayload+0x84>  // b.any
   8894c:	17ffffe9 	b	888f0 <RemoveHubPayload+0x1b0>

0000000000088950 <EnumerateHID>:
   88950:	d11243ff 	sub	sp, sp, #0x490
   88954:	a9007bfd 	stp	x29, x30, [sp]
   88958:	910003fd 	mov	x29, sp
   8895c:	f941fc22 	ldr	x2, [x1, #1016]
   88960:	b9006be0 	str	w0, [sp, #104]
   88964:	3940a040 	ldrb	w0, [x2, #40]
   88968:	34000fe0 	cbz	w0, 88b64 <EnumerateHID+0x214>
   8896c:	a9025bf5 	stp	x21, x22, [sp, #32]
   88970:	aa0103f5 	mov	x21, x1
   88974:	3941a7f6 	ldrb	w22, [sp, #105]
   88978:	a90153f3 	stp	x19, x20, [sp, #16]
   8897c:	510006d6 	sub	w22, w22, #0x1
   88980:	a90363f7 	stp	x23, x24, [sp, #48]
   88984:	12001ec0 	and	w0, w22, #0xff
   88988:	71007c1f 	cmp	w0, #0x1f
   8898c:	54000fe8 	b.hi	88b88 <EnumerateHID+0x238>  // b.pmore
   88990:	93767ed6 	sbfiz	x22, x22, #10, #32
   88994:	90000077 	adrp	x23, 94000 <HubTable+0x430>
   88998:	910a82f7 	add	x23, x23, #0x2a0
   8899c:	90000058 	adrp	x24, 90000 <__sflush_r+0x40>
   889a0:	91278300 	add	x0, x24, #0x9e0
   889a4:	8b1602f3 	add	x19, x23, x22
   889a8:	52800018 	mov	w24, #0x0                   	// #0
   889ac:	a9046bf9 	stp	x25, x26, [sp, #64]
   889b0:	a90573fb 	stp	x27, x28, [sp, #80]
   889b4:	f90033e0 	str	x0, [sp, #96]
   889b8:	5280013c 	mov	w28, #0x9                   	// #9
   889bc:	93407f14 	sxtw	x20, w24
   889c0:	8b140041 	add	x1, x2, x20
   889c4:	f000005b 	adrp	x27, 93000 <_impure_data+0x148>
   889c8:	9124237b 	add	x27, x27, #0x908
   889cc:	9b3c7f1c 	smull	x28, w24, w28
   889d0:	f94033e0 	ldr	x0, [sp, #96]
   889d4:	8b1c0042 	add	x2, x2, x28
   889d8:	39409023 	ldrb	w3, [x1, #36]
   889dc:	39400c44 	ldrb	w4, [x2, #3]
   889e0:	39400841 	ldrb	w1, [x2, #2]
   889e4:	8b030c63 	add	x3, x3, x3, lsl #3
   889e8:	3901d3e4 	strb	w4, [sp, #116]
   889ec:	8b0302a3 	add	x3, x21, x3
   889f0:	3901d7e1 	strb	w1, [sp, #117]
   889f4:	39401844 	ldrb	w4, [x2, #6]
   889f8:	3941d3e7 	ldrb	w7, [sp, #116]
   889fc:	39405866 	ldrb	w6, [x3, #22]
   88a00:	39406c65 	ldrb	w5, [x3, #27]
   88a04:	39401443 	ldrb	w3, [x2, #5]
   88a08:	53181ce7 	ubfiz	w7, w7, #8, #8
   88a0c:	39401042 	ldrb	w2, [x2, #4]
   88a10:	3941d7e1 	ldrb	w1, [sp, #117]
   88a14:	12001c21 	and	w1, w1, #0xff
   88a18:	2a0100e1 	orr	w1, w7, w1
   88a1c:	97ffe44d 	bl	81b50 <printf>
   88a20:	b943f260 	ldr	w0, [x19, #1008]
   88a24:	5280d02b 	mov	w11, #0x681                 	// #1665
   88a28:	72a4400b 	movk	w11, #0x2200, lsl #16
   88a2c:	910012e3 	add	x3, x23, #0x4
   88a30:	910213e6 	add	x6, sp, #0x84
   88a34:	910223e4 	add	x4, sp, #0x88
   88a38:	910243e2 	add	x2, sp, #0x90
   88a3c:	71000c1f 	cmp	w0, #0x3
   88a40:	52800029 	mov	w9, #0x1                   	// #1
   88a44:	52800145 	mov	w5, #0xa                   	// #10
   88a48:	540007a1 	b.ne	88b3c <EnumerateHID+0x1ec>  // b.any
   88a4c:	f941fe60 	ldr	x0, [x19, #1016]
   88a50:	8b1c001c 	add	x28, x0, x28
   88a54:	8b140007 	add	x7, x0, x20
   88a58:	b4000720 	cbz	x0, 88b3c <EnumerateHID+0x1ec>
   88a5c:	3940a000 	ldrb	w0, [x0, #40]
   88a60:	6b38001f 	cmp	w0, w24, uxtb
   88a64:	540006c3 	b.cc	88b3c <EnumerateHID+0x1ec>  // b.lo, b.ul, b.last
   88a68:	b9400760 	ldr	w0, [x27, #4]
   88a6c:	528003e8 	mov	w8, #0x1f                  	// #31
   88a70:	3940238c 	ldrb	w12, [x28, #8]
   88a74:	5ac01001 	clz	w1, w0
   88a78:	39401f8a 	ldrb	w10, [x28, #7]
   88a7c:	4b010101 	sub	w1, w8, w1
   88a80:	3901dbec 	strb	w12, [sp, #118]
   88a84:	b8766863 	ldr	w3, [x3, x22]
   88a88:	394090ec 	ldrb	w12, [x7, #36]
   88a8c:	1ac1213a 	lsl	w26, w9, w1
   88a90:	3901dfea 	strb	w10, [sp, #119]
   88a94:	0a3a000a 	bic	w10, w0, w26
   88a98:	52a02000 	mov	w0, #0x1000000             	// #16777216
   88a9c:	b90083e0 	str	w0, [sp, #128]
   88aa0:	b9007be3 	str	w3, [sp, #120]
   88aa4:	39020be1 	strb	w1, [sp, #130]
   88aa8:	3941dbe7 	ldrb	w7, [sp, #118]
   88aac:	a94787e0 	ldp	x0, x1, [sp, #120]
   88ab0:	b900076a 	str	w10, [x27, #4]
   88ab4:	3941dfe3 	ldrb	w3, [sp, #119]
   88ab8:	53181ce7 	ubfiz	w7, w7, #8, #8
   88abc:	3940167c 	ldrb	w28, [x19, #5]
   88ac0:	12001c63 	and	w3, w3, #0xff
   88ac4:	b9008beb 	str	w11, [sp, #136]
   88ac8:	2a0300f9 	orr	w25, w7, w3
   88acc:	79011bec 	strh	w12, [sp, #140]
   88ad0:	2a1903e3 	mov	w3, w25
   88ad4:	79011ff9 	strh	w25, [sp, #142]
   88ad8:	97fffb0e 	bl	87710 <HCDSumbitControlMessage>
   88adc:	2a0003e4 	mov	w4, w0
   88ae0:	b94087e5 	ldr	w5, [sp, #132]
   88ae4:	90000040 	adrp	x0, 90000 <__sflush_r+0x40>
   88ae8:	2a1c03e3 	mov	w3, w28
   88aec:	91292000 	add	x0, x0, #0xa48
   88af0:	6b05033f 	cmp	w25, w5
   88af4:	52800002 	mov	w2, #0x0                   	// #0
   88af8:	52800441 	mov	w1, #0x22                  	// #34
   88afc:	540003c0 	b.eq	88b74 <EnumerateHID+0x224>  // b.none
   88b00:	12800124 	mov	w4, #0xfffffff6            	// #-10
   88b04:	b9400765 	ldr	w5, [x27, #4]
   88b08:	2a1a00a5 	orr	w5, w5, w26
   88b0c:	b9000765 	str	w5, [x27, #4]
   88b10:	97ffe410 	bl	81b50 <printf>
   88b14:	f941fe61 	ldr	x1, [x19, #1016]
   88b18:	90000040 	adrp	x0, 90000 <__sflush_r+0x40>
   88b1c:	912a4000 	add	x0, x0, #0xa90
   88b20:	b9400763 	ldr	w3, [x27, #4]
   88b24:	8b140021 	add	x1, x1, x20
   88b28:	39401662 	ldrb	w2, [x19, #5]
   88b2c:	2a1a0063 	orr	w3, w3, w26
   88b30:	b9000763 	str	w3, [x27, #4]
   88b34:	39409021 	ldrb	w1, [x1, #36]
   88b38:	97ffe406 	bl	81b50 <printf>
   88b3c:	f941fea2 	ldr	x2, [x21, #1016]
   88b40:	11000718 	add	w24, w24, #0x1
   88b44:	3940a040 	ldrb	w0, [x2, #40]
   88b48:	6b00031f 	cmp	w24, w0
   88b4c:	54fff36b 	b.lt	889b8 <EnumerateHID+0x68>  // b.tstop
   88b50:	a94153f3 	ldp	x19, x20, [sp, #16]
   88b54:	a9425bf5 	ldp	x21, x22, [sp, #32]
   88b58:	a94363f7 	ldp	x23, x24, [sp, #48]
   88b5c:	a9446bf9 	ldp	x25, x26, [sp, #64]
   88b60:	a94573fb 	ldp	x27, x28, [sp, #80]
   88b64:	52800000 	mov	w0, #0x0                   	// #0
   88b68:	a9407bfd 	ldp	x29, x30, [sp]
   88b6c:	911243ff 	add	sp, sp, #0x490
   88b70:	d65f03c0 	ret
   88b74:	b9400765 	ldr	w5, [x27, #4]
   88b78:	2a050345 	orr	w5, w26, w5
   88b7c:	35fffc44 	cbnz	w4, 88b04 <EnumerateHID+0x1b4>
   88b80:	b9000765 	str	w5, [x27, #4]
   88b84:	17ffffee 	b	88b3c <EnumerateHID+0x1ec>
   88b88:	90000058 	adrp	x24, 90000 <__sflush_r+0x40>
   88b8c:	91278300 	add	x0, x24, #0x9e0
   88b90:	52800013 	mov	w19, #0x0                   	// #0
   88b94:	52800134 	mov	w20, #0x9                   	// #9
   88b98:	f90033e0 	str	x0, [sp, #96]
   88b9c:	8b33c041 	add	x1, x2, w19, sxtw
   88ba0:	9b340a62 	smaddl	x2, w19, w20, x2
   88ba4:	f94033e0 	ldr	x0, [sp, #96]
   88ba8:	11000673 	add	w19, w19, #0x1
   88bac:	39409021 	ldrb	w1, [x1, #36]
   88bb0:	39400c44 	ldrb	w4, [x2, #3]
   88bb4:	39400843 	ldrb	w3, [x2, #2]
   88bb8:	3901d3e4 	strb	w4, [sp, #116]
   88bbc:	8b010c21 	add	x1, x1, x1, lsl #3
   88bc0:	3901d7e3 	strb	w3, [sp, #117]
   88bc4:	8b0102a1 	add	x1, x21, x1
   88bc8:	39401844 	ldrb	w4, [x2, #6]
   88bcc:	3941d3e7 	ldrb	w7, [sp, #116]
   88bd0:	39405826 	ldrb	w6, [x1, #22]
   88bd4:	39406c25 	ldrb	w5, [x1, #27]
   88bd8:	39401443 	ldrb	w3, [x2, #5]
   88bdc:	53181ce7 	ubfiz	w7, w7, #8, #8
   88be0:	39401042 	ldrb	w2, [x2, #4]
   88be4:	3941d7e1 	ldrb	w1, [sp, #117]
   88be8:	12001c21 	and	w1, w1, #0xff
   88bec:	2a0100e1 	orr	w1, w7, w1
   88bf0:	97ffe3d8 	bl	81b50 <printf>
   88bf4:	f941fea2 	ldr	x2, [x21, #1016]
   88bf8:	3940a040 	ldrb	w0, [x2, #40]
   88bfc:	6b13001f 	cmp	w0, w19
   88c00:	54fffcec 	b.gt	88b9c <EnumerateHID+0x24c>
   88c04:	a94153f3 	ldp	x19, x20, [sp, #16]
   88c08:	a9425bf5 	ldp	x21, x22, [sp, #32]
   88c0c:	a94363f7 	ldp	x23, x24, [sp, #48]
   88c10:	17ffffd5 	b	88b64 <EnumerateHID+0x214>
   88c14:	d503201f 	nop
   88c18:	d503201f 	nop
   88c1c:	d503201f 	nop

0000000000088c20 <HCDGetDescriptor>:
   88c20:	d102c3ff 	sub	sp, sp, #0xb0
   88c24:	12003c6a 	and	w10, w3, #0xffff
   88c28:	12001cc9 	and	w9, w6, #0xff
   88c2c:	a9017bfd 	stp	x29, x30, [sp, #16]
   88c30:	910043fd 	add	x29, sp, #0x10
   88c34:	3942c3ec 	ldrb	w12, [sp, #176]
   88c38:	a90253f3 	stp	x19, x20, [sp, #32]
   88c3c:	f0000048 	adrp	x8, 93000 <_impure_data+0x148>
   88c40:	91242114 	add	x20, x8, #0x908
   88c44:	a90463f7 	stp	x23, x24, [sp, #64]
   88c48:	2a0103f8 	mov	w24, w1
   88c4c:	52800037 	mov	w23, #0x1                   	// #1
   88c50:	b9400681 	ldr	w1, [x20, #4]
   88c54:	b9008be0 	str	w0, [sp, #136]
   88c58:	5ac01020 	clz	w0, w1
   88c5c:	a9035bf5 	stp	x21, x22, [sp, #48]
   88c60:	528003f5 	mov	w21, #0x1f                  	// #31
   88c64:	4b0002b5 	sub	w21, w21, w0
   88c68:	a9056bf9 	stp	x25, x26, [sp, #80]
   88c6c:	12001c5a 	and	w26, w2, #0xff
   88c70:	a90673fb 	stp	x27, x28, [sp, #96]
   88c74:	1ad522f7 	lsl	w23, w23, w21
   88c78:	0a370021 	bic	w1, w1, w23
   88c7c:	b9000681 	str	w1, [x20, #4]
   88c80:	2a182340 	orr	w0, w26, w24, lsl #8
   88c84:	790123ff 	strh	wzr, [sp, #144]
   88c88:	aa0403f9 	mov	x25, x4
   88c8c:	b9009bff 	str	wzr, [sp, #152]
   88c90:	aa0703fb 	mov	x27, x7
   88c94:	394227fc 	ldrb	w28, [sp, #137]
   88c98:	2a0503f6 	mov	w22, w5
   88c9c:	12001eab 	and	w11, w21, #0xff
   88ca0:	12003c07 	and	w7, w0, #0xffff
   88ca4:	9102a3e4 	add	x4, sp, #0xa8
   88ca8:	3600072c 	tbz	w12, #0, 88d8c <HCDGetDescriptor+0x16c>
   88cac:	39026beb 	strb	w11, [sp, #154]
   88cb0:	5280004c 	mov	w12, #0x2                   	// #2
   88cb4:	f94047e0 	ldr	x0, [sp, #136]
   88cb8:	528000c2 	mov	w2, #0x6                   	// #6
   88cbc:	b9409be1 	ldr	w1, [sp, #152]
   88cc0:	9102a3e4 	add	x4, sp, #0xa8
   88cc4:	d2800006 	mov	x6, #0x0                   	// #0
   88cc8:	52800145 	mov	w5, #0xa                   	// #10
   88ccc:	32080021 	orr	w1, w1, #0x1000000
   88cd0:	b9009be1 	str	w1, [sp, #152]
   88cd4:	52800043 	mov	w3, #0x2                   	// #2
   88cd8:	290e2be9 	stp	w9, w10, [sp, #112]
   88cdc:	f9404fe1 	ldr	x1, [sp, #152]
   88ce0:	f9003fe4 	str	x4, [sp, #120]
   88ce4:	29102fe7 	stp	w7, w11, [sp, #128]
   88ce8:	3902a3e9 	strb	w9, [sp, #168]
   88cec:	3902a7e2 	strb	w2, [sp, #169]
   88cf0:	910243e2 	add	x2, sp, #0x90
   88cf4:	790157e7 	strh	w7, [sp, #170]
   88cf8:	79015bea 	strh	w10, [sp, #172]
   88cfc:	79015fec 	strh	w12, [sp, #174]
   88d00:	97fffa84 	bl	87710 <HCDSumbitControlMessage>
   88d04:	b94073e9 	ldr	w9, [sp, #112]
   88d08:	2a0003f3 	mov	w19, w0
   88d0c:	35000120 	cbnz	w0, 88d30 <HCDGetDescriptor+0x110>
   88d10:	394247e0 	ldrb	w0, [sp, #145]
   88d14:	f0000048 	adrp	x8, 93000 <_impure_data+0x148>
   88d18:	f9403fe4 	ldr	x4, [sp, #120]
   88d1c:	6b18001f 	cmp	w0, w24
   88d20:	b94077ea 	ldr	w10, [sp, #116]
   88d24:	29502fe7 	ldp	w7, w11, [sp, #128]
   88d28:	540002c0 	b.eq	88d80 <HCDGetDescriptor+0x160>  // b.none
   88d2c:	12800013 	mov	w19, #0xffffffff            	// #-1
   88d30:	b9400686 	ldr	w6, [x20, #4]
   88d34:	90000040 	adrp	x0, 90000 <__sflush_r+0x40>
   88d38:	2a1c03e4 	mov	w4, w28
   88d3c:	2a0903e3 	mov	w3, w9
   88d40:	2a1700c6 	orr	w6, w6, w23
   88d44:	2a1a03e2 	mov	w2, w26
   88d48:	2a1803e1 	mov	w1, w24
   88d4c:	2a1303e5 	mov	w5, w19
   88d50:	912b2000 	add	x0, x0, #0xac8
   88d54:	b9000686 	str	w6, [x20, #4]
   88d58:	97ffe37e 	bl	81b50 <printf>
   88d5c:	a9417bfd 	ldp	x29, x30, [sp, #16]
   88d60:	2a1303e0 	mov	w0, w19
   88d64:	a94253f3 	ldp	x19, x20, [sp, #32]
   88d68:	a9435bf5 	ldp	x21, x22, [sp, #48]
   88d6c:	a94463f7 	ldp	x23, x24, [sp, #64]
   88d70:	a9456bf9 	ldp	x25, x26, [sp, #80]
   88d74:	a94673fb 	ldp	x27, x28, [sp, #96]
   88d78:	9102c3ff 	add	sp, sp, #0xb0
   88d7c:	d65f03c0 	ret
   88d80:	394243e0 	ldrb	w0, [sp, #144]
   88d84:	6b0002df 	cmp	w22, w0
   88d88:	1a8092d6 	csel	w22, w22, w0, ls	// ls = plast
   88d8c:	39642100 	ldrb	w0, [x8, #2312]
   88d90:	528000c1 	mov	w1, #0x6                   	// #6
   88d94:	3902a3e9 	strb	w9, [sp, #168]
   88d98:	3902a7e1 	strb	w1, [sp, #169]
   88d9c:	6b1c001f 	cmp	w0, w28
   88da0:	790157e7 	strh	w7, [sp, #170]
   88da4:	79015bea 	strh	w10, [sp, #172]
   88da8:	79015ff6 	strh	w22, [sp, #174]
   88dac:	54000d40 	b.eq	88f54 <HCDGetDescriptor+0x334>  // b.none
   88db0:	39026beb 	strb	w11, [sp, #154]
   88db4:	aa0403e2 	mov	x2, x4
   88db8:	f94047e0 	ldr	x0, [sp, #136]
   88dbc:	52800064 	mov	w4, #0x3                   	// #3
   88dc0:	b9409be1 	ldr	w1, [sp, #152]
   88dc4:	52800103 	mov	w3, #0x8                   	// #8
   88dc8:	32080021 	orr	w1, w1, #0x1000000
   88dcc:	b9009be1 	str	w1, [sp, #152]
   88dd0:	12077821 	and	w1, w1, #0xfeffffff
   88dd4:	b900a3e1 	str	w1, [sp, #160]
   88dd8:	f94053e1 	ldr	x1, [sp, #160]
   88ddc:	97fff88d 	bl	87010 <HCDChannelTransfer>
   88de0:	350006c0 	cbnz	w0, 88eb8 <HCDGetDescriptor+0x298>
   88de4:	b40002b9 	cbz	x25, 88e38 <HCDGetDescriptor+0x218>
   88de8:	b940a3e1 	ldr	w1, [sp, #160]
   88dec:	2a1603e3 	mov	w3, w22
   88df0:	f94047e0 	ldr	x0, [sp, #136]
   88df4:	32080021 	orr	w1, w1, #0x1000000
   88df8:	b900a3e1 	str	w1, [sp, #160]
   88dfc:	aa1903e2 	mov	x2, x25
   88e00:	52800044 	mov	w4, #0x2                   	// #2
   88e04:	f94053e1 	ldr	x1, [sp, #160]
   88e08:	97fff882 	bl	87010 <HCDChannelTransfer>
   88e0c:	35000ba0 	cbnz	w0, 88f80 <HCDGetDescriptor+0x360>
   88e10:	d0000040 	adrp	x0, 92000 <BitFont+0xbc0>
   88e14:	b94b0001 	ldr	w1, [x0, #2816]
   88e18:	52800400 	mov	w0, #0x20                  	// #32
   88e1c:	11660021 	add	w1, w1, #0x980, lsl #12
   88e20:	11140021 	add	w1, w1, #0x500
   88e24:	9b2006a0 	smaddl	x0, w21, w0, x1
   88e28:	b9401005 	ldr	w5, [x0, #16]
   88e2c:	d34048a5 	ubfx	x5, x5, #0, #19
   88e30:	4b0502c5 	sub	w5, w22, w5
   88e34:	14000002 	b	88e3c <HCDGetDescriptor+0x21c>
   88e38:	52800005 	mov	w5, #0x0                   	// #0
   88e3c:	b940a3e1 	ldr	w1, [sp, #160]
   88e40:	710002df 	cmp	w22, #0x0
   88e44:	1a9f17e3 	cset	w3, eq	// eq = none
   88e48:	aa1903e2 	mov	x2, x25
   88e4c:	f94047e0 	ldr	x0, [sp, #136]
   88e50:	33080061 	bfi	w1, w3, #24, #1
   88e54:	b900a3e1 	str	w1, [sp, #160]
   88e58:	52800044 	mov	w4, #0x2                   	// #2
   88e5c:	52800003 	mov	w3, #0x0                   	// #0
   88e60:	b90073e5 	str	w5, [sp, #112]
   88e64:	f94053e1 	ldr	x1, [sp, #160]
   88e68:	97fff86a 	bl	87010 <HCDChannelTransfer>
   88e6c:	2a0003f3 	mov	w19, w0
   88e70:	b94073e5 	ldr	w5, [sp, #112]
   88e74:	350005e0 	cbnz	w0, 88f30 <HCDGetDescriptor+0x310>
   88e78:	d0000040 	adrp	x0, 92000 <BitFont+0xbc0>
   88e7c:	b94b0000 	ldr	w0, [x0, #2816]
   88e80:	52800401 	mov	w1, #0x20                  	// #32
   88e84:	6b0502df 	cmp	w22, w5
   88e88:	11660000 	add	w0, w0, #0x980, lsl #12
   88e8c:	11140000 	add	w0, w0, #0x500
   88e90:	9b2102b5 	smaddl	x21, w21, w1, x0
   88e94:	b94012a0 	ldr	w0, [x21, #16]
   88e98:	b900a7e5 	str	w5, [sp, #164]
   88e9c:	540002e1 	b.ne	88ef8 <HCDGetDescriptor+0x2d8>  // b.any
   88ea0:	b9400680 	ldr	w0, [x20, #4]
   88ea4:	2a170000 	orr	w0, w0, w23
   88ea8:	b9000680 	str	w0, [x20, #4]
   88eac:	b4fff59b 	cbz	x27, 88d5c <HCDGetDescriptor+0x13c>
   88eb0:	b9000365 	str	w5, [x27]
   88eb4:	17ffffaa 	b	88d5c <HCDGetDescriptor+0x13c>
   88eb8:	f94047e4 	ldr	x4, [sp, #136]
   88ebc:	b90003e0 	str	w0, [sp]
   88ec0:	3942a3e3 	ldrb	w3, [sp, #168]
   88ec4:	2a1c03e1 	mov	w1, w28
   88ec8:	3942a7e2 	ldrb	w2, [sp, #169]
   88ecc:	12000485 	and	w5, w4, #0x3
   88ed0:	53126087 	ubfx	w7, w4, #18, #7
   88ed4:	53197c86 	lsr	w6, w4, #25
   88ed8:	90000040 	adrp	x0, 90000 <__sflush_r+0x40>
   88edc:	911be000 	add	x0, x0, #0x6f8
   88ee0:	53020c84 	ubfx	w4, w4, #2, #2
   88ee4:	97ffe31b 	bl	81b50 <printf>
   88ee8:	b940a7e5 	ldr	w5, [sp, #164]
   88eec:	6b0502df 	cmp	w22, w5
   88ef0:	540002e0 	b.eq	88f4c <HCDGetDescriptor+0x32c>  // b.none
   88ef4:	d503201f 	nop
   88ef8:	12800133 	mov	w19, #0xfffffff6            	// #-10
   88efc:	b9400686 	ldr	w6, [x20, #4]
   88f00:	2a1c03e3 	mov	w3, w28
   88f04:	2a1a03e2 	mov	w2, w26
   88f08:	2a1803e1 	mov	w1, w24
   88f0c:	2a1700c6 	orr	w6, w6, w23
   88f10:	2a1303e4 	mov	w4, w19
   88f14:	90000040 	adrp	x0, 90000 <__sflush_r+0x40>
   88f18:	91292000 	add	x0, x0, #0xa48
   88f1c:	b9000686 	str	w6, [x20, #4]
   88f20:	b90073e5 	str	w5, [sp, #112]
   88f24:	97ffe30b 	bl	81b50 <printf>
   88f28:	b94073e5 	ldr	w5, [sp, #112]
   88f2c:	17ffffdd 	b	88ea0 <HCDGetDescriptor+0x280>
   88f30:	2a1c03e1 	mov	w1, w28
   88f34:	90000040 	adrp	x0, 90000 <__sflush_r+0x40>
   88f38:	911dc000 	add	x0, x0, #0x770
   88f3c:	97ffe305 	bl	81b50 <printf>
   88f40:	b940a7e5 	ldr	w5, [sp, #164]
   88f44:	6b0502df 	cmp	w22, w5
   88f48:	54fffd81 	b.ne	88ef8 <HCDGetDescriptor+0x2d8>  // b.any
   88f4c:	52800013 	mov	w19, #0x0                   	// #0
   88f50:	17ffffd4 	b	88ea0 <HCDGetDescriptor+0x280>
   88f54:	aa0403e2 	mov	x2, x4
   88f58:	aa1903e0 	mov	x0, x25
   88f5c:	910293e3 	add	x3, sp, #0xa4
   88f60:	2a1603e1 	mov	w1, w22
   88f64:	97fff32b 	bl	85c10 <HcdProcessRootHubMessage>
   88f68:	2a0003f3 	mov	w19, w0
   88f6c:	b940a7e5 	ldr	w5, [sp, #164]
   88f70:	6b1600bf 	cmp	w5, w22
   88f74:	54fffc21 	b.ne	88ef8 <HCDGetDescriptor+0x2d8>  // b.any
   88f78:	35fffc20 	cbnz	w0, 88efc <HCDGetDescriptor+0x2dc>
   88f7c:	17ffffc9 	b	88ea0 <HCDGetDescriptor+0x280>
   88f80:	2a1c03e1 	mov	w1, w28
   88f84:	90000040 	adrp	x0, 90000 <__sflush_r+0x40>
   88f88:	911fc000 	add	x0, x0, #0x7f0
   88f8c:	97ffe2f1 	bl	81b50 <printf>
   88f90:	b940a7e5 	ldr	w5, [sp, #164]
   88f94:	6b0502df 	cmp	w22, w5
   88f98:	54fffb01 	b.ne	88ef8 <HCDGetDescriptor+0x2d8>  // b.any
   88f9c:	52800013 	mov	w19, #0x0                   	// #0
   88fa0:	17ffffc0 	b	88ea0 <HCDGetDescriptor+0x280>
   88fa4:	d503201f 	nop
   88fa8:	d503201f 	nop
   88fac:	d503201f 	nop

0000000000088fb0 <HCDReadStringDescriptor>:
   88fb0:	d108c3ff 	sub	sp, sp, #0x230
   88fb4:	f100005f 	cmp	x2, #0x0
   88fb8:	a9017bfd 	stp	x29, x30, [sp, #16]
   88fbc:	910043fd 	add	x29, sp, #0x10
   88fc0:	a90253f3 	stp	x19, x20, [sp, #32]
   88fc4:	a90463f7 	stp	x23, x24, [sp, #64]
   88fc8:	b9005be0 	str	w0, [sp, #88]
   88fcc:	1a9f17e0 	cset	w0, eq	// eq = none
   88fd0:	72001c33 	ands	w19, w1, #0xff
   88fd4:	b9006fff 	str	wzr, [sp, #108]
   88fd8:	a9077fff 	stp	xzr, xzr, [sp, #112]
   88fdc:	1a9f17e1 	cset	w1, eq	// eq = none
   88fe0:	394167f4 	ldrb	w20, [sp, #89]
   88fe4:	a9087fff 	stp	xzr, xzr, [sp, #128]
   88fe8:	2a010017 	orr	w23, w0, w1
   88fec:	a9097fff 	stp	xzr, xzr, [sp, #144]
   88ff0:	a90a7fff 	stp	xzr, xzr, [sp, #160]
   88ff4:	a90b7fff 	stp	xzr, xzr, [sp, #176]
   88ff8:	a90c7fff 	stp	xzr, xzr, [sp, #192]
   88ffc:	a90d7fff 	stp	xzr, xzr, [sp, #208]
   89000:	a90e7fff 	stp	xzr, xzr, [sp, #224]
   89004:	a90f7fff 	stp	xzr, xzr, [sp, #240]
   89008:	a9107fff 	stp	xzr, xzr, [sp, #256]
   8900c:	a9117fff 	stp	xzr, xzr, [sp, #272]
   89010:	a9127fff 	stp	xzr, xzr, [sp, #288]
   89014:	35000f17 	cbnz	w23, 891f4 <HCDReadStringDescriptor+0x244>
   89018:	f9402fe0 	ldr	x0, [sp, #88]
   8901c:	52800021 	mov	w1, #0x1                   	// #1
   89020:	390003e1 	strb	w1, [sp]
   89024:	9101b3e7 	add	x7, sp, #0x6c
   89028:	9101c3e4 	add	x4, sp, #0x70
   8902c:	12800fe6 	mov	w6, #0xffffff80            	// #-128
   89030:	52800045 	mov	w5, #0x2                   	// #2
   89034:	52800061 	mov	w1, #0x3                   	// #3
   89038:	a9035bf5 	stp	x21, x22, [sp, #48]
   8903c:	aa0203f5 	mov	x21, x2
   89040:	2a0303f6 	mov	w22, w3
   89044:	52800002 	mov	w2, #0x0                   	// #0
   89048:	52800003 	mov	w3, #0x0                   	// #0
   8904c:	97fffef5 	bl	88c20 <HCDGetDescriptor>
   89050:	35000c20 	cbnz	w0, 891d4 <HCDReadStringDescriptor+0x224>
   89054:	3941c7e1 	ldrb	w1, [sp, #113]
   89058:	7940e3e5 	ldrh	w5, [sp, #112]
   8905c:	71000c3f 	cmp	w1, #0x3
   89060:	540011a1 	b.ne	89294 <HCDReadStringDescriptor+0x2e4>  // b.any
   89064:	f9402fe0 	ldr	x0, [sp, #88]
   89068:	52800022 	mov	w2, #0x1                   	// #1
   8906c:	390003e2 	strb	w2, [sp]
   89070:	12001ca5 	and	w5, w5, #0xff
   89074:	9101b3e7 	add	x7, sp, #0x6c
   89078:	9101c3e4 	add	x4, sp, #0x70
   8907c:	12800fe6 	mov	w6, #0xffffff80            	// #-128
   89080:	52800003 	mov	w3, #0x0                   	// #0
   89084:	52800002 	mov	w2, #0x0                   	// #0
   89088:	97fffee6 	bl	88c20 <HCDGetDescriptor>
   8908c:	35000b80 	cbnz	w0, 891fc <HCDReadStringDescriptor+0x24c>
   89090:	7940e3e5 	ldrh	w5, [sp, #112]
   89094:	721e14bf 	tst	w5, #0xfc
   89098:	d3411ca5 	ubfx	x5, x5, #1, #7
   8909c:	54000d80 	b.eq	8924c <HCDReadStringDescriptor+0x29c>  // b.none
   890a0:	9101c3e0 	add	x0, sp, #0x70
   890a4:	52800021 	mov	w1, #0x1                   	// #1
   890a8:	14000004 	b	890b8 <HCDReadStringDescriptor+0x108>
   890ac:	11000421 	add	w1, w1, #0x1
   890b0:	6b0100bf 	cmp	w5, w1
   890b4:	540000ad 	b.le	890c8 <HCDReadStringDescriptor+0x118>
   890b8:	79400404 	ldrh	w4, [x0, #2]
   890bc:	91000800 	add	x0, x0, #0x2
   890c0:	7110249f 	cmp	w4, #0x409
   890c4:	54ffff41 	b.ne	890ac <HCDReadStringDescriptor+0xfc>  // b.any
   890c8:	6b0100bf 	cmp	w5, w1
   890cc:	52808123 	mov	w3, #0x409                 	// #1033
   890d0:	54000b00 	b.eq	89230 <HCDReadStringDescriptor+0x280>  // b.none
   890d4:	f9402fe0 	ldr	x0, [sp, #88]
   890d8:	52800038 	mov	w24, #0x1                   	// #1
   890dc:	390003f8 	strb	w24, [sp]
   890e0:	9101b3e7 	add	x7, sp, #0x6c
   890e4:	9101a3e4 	add	x4, sp, #0x68
   890e8:	2a1303e2 	mov	w2, w19
   890ec:	12800fe6 	mov	w6, #0xffffff80            	// #-128
   890f0:	52800045 	mov	w5, #0x2                   	// #2
   890f4:	52800061 	mov	w1, #0x3                   	// #3
   890f8:	97fffeca 	bl	88c20 <HCDGetDescriptor>
   890fc:	35000ac0 	cbnz	w0, 89254 <HCDReadStringDescriptor+0x2a4>
   89100:	b9406fe0 	ldr	w0, [sp, #108]
   89104:	7100081f 	cmp	w0, #0x2
   89108:	54000a61 	b.ne	89254 <HCDReadStringDescriptor+0x2a4>  // b.any
   8910c:	f9402fe0 	ldr	x0, [sp, #88]
   89110:	390003f8 	strb	w24, [sp]
   89114:	3941a3e5 	ldrb	w5, [sp, #104]
   89118:	720002f8 	ands	w24, w23, #0x1
   8911c:	7940e7e3 	ldrh	w3, [sp, #114]
   89120:	52808121 	mov	w1, #0x409                 	// #1033
   89124:	9101b3e7 	add	x7, sp, #0x6c
   89128:	9104c3e4 	add	x4, sp, #0x130
   8912c:	1a811063 	csel	w3, w3, w1, ne	// ne = any
   89130:	2a1303e2 	mov	w2, w19
   89134:	12800fe6 	mov	w6, #0xffffff80            	// #-128
   89138:	52800061 	mov	w1, #0x3                   	// #3
   8913c:	97fffeb9 	bl	88c20 <HCDGetDescriptor>
   89140:	2a0003f7 	mov	w23, w0
   89144:	35000980 	cbnz	w0, 89274 <HCDReadStringDescriptor+0x2c4>
   89148:	3941a3e0 	ldrb	w0, [sp, #104]
   8914c:	b9406fe1 	ldr	w1, [sp, #108]
   89150:	6b01001f 	cmp	w0, w1
   89154:	54000901 	b.ne	89274 <HCDReadStringDescriptor+0x2c4>  // b.any
   89158:	350002f8 	cbnz	w24, 891b4 <HCDReadStringDescriptor+0x204>
   8915c:	51000800 	sub	w0, w0, #0x2
   89160:	7100041f 	cmp	w0, #0x1
   89164:	5400028d 	b.le	891b4 <HCDReadStringDescriptor+0x204>
   89168:	710006d6 	subs	w22, w22, #0x1
   8916c:	54000240 	b.eq	891b4 <HCDReadStringDescriptor+0x204>  // b.none
   89170:	52800013 	mov	w19, #0x0                   	// #0
   89174:	d2800014 	mov	x20, #0x0                   	// #0
   89178:	14000003 	b	89184 <HCDReadStringDescriptor+0x1d4>
   8917c:	6b1302df 	cmp	w22, w19
   89180:	54000540 	b.eq	89228 <HCDReadStringDescriptor+0x278>  // b.none
   89184:	9104c3e0 	add	x0, sp, #0x130
   89188:	11000673 	add	w19, w19, #0x1
   8918c:	8b140401 	add	x1, x0, x20, lsl #1
   89190:	79400420 	ldrh	w0, [x1, #2]
   89194:	94000cb7 	bl	8c470 <wctob>
   89198:	38346aa0 	strb	w0, [x21, x20]
   8919c:	3941a3e1 	ldrb	w1, [sp, #104]
   891a0:	91000694 	add	x20, x20, #0x1
   891a4:	51000821 	sub	w1, w1, #0x2
   891a8:	6b81067f 	cmp	w19, w1, asr #1
   891ac:	54fffe8b 	b.lt	8917c <HCDReadStringDescriptor+0x1cc>  // b.tstop
   891b0:	8b33c2b5 	add	x21, x21, w19, sxtw
   891b4:	390002bf 	strb	wzr, [x21]
   891b8:	a9435bf5 	ldp	x21, x22, [sp, #48]
   891bc:	2a1703e0 	mov	w0, w23
   891c0:	a9417bfd 	ldp	x29, x30, [sp, #16]
   891c4:	a94253f3 	ldp	x19, x20, [sp, #32]
   891c8:	a94463f7 	ldp	x23, x24, [sp, #64]
   891cc:	9108c3ff 	add	sp, sp, #0x230
   891d0:	d65f03c0 	ret
   891d4:	b9406fe0 	ldr	w0, [sp, #108]
   891d8:	7100041f 	cmp	w0, #0x1
   891dc:	54fff3c8 	b.hi	89054 <HCDReadStringDescriptor+0xa4>  // b.pmore
   891e0:	2a1403e1 	mov	w1, w20
   891e4:	f0000020 	adrp	x0, 90000 <__sflush_r+0x40>
   891e8:	912c6000 	add	x0, x0, #0xb18
   891ec:	97ffe259 	bl	81b50 <printf>
   891f0:	a9435bf5 	ldp	x21, x22, [sp, #48]
   891f4:	12800037 	mov	w23, #0xfffffffe            	// #-2
   891f8:	17fffff1 	b	891bc <HCDReadStringDescriptor+0x20c>
   891fc:	7940e3e5 	ldrh	w5, [sp, #112]
   89200:	b9406fe0 	ldr	w0, [sp, #108]
   89204:	6b25001f 	cmp	w0, w5, uxtb
   89208:	54fff462 	b.cs	89094 <HCDReadStringDescriptor+0xe4>  // b.hs, b.nlast
   8920c:	2a1403e1 	mov	w1, w20
   89210:	f0000020 	adrp	x0, 90000 <__sflush_r+0x40>
   89214:	912e4000 	add	x0, x0, #0xb90
   89218:	12800037 	mov	w23, #0xfffffffe            	// #-2
   8921c:	97ffe24d 	bl	81b50 <printf>
   89220:	a9435bf5 	ldp	x21, x22, [sp, #48]
   89224:	17ffffe6 	b	891bc <HCDReadStringDescriptor+0x20c>
   89228:	8b36c2b5 	add	x21, x21, w22, sxtw
   8922c:	17ffffe2 	b	891b4 <HCDReadStringDescriptor+0x204>
   89230:	2a1403e1 	mov	w1, w20
   89234:	f0000020 	adrp	x0, 90000 <__sflush_r+0x40>
   89238:	912f6000 	add	x0, x0, #0xbd8
   8923c:	97ffe245 	bl	81b50 <printf>
   89240:	7940e7e3 	ldrh	w3, [sp, #114]
   89244:	52800037 	mov	w23, #0x1                   	// #1
   89248:	17ffffa3 	b	890d4 <HCDReadStringDescriptor+0x124>
   8924c:	52800021 	mov	w1, #0x1                   	// #1
   89250:	17ffff9e 	b	890c8 <HCDReadStringDescriptor+0x118>
   89254:	2a1403e2 	mov	w2, w20
   89258:	2a1303e1 	mov	w1, w19
   8925c:	f0000020 	adrp	x0, 90000 <__sflush_r+0x40>
   89260:	91304000 	add	x0, x0, #0xc10
   89264:	12800077 	mov	w23, #0xfffffffc            	// #-4
   89268:	97ffe23a 	bl	81b50 <printf>
   8926c:	a9435bf5 	ldp	x21, x22, [sp, #48]
   89270:	17ffffd3 	b	891bc <HCDReadStringDescriptor+0x20c>
   89274:	2a1403e2 	mov	w2, w20
   89278:	2a1303e1 	mov	w1, w19
   8927c:	f0000020 	adrp	x0, 90000 <__sflush_r+0x40>
   89280:	91316000 	add	x0, x0, #0xc58
   89284:	12800037 	mov	w23, #0xfffffffe            	// #-2
   89288:	97ffe232 	bl	81b50 <printf>
   8928c:	a9435bf5 	ldp	x21, x22, [sp, #48]
   89290:	17ffffcb 	b	891bc <HCDReadStringDescriptor+0x20c>
   89294:	2a1403e1 	mov	w1, w20
   89298:	f0000020 	adrp	x0, 90000 <__sflush_r+0x40>
   8929c:	912d4000 	add	x0, x0, #0xb50
   892a0:	12800037 	mov	w23, #0xfffffffe            	// #-2
   892a4:	97ffe22b 	bl	81b50 <printf>
   892a8:	a9435bf5 	ldp	x21, x22, [sp, #48]
   892ac:	17ffffc4 	b	891bc <HCDReadStringDescriptor+0x20c>

00000000000892b0 <IsHub>:
   892b0:	12001c00 	and	w0, w0, #0xff
   892b4:	51000400 	sub	w0, w0, #0x1
   892b8:	12001c01 	and	w1, w0, #0xff
   892bc:	71007c3f 	cmp	w1, #0x1f
   892c0:	54000148 	b.hi	892e8 <IsHub+0x38>  // b.pmore
   892c4:	93767c01 	sbfiz	x1, x0, #10, #32
   892c8:	f0000042 	adrp	x2, 94000 <HubTable+0x430>
   892cc:	910a8042 	add	x2, x2, #0x2a0
   892d0:	52800000 	mov	w0, #0x0                   	// #0
   892d4:	8b010041 	add	x1, x2, x1
   892d8:	b943f022 	ldr	w2, [x1, #1008]
   892dc:	7100085f 	cmp	w2, #0x2
   892e0:	54000080 	b.eq	892f0 <IsHub+0x40>  // b.none
   892e4:	d65f03c0 	ret
   892e8:	52800000 	mov	w0, #0x0                   	// #0
   892ec:	d65f03c0 	ret
   892f0:	f941fc20 	ldr	x0, [x1, #1016]
   892f4:	f100001f 	cmp	x0, #0x0
   892f8:	1a9f07e0 	cset	w0, ne	// ne = any
   892fc:	d65f03c0 	ret

0000000000089300 <IsHid>:
   89300:	12001c00 	and	w0, w0, #0xff
   89304:	51000400 	sub	w0, w0, #0x1
   89308:	12001c01 	and	w1, w0, #0xff
   8930c:	71007c3f 	cmp	w1, #0x1f
   89310:	54000148 	b.hi	89338 <IsHid+0x38>  // b.pmore
   89314:	93767c01 	sbfiz	x1, x0, #10, #32
   89318:	f0000042 	adrp	x2, 94000 <HubTable+0x430>
   8931c:	910a8042 	add	x2, x2, #0x2a0
   89320:	52800000 	mov	w0, #0x0                   	// #0
   89324:	8b010041 	add	x1, x2, x1
   89328:	b943f022 	ldr	w2, [x1, #1008]
   8932c:	71000c5f 	cmp	w2, #0x3
   89330:	54000080 	b.eq	89340 <IsHid+0x40>  // b.none
   89334:	d65f03c0 	ret
   89338:	52800000 	mov	w0, #0x0                   	// #0
   8933c:	d65f03c0 	ret
   89340:	f941fc20 	ldr	x0, [x1, #1016]
   89344:	f100001f 	cmp	x0, #0x0
   89348:	1a9f07e0 	cset	w0, ne	// ne = any
   8934c:	d65f03c0 	ret

0000000000089350 <IsMassStorage>:
   89350:	12001c00 	and	w0, w0, #0xff
   89354:	51000400 	sub	w0, w0, #0x1
   89358:	12001c01 	and	w1, w0, #0xff
   8935c:	71007c3f 	cmp	w1, #0x1f
   89360:	54000148 	b.hi	89388 <IsMassStorage+0x38>  // b.pmore
   89364:	93767c01 	sbfiz	x1, x0, #10, #32
   89368:	f0000042 	adrp	x2, 94000 <HubTable+0x430>
   8936c:	910a8042 	add	x2, x2, #0x2a0
   89370:	52800000 	mov	w0, #0x0                   	// #0
   89374:	8b010041 	add	x1, x2, x1
   89378:	b943f022 	ldr	w2, [x1, #1008]
   8937c:	7100105f 	cmp	w2, #0x4
   89380:	54000080 	b.eq	89390 <IsMassStorage+0x40>  // b.none
   89384:	d65f03c0 	ret
   89388:	52800000 	mov	w0, #0x0                   	// #0
   8938c:	d65f03c0 	ret
   89390:	f941fc20 	ldr	x0, [x1, #1016]
   89394:	f100001f 	cmp	x0, #0x0
   89398:	1a9f07e0 	cset	w0, ne	// ne = any
   8939c:	d65f03c0 	ret

00000000000893a0 <IsMouse>:
   893a0:	12001c00 	and	w0, w0, #0xff
   893a4:	51000400 	sub	w0, w0, #0x1
   893a8:	12001c01 	and	w1, w0, #0xff
   893ac:	71007c3f 	cmp	w1, #0x1f
   893b0:	54000148 	b.hi	893d8 <IsMouse+0x38>  // b.pmore
   893b4:	93767c01 	sbfiz	x1, x0, #10, #32
   893b8:	f0000042 	adrp	x2, 94000 <HubTable+0x430>
   893bc:	910a8042 	add	x2, x2, #0x2a0
   893c0:	52800000 	mov	w0, #0x0                   	// #0
   893c4:	8b010041 	add	x1, x2, x1
   893c8:	b943f022 	ldr	w2, [x1, #1008]
   893cc:	71000c5f 	cmp	w2, #0x3
   893d0:	54000080 	b.eq	893e0 <IsMouse+0x40>  // b.none
   893d4:	d65f03c0 	ret
   893d8:	52800000 	mov	w0, #0x0                   	// #0
   893dc:	d65f03c0 	ret
   893e0:	f941fc22 	ldr	x2, [x1, #1016]
   893e4:	b4ffff82 	cbz	x2, 893d4 <IsMouse+0x34>
   893e8:	39406c20 	ldrb	w0, [x1, #27]
   893ec:	7100081f 	cmp	w0, #0x2
   893f0:	1a9f17e0 	cset	w0, eq	// eq = none
   893f4:	d65f03c0 	ret
   893f8:	d503201f 	nop
   893fc:	d503201f 	nop

0000000000089400 <IsKeyboard>:
   89400:	12001c00 	and	w0, w0, #0xff
   89404:	51000400 	sub	w0, w0, #0x1
   89408:	12001c01 	and	w1, w0, #0xff
   8940c:	71007c3f 	cmp	w1, #0x1f
   89410:	54000148 	b.hi	89438 <IsKeyboard+0x38>  // b.pmore
   89414:	93767c01 	sbfiz	x1, x0, #10, #32
   89418:	f0000042 	adrp	x2, 94000 <HubTable+0x430>
   8941c:	910a8042 	add	x2, x2, #0x2a0
   89420:	52800000 	mov	w0, #0x0                   	// #0
   89424:	8b010041 	add	x1, x2, x1
   89428:	b943f022 	ldr	w2, [x1, #1008]
   8942c:	71000c5f 	cmp	w2, #0x3
   89430:	54000080 	b.eq	89440 <IsKeyboard+0x40>  // b.none
   89434:	d65f03c0 	ret
   89438:	52800000 	mov	w0, #0x0                   	// #0
   8943c:	d65f03c0 	ret
   89440:	f941fc22 	ldr	x2, [x1, #1016]
   89444:	b4ffff82 	cbz	x2, 89434 <IsKeyboard+0x34>
   89448:	39406c20 	ldrb	w0, [x1, #27]
   8944c:	7100041f 	cmp	w0, #0x1
   89450:	1a9f17e0 	cset	w0, eq	// eq = none
   89454:	d65f03c0 	ret
   89458:	d503201f 	nop
   8945c:	d503201f 	nop

0000000000089460 <UsbGetRootHub>:
   89460:	f0000040 	adrp	x0, 94000 <HubTable+0x430>
   89464:	910a8000 	add	x0, x0, #0x2a0
   89468:	b943f001 	ldr	w1, [x0, #1008]
   8946c:	7100003f 	cmp	w1, #0x0
   89470:	9a9f1000 	csel	x0, x0, xzr, ne	// ne = any
   89474:	d65f03c0 	ret
   89478:	d503201f 	nop
   8947c:	d503201f 	nop

0000000000089480 <UsbDeviceAtAddress>:
   89480:	72001c00 	ands	w0, w0, #0xff
   89484:	54000140 	b.eq	894ac <UsbDeviceAtAddress+0x2c>  // b.none
   89488:	51000401 	sub	w1, w0, #0x1
   8948c:	f0000040 	adrp	x0, 94000 <HubTable+0x430>
   89490:	910a8000 	add	x0, x0, #0x2a0
   89494:	93767c21 	sbfiz	x1, x1, #10, #32
   89498:	8b010000 	add	x0, x0, x1
   8949c:	b943f001 	ldr	w1, [x0, #1008]
   894a0:	7100003f 	cmp	w1, #0x0
   894a4:	9a9f1000 	csel	x0, x0, xzr, ne	// ne = any
   894a8:	d65f03c0 	ret
   894ac:	d2800000 	mov	x0, #0x0                   	// #0
   894b0:	d65f03c0 	ret
   894b4:	d503201f 	nop
   894b8:	d503201f 	nop
   894bc:	d503201f 	nop

00000000000894c0 <UsbGetDescription>:
   894c0:	39403801 	ldrb	w1, [x0, #14]
   894c4:	34000261 	cbz	w1, 89510 <UsbGetDescription+0x50>
   894c8:	7100043f 	cmp	w1, #0x1
   894cc:	54000380 	b.eq	8953c <UsbGetDescription+0x7c>  // b.none
   894d0:	f0000042 	adrp	x2, 94000 <HubTable+0x430>
   894d4:	910a8042 	add	x2, x2, #0x2a0
   894d8:	eb02001f 	cmp	x0, x2
   894dc:	54000280 	b.eq	8952c <UsbGetDescription+0x6c>  // b.none
   894e0:	394f8002 	ldrb	w2, [x0, #992]
   894e4:	7100245f 	cmp	w2, #0x9
   894e8:	54000320 	b.eq	8954c <UsbGetDescription+0x8c>  // b.none
   894ec:	7103fc5f 	cmp	w2, #0xff
   894f0:	540004a0 	b.eq	89584 <UsbGetDescription+0xc4>  // b.none
   894f4:	35000142 	cbnz	w2, 8951c <UsbGetDescription+0x5c>
   894f8:	7100103f 	cmp	w1, #0x4
   894fc:	540005c0 	b.eq	895b4 <UsbGetDescription+0xf4>  // b.none
   89500:	b0000040 	adrp	x0, 92000 <BitFont+0xbc0>
   89504:	91116000 	add	x0, x0, #0x458
   89508:	91016000 	add	x0, x0, #0x58
   8950c:	d65f03c0 	ret
   89510:	b0000040 	adrp	x0, 92000 <BitFont+0xbc0>
   89514:	91116000 	add	x0, x0, #0x458
   89518:	d65f03c0 	ret
   8951c:	b0000040 	adrp	x0, 92000 <BitFont+0xbc0>
   89520:	91116000 	add	x0, x0, #0x458
   89524:	91044000 	add	x0, x0, #0x110
   89528:	d65f03c0 	ret
   8952c:	b0000040 	adrp	x0, 92000 <BitFont+0xbc0>
   89530:	91116000 	add	x0, x0, #0x458
   89534:	9100e000 	add	x0, x0, #0x38
   89538:	d65f03c0 	ret
   8953c:	b0000040 	adrp	x0, 92000 <BitFont+0xbc0>
   89540:	91116000 	add	x0, x0, #0x458
   89544:	91006000 	add	x0, x0, #0x18
   89548:	d65f03c0 	ret
   8954c:	7947bc01 	ldrh	w1, [x0, #990]
   89550:	b0000040 	adrp	x0, 92000 <BitFont+0xbc0>
   89554:	91116000 	add	x0, x0, #0x458
   89558:	7108403f 	cmp	w1, #0x210
   8955c:	54000d20 	b.eq	89700 <UsbGetDescription+0x240>  // b.none
   89560:	7108003f 	cmp	w1, #0x200
   89564:	54000da0 	b.eq	89718 <UsbGetDescription+0x258>  // b.none
   89568:	7104403f 	cmp	w1, #0x110
   8956c:	54000da0 	b.eq	89720 <UsbGetDescription+0x260>  // b.none
   89570:	7104003f 	cmp	w1, #0x100
   89574:	9103a001 	add	x1, x0, #0xe8
   89578:	9102e000 	add	x0, x0, #0xb8
   8957c:	9a810000 	csel	x0, x0, x1, eq	// eq = none
   89580:	d65f03c0 	ret
   89584:	f941f002 	ldr	x2, [x0, #992]
   89588:	d2c08483 	mov	x3, #0x42400000000         	// #4552665333760
   8958c:	f2fd8003 	movk	x3, #0xec00, lsl #48
   89590:	92607c42 	and	x2, x2, #0xffffffff00000000
   89594:	eb03005f 	cmp	x2, x3
   89598:	54000b80 	b.eq	89708 <UsbGetDescription+0x248>  // b.none
   8959c:	7100103f 	cmp	w1, #0x4
   895a0:	540000a0 	b.eq	895b4 <UsbGetDescription+0xf4>  // b.none
   895a4:	b0000040 	adrp	x0, 92000 <BitFont+0xbc0>
   895a8:	91116000 	add	x0, x0, #0x458
   895ac:	91024000 	add	x0, x0, #0x90
   895b0:	d65f03c0 	ret
   895b4:	39406401 	ldrb	w1, [x0, #25]
   895b8:	7100403f 	cmp	w1, #0x10
   895bc:	54000168 	b.hi	895e8 <UsbGetDescription+0x128>  // b.pmore
   895c0:	34fffae1 	cbz	w1, 8951c <UsbGetDescription+0x5c>
   895c4:	51000421 	sub	w1, w1, #0x1
   895c8:	71003c3f 	cmp	w1, #0xf
   895cc:	54fffa88 	b.hi	8951c <UsbGetDescription+0x5c>  // b.pmore
   895d0:	b0000042 	adrp	x2, 92000 <BitFont+0xbc0>
   895d4:	91112042 	add	x2, x2, #0x448
   895d8:	38614842 	ldrb	w2, [x2, w1, uxtw]
   895dc:	10000061 	adr	x1, 895e8 <UsbGetDescription+0x128>
   895e0:	8b228822 	add	x2, x1, w2, sxtb #2
   895e4:	d61f0040 	br	x2
   895e8:	b0000040 	adrp	x0, 92000 <BitFont+0xbc0>
   895ec:	91116000 	add	x0, x0, #0x458
   895f0:	7103bc3f 	cmp	w1, #0xef
   895f4:	54000a40 	b.eq	8973c <UsbGetDescription+0x27c>  // b.none
   895f8:	54000988 	b.hi	89728 <UsbGetDescription+0x268>  // b.pmore
   895fc:	7103703f 	cmp	w1, #0xdc
   89600:	54000a20 	b.eq	89744 <UsbGetDescription+0x284>  // b.none
   89604:	7103803f 	cmp	w1, #0xe0
   89608:	91058001 	add	x1, x0, #0x160
   8960c:	91044000 	add	x0, x0, #0x110
   89610:	9a811000 	csel	x0, x0, x1, ne	// ne = any
   89614:	d65f03c0 	ret
   89618:	b0000040 	adrp	x0, 92000 <BitFont+0xbc0>
   8961c:	91116000 	add	x0, x0, #0x458
   89620:	91066000 	add	x0, x0, #0x198
   89624:	d65f03c0 	ret
   89628:	b0000040 	adrp	x0, 92000 <BitFont+0xbc0>
   8962c:	91116000 	add	x0, x0, #0x458
   89630:	91082000 	add	x0, x0, #0x208
   89634:	d65f03c0 	ret
   89638:	b0000040 	adrp	x0, 92000 <BitFont+0xbc0>
   8963c:	91116000 	add	x0, x0, #0x458
   89640:	91048000 	add	x0, x0, #0x120
   89644:	d65f03c0 	ret
   89648:	b0000040 	adrp	x0, 92000 <BitFont+0xbc0>
   8964c:	91116000 	add	x0, x0, #0x458
   89650:	9108c000 	add	x0, x0, #0x230
   89654:	d65f03c0 	ret
   89658:	b0000040 	adrp	x0, 92000 <BitFont+0xbc0>
   8965c:	91116000 	add	x0, x0, #0x458
   89660:	91090000 	add	x0, x0, #0x240
   89664:	d65f03c0 	ret
   89668:	b0000040 	adrp	x0, 92000 <BitFont+0xbc0>
   8966c:	91116000 	add	x0, x0, #0x458
   89670:	91096000 	add	x0, x0, #0x258
   89674:	d65f03c0 	ret
   89678:	39406c01 	ldrb	w1, [x0, #27]
   8967c:	b0000040 	adrp	x0, 92000 <BitFont+0xbc0>
   89680:	91116000 	add	x0, x0, #0x458
   89684:	7100043f 	cmp	w1, #0x1
   89688:	54000620 	b.eq	8974c <UsbGetDescription+0x28c>  // b.none
   8968c:	7100083f 	cmp	w1, #0x2
   89690:	9109c001 	add	x1, x0, #0x270
   89694:	91088000 	add	x0, x0, #0x220
   89698:	9a810000 	csel	x0, x0, x1, eq	// eq = none
   8969c:	d65f03c0 	ret
   896a0:	b0000040 	adrp	x0, 92000 <BitFont+0xbc0>
   896a4:	91116000 	add	x0, x0, #0x458
   896a8:	9106a000 	add	x0, x0, #0x1a8
   896ac:	d65f03c0 	ret
   896b0:	b0000040 	adrp	x0, 92000 <BitFont+0xbc0>
   896b4:	91116000 	add	x0, x0, #0x458
   896b8:	91076000 	add	x0, x0, #0x1d8
   896bc:	d65f03c0 	ret
   896c0:	b0000040 	adrp	x0, 92000 <BitFont+0xbc0>
   896c4:	91116000 	add	x0, x0, #0x458
   896c8:	9107e000 	add	x0, x0, #0x1f8
   896cc:	d65f03c0 	ret
   896d0:	b0000040 	adrp	x0, 92000 <BitFont+0xbc0>
   896d4:	91116000 	add	x0, x0, #0x458
   896d8:	91070000 	add	x0, x0, #0x1c0
   896dc:	d65f03c0 	ret
   896e0:	b0000040 	adrp	x0, 92000 <BitFont+0xbc0>
   896e4:	91116000 	add	x0, x0, #0x458
   896e8:	91032000 	add	x0, x0, #0xc8
   896ec:	d65f03c0 	ret
   896f0:	b0000040 	adrp	x0, 92000 <BitFont+0xbc0>
   896f4:	91116000 	add	x0, x0, #0x458
   896f8:	9103e000 	add	x0, x0, #0xf8
   896fc:	d65f03c0 	ret
   89700:	91012000 	add	x0, x0, #0x48
   89704:	d65f03c0 	ret
   89708:	b0000040 	adrp	x0, 92000 <BitFont+0xbc0>
   8970c:	91116000 	add	x0, x0, #0x458
   89710:	9102a000 	add	x0, x0, #0xa8
   89714:	d65f03c0 	ret
   89718:	9101c000 	add	x0, x0, #0x70
   8971c:	d65f03c0 	ret
   89720:	91036000 	add	x0, x0, #0xd8
   89724:	d65f03c0 	ret
   89728:	7103fc3f 	cmp	w1, #0xff
   8972c:	91024001 	add	x1, x0, #0x90
   89730:	91044000 	add	x0, x0, #0x110
   89734:	9a811000 	csel	x0, x0, x1, ne	// ne = any
   89738:	d65f03c0 	ret
   8973c:	91050000 	add	x0, x0, #0x140
   89740:	d65f03c0 	ret
   89744:	91060000 	add	x0, x0, #0x180
   89748:	d65f03c0 	ret
   8974c:	91020000 	add	x0, x0, #0x80
   89750:	d65f03c0 	ret
   89754:	d503201f 	nop
   89758:	d503201f 	nop
   8975c:	d503201f 	nop

0000000000089760 <HubPortReset>:
   89760:	d10303ff 	sub	sp, sp, #0xc0
   89764:	a9017bfd 	stp	x29, x30, [sp, #16]
   89768:	910043fd 	add	x29, sp, #0x10
   8976c:	a90463f7 	stp	x23, x24, [sp, #64]
   89770:	aa0003f8 	mov	x24, x0
   89774:	39401400 	ldrb	w0, [x0, #5]
   89778:	51000400 	sub	w0, w0, #0x1
   8977c:	12001c02 	and	w2, w0, #0xff
   89780:	71007c5f 	cmp	w2, #0x1f
   89784:	54000109 	b.ls	897a4 <HubPortReset+0x44>  // b.plast
   89788:	12800060 	mov	w0, #0xfffffffc            	// #-4
   8978c:	b9008be0 	str	w0, [sp, #136]
   89790:	a9417bfd 	ldp	x29, x30, [sp, #16]
   89794:	a94463f7 	ldp	x23, x24, [sp, #64]
   89798:	b9408be0 	ldr	w0, [sp, #136]
   8979c:	910303ff 	add	sp, sp, #0xc0
   897a0:	d65f03c0 	ret
   897a4:	93767c00 	sbfiz	x0, x0, #10, #32
   897a8:	f0000042 	adrp	x2, 94000 <HubTable+0x430>
   897ac:	910a8042 	add	x2, x2, #0x2a0
   897b0:	8b000040 	add	x0, x2, x0
   897b4:	b943f002 	ldr	w2, [x0, #1008]
   897b8:	7100085f 	cmp	w2, #0x2
   897bc:	54fffe61 	b.ne	89788 <HubPortReset+0x28>  // b.any
   897c0:	f941fc00 	ldr	x0, [x0, #1016]
   897c4:	b4fffe20 	cbz	x0, 89788 <HubPortReset+0x28>
   897c8:	12001c21 	and	w1, w1, #0xff
   897cc:	a9035bf5 	stp	x21, x22, [sp, #48]
   897d0:	11000420 	add	w0, w1, #0x1
   897d4:	2a0003e1 	mov	w1, w0
   897d8:	91001315 	add	x21, x24, #0x4
   897dc:	a9056bf9 	stp	x25, x26, [sp, #80]
   897e0:	72001c39 	ands	w25, w1, #0xff
   897e4:	52801460 	mov	w0, #0xa3                  	// #163
   897e8:	a90673fb 	stp	x27, x28, [sp, #96]
   897ec:	b000005c 	adrp	x28, 92000 <BitFont+0xbc0>
   897f0:	912c039c 	add	x28, x28, #0xb00
   897f4:	a90253f3 	stp	x19, x20, [sp, #32]
   897f8:	b90087ff 	str	wzr, [sp, #132]
   897fc:	b9008fe1 	str	w1, [sp, #140]
   89800:	52801401 	mov	w1, #0xa0                  	// #160
   89804:	1a811000 	csel	w0, w0, w1, ne	// ne = any
   89808:	b90083e0 	str	w0, [sp, #128]
   8980c:	d503201f 	nop
   89810:	b94002a0 	ldr	w0, [x21]
   89814:	2a1903e2 	mov	w2, w25
   89818:	52800081 	mov	w1, #0x4                   	// #4
   8981c:	97fff74d 	bl	87550 <HCDChangeHubPortFeature.constprop.0>
   89820:	b9008be0 	str	w0, [sp, #136]
   89824:	35001d40 	cbnz	w0, 89bcc <HubPortReset+0x46c>
   89828:	d0000048 	adrp	x8, 93000 <_impure_data+0x148>
   8982c:	9124211b 	add	x27, x8, #0x908
   89830:	52800016 	mov	w22, #0x0                   	// #0
   89834:	1400003e 	b	8992c <HubPortReset+0x1cc>
   89838:	3902abe7 	strb	w7, [sp, #170]
   8983c:	9102e3e2 	add	x2, sp, #0xb8
   89840:	f94053e0 	ldr	x0, [sp, #160]
   89844:	52800064 	mov	w4, #0x3                   	// #3
   89848:	b940abe1 	ldr	w1, [sp, #168]
   8984c:	52800103 	mov	w3, #0x8                   	// #8
   89850:	32080021 	orr	w1, w1, #0x1000000
   89854:	b900abe1 	str	w1, [sp, #168]
   89858:	12077821 	and	w1, w1, #0xfeffffff
   8985c:	b900b3e1 	str	w1, [sp, #176]
   89860:	f9405be1 	ldr	x1, [sp, #176]
   89864:	97fff5eb 	bl	87010 <HCDChannelTransfer>
   89868:	350012a0 	cbnz	w0, 89abc <HubPortReset+0x35c>
   8986c:	b940b3e1 	ldr	w1, [sp, #176]
   89870:	910263e2 	add	x2, sp, #0x98
   89874:	f94053e0 	ldr	x0, [sp, #160]
   89878:	32080021 	orr	w1, w1, #0x1000000
   8987c:	b900b3e1 	str	w1, [sp, #176]
   89880:	52800044 	mov	w4, #0x2                   	// #2
   89884:	52800083 	mov	w3, #0x4                   	// #4
   89888:	f9405be1 	ldr	x1, [sp, #176]
   8988c:	97fff5e1 	bl	87010 <HCDChannelTransfer>
   89890:	350013e0 	cbnz	w0, 89b0c <HubPortReset+0x3ac>
   89894:	b9400381 	ldr	w1, [x28]
   89898:	937b7f5a 	sbfiz	x26, x26, #5, #32
   8989c:	b940b3e7 	ldr	w7, [sp, #176]
   898a0:	52800094 	mov	w20, #0x4                   	// #4
   898a4:	11660021 	add	w1, w1, #0x980, lsl #12
   898a8:	910263e2 	add	x2, sp, #0x98
   898ac:	11140021 	add	w1, w1, #0x500
   898b0:	120778e7 	and	w7, w7, #0xfeffffff
   898b4:	8b1a0021 	add	x1, x1, x26
   898b8:	52800044 	mov	w4, #0x2                   	// #2
   898bc:	f94053e0 	ldr	x0, [sp, #160]
   898c0:	52800003 	mov	w3, #0x0                   	// #0
   898c4:	b9401026 	ldr	w6, [x1, #16]
   898c8:	b900b3e7 	str	w7, [sp, #176]
   898cc:	f9405be1 	ldr	x1, [sp, #176]
   898d0:	d34048c6 	ubfx	x6, x6, #0, #19
   898d4:	4b060294 	sub	w20, w20, w6
   898d8:	97fff5ce 	bl	87010 <HCDChannelTransfer>
   898dc:	35001220 	cbnz	w0, 89b20 <HubPortReset+0x3c0>
   898e0:	b9400380 	ldr	w0, [x28]
   898e4:	11660000 	add	w0, w0, #0x980, lsl #12
   898e8:	11140000 	add	w0, w0, #0x500
   898ec:	8b1a0000 	add	x0, x0, x26
   898f0:	b9401000 	ldr	w0, [x0, #16]
   898f4:	b9400760 	ldr	w0, [x27, #4]
   898f8:	71000e9f 	cmp	w20, #0x3
   898fc:	2a130000 	orr	w0, w0, w19
   89900:	b9000760 	str	w0, [x27, #4]
   89904:	54000f69 	b.ls	89af0 <HubPortReset+0x390>  // b.plast
   89908:	39426be1 	ldrb	w1, [sp, #154]
   8990c:	110006d6 	add	w22, w22, #0x1
   89910:	394263e2 	ldrb	w2, [sp, #152]
   89914:	121c0020 	and	w0, w1, #0x10
   89918:	121f0043 	and	w3, w2, #0x2
   8991c:	2a000060 	orr	w0, w3, w0
   89920:	35000a20 	cbnz	w0, 89a64 <HubPortReset+0x304>
   89924:	71002adf 	cmp	w22, #0xa
   89928:	54000a80 	b.eq	89a78 <HubPortReset+0x318>  // b.none
   8992c:	d289c400 	mov	x0, #0x4e20                	// #20000
   89930:	97ffec14 	bl	84980 <timer_wait>
   89934:	b9400760 	ldr	w0, [x27, #4]
   89938:	528003e3 	mov	w3, #0x1f                  	// #31
   8993c:	39400ea1 	ldrb	w1, [x21, #3]
   89940:	52800033 	mov	w19, #0x1                   	// #1
   89944:	39400aa4 	ldrb	w4, [x21, #2]
   89948:	5ac01005 	clz	w5, w0
   8994c:	4b05007a 	sub	w26, w3, w5
   89950:	394002b4 	ldrb	w20, [x21]
   89954:	d37a0023 	ubfiz	x3, x1, #6, #1
   89958:	d3418021 	ubfx	x1, x1, #1, #32
   8995c:	f9003fe1 	str	x1, [sp, #120]
   89960:	2a440861 	orr	w1, w3, w4, lsr #2
   89964:	b94002a7 	ldr	w7, [x21]
   89968:	52800082 	mov	w2, #0x4                   	// #4
   8996c:	b90077e1 	str	w1, [sp, #116]
   89970:	1ada2273 	lsl	w19, w19, w26
   89974:	394203e1 	ldrb	w1, [sp, #128]
   89978:	0a330000 	bic	w0, w0, w19
   8997c:	39401717 	ldrb	w23, [x24, #5]
   89980:	39400366 	ldrb	w6, [x27]
   89984:	b9000760 	str	w0, [x27, #4]
   89988:	b900a3e7 	str	w7, [sp, #160]
   8998c:	6b1700df 	cmp	w6, w23
   89990:	b900abff 	str	wzr, [sp, #168]
   89994:	12001f47 	and	w7, w26, #0xff
   89998:	b900b7ff 	str	wzr, [sp, #180]
   8999c:	3902e3e1 	strb	w1, [sp, #184]
   899a0:	12000681 	and	w1, w20, #0x3
   899a4:	b90073e1 	str	w1, [sp, #112]
   899a8:	d3420e94 	ubfx	x20, x20, #2, #2
   899ac:	3902e7ff 	strb	wzr, [sp, #185]
   899b0:	3902ebff 	strb	wzr, [sp, #186]
   899b4:	3902efff 	strb	wzr, [sp, #187]
   899b8:	79017bf9 	strh	w25, [sp, #188]
   899bc:	79017fe2 	strh	w2, [sp, #190]
   899c0:	54fff3c1 	b.ne	89838 <HubPortReset+0xd8>  // b.any
   899c4:	9102d3e3 	add	x3, sp, #0xb4
   899c8:	9102e3e2 	add	x2, sp, #0xb8
   899cc:	910263e0 	add	x0, sp, #0x98
   899d0:	52800081 	mov	w1, #0x4                   	// #4
   899d4:	b90077e6 	str	w6, [sp, #116]
   899d8:	97fff08e 	bl	85c10 <HcdProcessRootHubMessage>
   899dc:	b94077e6 	ldr	w6, [sp, #116]
   899e0:	2a0003e3 	mov	w3, w0
   899e4:	34000e60 	cbz	w0, 89bb0 <HubPortReset+0x450>
   899e8:	b9400760 	ldr	w0, [x27, #4]
   899ec:	2a0603e1 	mov	w1, w6
   899f0:	b94073e5 	ldr	w5, [sp, #112]
   899f4:	2a1403e4 	mov	w4, w20
   899f8:	2a130006 	orr	w6, w0, w19
   899fc:	2a1903e2 	mov	w2, w25
   89a00:	f0000020 	adrp	x0, 90000 <__sflush_r+0x40>
   89a04:	91208000 	add	x0, x0, #0x820
   89a08:	b9000766 	str	w6, [x27, #4]
   89a0c:	b90073e3 	str	w3, [sp, #112]
   89a10:	97ffe050 	bl	81b50 <printf>
   89a14:	b94073e3 	ldr	w3, [sp, #112]
   89a18:	aa1803e0 	mov	x0, x24
   89a1c:	b90073e3 	str	w3, [sp, #112]
   89a20:	97fffea8 	bl	894c0 <UsbGetDescription>
   89a24:	aa0003e1 	mov	x1, x0
   89a28:	b9408fe2 	ldr	w2, [sp, #140]
   89a2c:	f0000020 	adrp	x0, 90000 <__sflush_r+0x40>
   89a30:	91330000 	add	x0, x0, #0xcc0
   89a34:	97ffe047 	bl	81b50 <printf>
   89a38:	b94073e3 	ldr	w3, [sp, #112]
   89a3c:	b9008be3 	str	w3, [sp, #136]
   89a40:	a9417bfd 	ldp	x29, x30, [sp, #16]
   89a44:	a94253f3 	ldp	x19, x20, [sp, #32]
   89a48:	a9435bf5 	ldp	x21, x22, [sp, #48]
   89a4c:	a94463f7 	ldp	x23, x24, [sp, #64]
   89a50:	a9456bf9 	ldp	x25, x26, [sp, #80]
   89a54:	a94673fb 	ldp	x27, x28, [sp, #96]
   89a58:	b9408be0 	ldr	w0, [sp, #136]
   89a5c:	910303ff 	add	sp, sp, #0xc0
   89a60:	d65f03c0 	ret
   89a64:	71002adf 	cmp	w22, #0xa
   89a68:	54000080 	b.eq	89a78 <HubPortReset+0x318>  // b.none
   89a6c:	37000a61 	tbnz	w1, #0, 89bb8 <HubPortReset+0x458>
   89a70:	36000a42 	tbz	w2, #0, 89bb8 <HubPortReset+0x458>
   89a74:	35000603 	cbnz	w3, 89b34 <HubPortReset+0x3d4>
   89a78:	b94087e0 	ldr	w0, [sp, #132]
   89a7c:	11000400 	add	w0, w0, #0x1
   89a80:	b90087e0 	str	w0, [sp, #132]
   89a84:	71000c1f 	cmp	w0, #0x3
   89a88:	54ffec41 	b.ne	89810 <HubPortReset+0xb0>  // b.any
   89a8c:	aa1803e0 	mov	x0, x24
   89a90:	97fffe8c 	bl	894c0 <UsbGetDescription>
   89a94:	b9408fe2 	ldr	w2, [sp, #140]
   89a98:	aa0003e1 	mov	x1, x0
   89a9c:	f0000020 	adrp	x0, 90000 <__sflush_r+0x40>
   89aa0:	9134a000 	add	x0, x0, #0xd28
   89aa4:	97ffe02b 	bl	81b50 <printf>
   89aa8:	a94253f3 	ldp	x19, x20, [sp, #32]
   89aac:	a9435bf5 	ldp	x21, x22, [sp, #48]
   89ab0:	a9456bf9 	ldp	x25, x26, [sp, #80]
   89ab4:	a94673fb 	ldp	x27, x28, [sp, #96]
   89ab8:	17ffff34 	b	89788 <HubPortReset+0x28>
   89abc:	3942e3e3 	ldrb	w3, [sp, #184]
   89ac0:	2a1403e4 	mov	w4, w20
   89ac4:	3942e7e2 	ldrb	w2, [sp, #185]
   89ac8:	2a1703e1 	mov	w1, w23
   89acc:	294e1fe5 	ldp	w5, w7, [sp, #112]
   89ad0:	b90003e0 	str	w0, [sp]
   89ad4:	b9407be6 	ldr	w6, [sp, #120]
   89ad8:	f0000020 	adrp	x0, 90000 <__sflush_r+0x40>
   89adc:	911be000 	add	x0, x0, #0x6f8
   89ae0:	97ffe01c 	bl	81b50 <printf>
   89ae4:	b9400760 	ldr	w0, [x27, #4]
   89ae8:	2a130000 	orr	w0, w0, w19
   89aec:	b9000760 	str	w0, [x27, #4]
   89af0:	2a1903e2 	mov	w2, w25
   89af4:	2a1703e1 	mov	w1, w23
   89af8:	f0000020 	adrp	x0, 90000 <__sflush_r+0x40>
   89afc:	91222000 	add	x0, x0, #0x888
   89b00:	97ffe014 	bl	81b50 <printf>
   89b04:	12800063 	mov	w3, #0xfffffffc            	// #-4
   89b08:	17ffffc4 	b	89a18 <HubPortReset+0x2b8>
   89b0c:	2a1703e1 	mov	w1, w23
   89b10:	f0000020 	adrp	x0, 90000 <__sflush_r+0x40>
   89b14:	911fc000 	add	x0, x0, #0x7f0
   89b18:	97ffe00e 	bl	81b50 <printf>
   89b1c:	17fffff2 	b	89ae4 <HubPortReset+0x384>
   89b20:	2a1703e1 	mov	w1, w23
   89b24:	f0000020 	adrp	x0, 90000 <__sflush_r+0x40>
   89b28:	911dc000 	add	x0, x0, #0x770
   89b2c:	97ffe009 	bl	81b50 <printf>
   89b30:	17ffffed 	b	89ae4 <HubPortReset+0x384>
   89b34:	b9400700 	ldr	w0, [x24, #4]
   89b38:	2a1903e2 	mov	w2, w25
   89b3c:	52800003 	mov	w3, #0x0                   	// #0
   89b40:	52800281 	mov	w1, #0x14                  	// #20
   89b44:	97fff8cb 	bl	87e70 <HCDChangeHubPortFeature>
   89b48:	35000140 	cbnz	w0, 89b70 <HubPortReset+0x410>
   89b4c:	a9417bfd 	ldp	x29, x30, [sp, #16]
   89b50:	a94253f3 	ldp	x19, x20, [sp, #32]
   89b54:	a9435bf5 	ldp	x21, x22, [sp, #48]
   89b58:	a94463f7 	ldp	x23, x24, [sp, #64]
   89b5c:	a9456bf9 	ldp	x25, x26, [sp, #80]
   89b60:	a94673fb 	ldp	x27, x28, [sp, #96]
   89b64:	b9408be0 	ldr	w0, [sp, #136]
   89b68:	910303ff 	add	sp, sp, #0xc0
   89b6c:	d65f03c0 	ret
   89b70:	aa1803e0 	mov	x0, x24
   89b74:	97fffe53 	bl	894c0 <UsbGetDescription>
   89b78:	b9408fe2 	ldr	w2, [sp, #140]
   89b7c:	aa0003e1 	mov	x1, x0
   89b80:	f0000020 	adrp	x0, 90000 <__sflush_r+0x40>
   89b84:	9133e000 	add	x0, x0, #0xcf8
   89b88:	97ffdff2 	bl	81b50 <printf>
   89b8c:	a9417bfd 	ldp	x29, x30, [sp, #16]
   89b90:	a94253f3 	ldp	x19, x20, [sp, #32]
   89b94:	a9435bf5 	ldp	x21, x22, [sp, #48]
   89b98:	a94463f7 	ldp	x23, x24, [sp, #64]
   89b9c:	a9456bf9 	ldp	x25, x26, [sp, #80]
   89ba0:	a94673fb 	ldp	x27, x28, [sp, #96]
   89ba4:	b9408be0 	ldr	w0, [sp, #136]
   89ba8:	910303ff 	add	sp, sp, #0xc0
   89bac:	d65f03c0 	ret
   89bb0:	b940b7f4 	ldr	w20, [sp, #180]
   89bb4:	17ffff50 	b	898f4 <HubPortReset+0x194>
   89bb8:	a94253f3 	ldp	x19, x20, [sp, #32]
   89bbc:	a9435bf5 	ldp	x21, x22, [sp, #48]
   89bc0:	a9456bf9 	ldp	x25, x26, [sp, #80]
   89bc4:	a94673fb 	ldp	x27, x28, [sp, #96]
   89bc8:	17fffef0 	b	89788 <HubPortReset+0x28>
   89bcc:	39401701 	ldrb	w1, [x24, #5]
   89bd0:	f0000020 	adrp	x0, 90000 <__sflush_r+0x40>
   89bd4:	91326000 	add	x0, x0, #0xc98
   89bd8:	b9408fe2 	ldr	w2, [sp, #140]
   89bdc:	97ffdfdd 	bl	81b50 <printf>
   89be0:	a94253f3 	ldp	x19, x20, [sp, #32]
   89be4:	a9435bf5 	ldp	x21, x22, [sp, #48]
   89be8:	a9456bf9 	ldp	x25, x26, [sp, #80]
   89bec:	a94673fb 	ldp	x27, x28, [sp, #96]
   89bf0:	17fffee8 	b	89790 <HubPortReset+0x30>
   89bf4:	d503201f 	nop
   89bf8:	d503201f 	nop
   89bfc:	d503201f 	nop

0000000000089c00 <HubCheckConnection.part.0>:
   89c00:	d10303ff 	sub	sp, sp, #0xc0
   89c04:	12001c21 	and	w1, w1, #0xff
   89c08:	528003e5 	mov	w5, #0x1f                  	// #31
   89c0c:	a9017bfd 	stp	x29, x30, [sp, #16]
   89c10:	910043fd 	add	x29, sp, #0x10
   89c14:	a9056bf9 	stp	x25, x26, [sp, #80]
   89c18:	d0000042 	adrp	x2, 93000 <_impure_data+0x148>
   89c1c:	9124205a 	add	x26, x2, #0x908
   89c20:	a90253f3 	stp	x19, x20, [sp, #32]
   89c24:	52800033 	mov	w19, #0x1                   	// #1
   89c28:	39401014 	ldrb	w20, [x0, #4]
   89c2c:	a9035bf5 	stp	x21, x22, [sp, #48]
   89c30:	11000436 	add	w22, w1, #0x1
   89c34:	39401c15 	ldrb	w21, [x0, #7]
   89c38:	a90463f7 	stp	x23, x24, [sp, #64]
   89c3c:	72001ed7 	ands	w23, w22, #0xff
   89c40:	39401818 	ldrb	w24, [x0, #6]
   89c44:	a90673fb 	stp	x27, x28, [sp, #96]
   89c48:	aa0003fc 	mov	x28, x0
   89c4c:	b9400740 	ldr	w0, [x26, #4]
   89c50:	b9007be1 	str	w1, [sp, #120]
   89c54:	1200069b 	and	w27, w20, #0x3
   89c58:	5ac01001 	clz	w1, w0
   89c5c:	39642046 	ldrb	w6, [x2, #2312]
   89c60:	4b0100b9 	sub	w25, w5, w1
   89c64:	b9400783 	ldr	w3, [x28, #4]
   89c68:	39401785 	ldrb	w5, [x28, #5]
   89c6c:	52801462 	mov	w2, #0xa3                  	// #163
   89c70:	52801401 	mov	w1, #0xa0                  	// #160
   89c74:	1ad92273 	lsl	w19, w19, w25
   89c78:	1a820021 	csel	w1, w1, w2, eq	// eq = none
   89c7c:	0a330000 	bic	w0, w0, w19
   89c80:	52800082 	mov	w2, #0x4                   	// #4
   89c84:	b9008be5 	str	w5, [sp, #136]
   89c88:	b900a3e3 	str	w3, [sp, #160]
   89c8c:	d37a02a3 	ubfiz	x3, x21, #6, #1
   89c90:	b900abff 	str	wzr, [sp, #168]
   89c94:	d3420e94 	ubfx	x20, x20, #2, #2
   89c98:	b900b7ff 	str	wzr, [sp, #180]
   89c9c:	d34182b5 	ubfx	x21, x21, #1, #32
   89ca0:	3902e3e1 	strb	w1, [sp, #184]
   89ca4:	2a580878 	orr	w24, w3, w24, lsr #2
   89ca8:	3902e7ff 	strb	wzr, [sp, #185]
   89cac:	6b0500df 	cmp	w6, w5
   89cb0:	3902ebff 	strb	wzr, [sp, #186]
   89cb4:	3902efff 	strb	wzr, [sp, #187]
   89cb8:	79017bf7 	strh	w23, [sp, #188]
   89cbc:	79017fe2 	strh	w2, [sp, #190]
   89cc0:	b9000740 	str	w0, [x26, #4]
   89cc4:	f941ff80 	ldr	x0, [x28, #1016]
   89cc8:	f90043e0 	str	x0, [sp, #128]
   89ccc:	54001540 	b.eq	89f74 <HubCheckConnection.part.0+0x374>  // b.none
   89cd0:	12001f24 	and	w4, w25, #0xff
   89cd4:	3902abe4 	strb	w4, [sp, #170]
   89cd8:	f94053e0 	ldr	x0, [sp, #160]
   89cdc:	9102e3e2 	add	x2, sp, #0xb8
   89ce0:	b940abe1 	ldr	w1, [sp, #168]
   89ce4:	52800064 	mov	w4, #0x3                   	// #3
   89ce8:	52800103 	mov	w3, #0x8                   	// #8
   89cec:	32080021 	orr	w1, w1, #0x1000000
   89cf0:	b900abe1 	str	w1, [sp, #168]
   89cf4:	12077821 	and	w1, w1, #0xfeffffff
   89cf8:	b900b3e1 	str	w1, [sp, #176]
   89cfc:	f9405be1 	ldr	x1, [sp, #176]
   89d00:	97fff4c4 	bl	87010 <HCDChannelTransfer>
   89d04:	35001b20 	cbnz	w0, 8a068 <HubCheckConnection.part.0+0x468>
   89d08:	b940b3e1 	ldr	w1, [sp, #176]
   89d0c:	910263e2 	add	x2, sp, #0x98
   89d10:	f94053e0 	ldr	x0, [sp, #160]
   89d14:	32080021 	orr	w1, w1, #0x1000000
   89d18:	b900b3e1 	str	w1, [sp, #176]
   89d1c:	52800044 	mov	w4, #0x2                   	// #2
   89d20:	52800083 	mov	w3, #0x4                   	// #4
   89d24:	f9405be1 	ldr	x1, [sp, #176]
   89d28:	97fff4ba 	bl	87010 <HCDChannelTransfer>
   89d2c:	35001bc0 	cbnz	w0, 8a0a4 <HubCheckConnection.part.0+0x4a4>
   89d30:	b000005b 	adrp	x27, 92000 <BitFont+0xbc0>
   89d34:	b94b0361 	ldr	w1, [x27, #2816]
   89d38:	937b7f35 	sbfiz	x21, x25, #5, #32
   89d3c:	5280a018 	mov	w24, #0x500                 	// #1280
   89d40:	72a01318 	movk	w24, #0x98, lsl #16
   89d44:	0b180021 	add	w1, w1, w24
   89d48:	8b150021 	add	x1, x1, x21
   89d4c:	b940b3e7 	ldr	w7, [sp, #176]
   89d50:	f94053e0 	ldr	x0, [sp, #160]
   89d54:	120778e7 	and	w7, w7, #0xfeffffff
   89d58:	b9401026 	ldr	w6, [x1, #16]
   89d5c:	52800094 	mov	w20, #0x4                   	// #4
   89d60:	b900b3e7 	str	w7, [sp, #176]
   89d64:	910263e2 	add	x2, sp, #0x98
   89d68:	52800044 	mov	w4, #0x2                   	// #2
   89d6c:	52800003 	mov	w3, #0x0                   	// #0
   89d70:	f9405be1 	ldr	x1, [sp, #176]
   89d74:	d34048c6 	ubfx	x6, x6, #0, #19
   89d78:	4b060294 	sub	w20, w20, w6
   89d7c:	97fff4a5 	bl	87010 <HCDChannelTransfer>
   89d80:	35001360 	cbnz	w0, 89fec <HubCheckConnection.part.0+0x3ec>
   89d84:	b94b0360 	ldr	w0, [x27, #2816]
   89d88:	0b180000 	add	w0, w0, w24
   89d8c:	8b150000 	add	x0, x0, x21
   89d90:	b9401000 	ldr	w0, [x0, #16]
   89d94:	b9400740 	ldr	w0, [x26, #4]
   89d98:	71000e9f 	cmp	w20, #0x3
   89d9c:	2a130000 	orr	w0, w0, w19
   89da0:	b9000740 	str	w0, [x26, #4]
   89da4:	54001329 	b.ls	8a008 <HubCheckConnection.part.0+0x408>  // b.plast
   89da8:	39426be0 	ldrb	w0, [sp, #154]
   89dac:	37000220 	tbnz	w0, #0, 89df0 <HubCheckConnection.part.0+0x1f0>
   89db0:	37080640 	tbnz	w0, #1, 89e78 <HubCheckConnection.part.0+0x278>
   89db4:	394263e0 	ldrb	w0, [sp, #152]
   89db8:	37100c20 	tbnz	w0, #2, 89f3c <HubCheckConnection.part.0+0x33c>
   89dbc:	39426be0 	ldrb	w0, [sp, #154]
   89dc0:	37180ac0 	tbnz	w0, #3, 89f18 <HubCheckConnection.part.0+0x318>
   89dc4:	372003e0 	tbnz	w0, #4, 89e40 <HubCheckConnection.part.0+0x240>
   89dc8:	52800015 	mov	w21, #0x0                   	// #0
   89dcc:	a9417bfd 	ldp	x29, x30, [sp, #16]
   89dd0:	2a1503e0 	mov	w0, w21
   89dd4:	a94253f3 	ldp	x19, x20, [sp, #32]
   89dd8:	a9435bf5 	ldp	x21, x22, [sp, #48]
   89ddc:	a94463f7 	ldp	x23, x24, [sp, #64]
   89de0:	a9456bf9 	ldp	x25, x26, [sp, #80]
   89de4:	a94673fb 	ldp	x27, x28, [sp, #96]
   89de8:	910303ff 	add	sp, sp, #0xc0
   89dec:	d65f03c0 	ret
   89df0:	39401781 	ldrb	w1, [x28, #5]
   89df4:	51000421 	sub	w1, w1, #0x1
   89df8:	12001c22 	and	w2, w1, #0xff
   89dfc:	71007c5f 	cmp	w2, #0x1f
   89e00:	54fffd88 	b.hi	89db0 <HubCheckConnection.part.0+0x1b0>  // b.pmore
   89e04:	93767c21 	sbfiz	x1, x1, #10, #32
   89e08:	f0000042 	adrp	x2, 94000 <HubTable+0x430>
   89e0c:	910a8042 	add	x2, x2, #0x2a0
   89e10:	8b010041 	add	x1, x2, x1
   89e14:	b943f022 	ldr	w2, [x1, #1008]
   89e18:	7100085f 	cmp	w2, #0x2
   89e1c:	54fffca1 	b.ne	89db0 <HubCheckConnection.part.0+0x1b0>  // b.any
   89e20:	f941fc21 	ldr	x1, [x1, #1016]
   89e24:	b4fffc61 	cbz	x1, 89db0 <HubCheckConnection.part.0+0x1b0>
   89e28:	3941e3e1 	ldrb	w1, [sp, #120]
   89e2c:	aa1c03e0 	mov	x0, x28
   89e30:	94000404 	bl	8ae40 <HubPortConnectionChanged.part.0>
   89e34:	39426be0 	ldrb	w0, [sp, #154]
   89e38:	360ffbe0 	tbz	w0, #1, 89db4 <HubCheckConnection.part.0+0x1b4>
   89e3c:	1400000f 	b	89e78 <HubCheckConnection.part.0+0x278>
   89e40:	b9400780 	ldr	w0, [x28, #4]
   89e44:	2a1703e2 	mov	w2, w23
   89e48:	52800003 	mov	w3, #0x0                   	// #0
   89e4c:	52800281 	mov	w1, #0x14                  	// #20
   89e50:	97fff808 	bl	87e70 <HCDChangeHubPortFeature>
   89e54:	34fffba0 	cbz	w0, 89dc8 <HubCheckConnection.part.0+0x1c8>
   89e58:	aa1c03e0 	mov	x0, x28
   89e5c:	97fffd99 	bl	894c0 <UsbGetDescription>
   89e60:	2a1603e2 	mov	w2, w22
   89e64:	aa0003e1 	mov	x1, x0
   89e68:	f0000020 	adrp	x0, 90000 <__sflush_r+0x40>
   89e6c:	913ac000 	add	x0, x0, #0xeb0
   89e70:	97ffdf38 	bl	81b50 <printf>
   89e74:	17ffffd5 	b	89dc8 <HubCheckConnection.part.0+0x1c8>
   89e78:	b9400780 	ldr	w0, [x28, #4]
   89e7c:	2a1703e2 	mov	w2, w23
   89e80:	52800003 	mov	w3, #0x0                   	// #0
   89e84:	52800221 	mov	w1, #0x11                  	// #17
   89e88:	97fff7fa 	bl	87e70 <HCDChangeHubPortFeature>
   89e8c:	35000de0 	cbnz	w0, 8a048 <HubCheckConnection.part.0+0x448>
   89e90:	394263e0 	ldrb	w0, [sp, #152]
   89e94:	12000401 	and	w1, w0, #0x3
   89e98:	7100043f 	cmp	w1, #0x1
   89e9c:	54fff8e1 	b.ne	89db8 <HubCheckConnection.part.0+0x1b8>  // b.any
   89ea0:	a9478be1 	ldp	x1, x2, [sp, #120]
   89ea4:	8b210c41 	add	x1, x2, w1, uxtb #3
   89ea8:	f9400421 	ldr	x1, [x1, #8]
   89eac:	b4fff861 	cbz	x1, 89db8 <HubCheckConnection.part.0+0x1b8>
   89eb0:	aa1c03e0 	mov	x0, x28
   89eb4:	97fffd83 	bl	894c0 <UsbGetDescription>
   89eb8:	2a1603e2 	mov	w2, w22
   89ebc:	aa0003e1 	mov	x1, x0
   89ec0:	f0000020 	adrp	x0, 90000 <__sflush_r+0x40>
   89ec4:	91376000 	add	x0, x0, #0xdd8
   89ec8:	97ffdf22 	bl	81b50 <printf>
   89ecc:	39401780 	ldrb	w0, [x28, #5]
   89ed0:	51000400 	sub	w0, w0, #0x1
   89ed4:	12001c01 	and	w1, w0, #0xff
   89ed8:	71007c3f 	cmp	w1, #0x1f
   89edc:	54fff6c8 	b.hi	89db4 <HubCheckConnection.part.0+0x1b4>  // b.pmore
   89ee0:	93767c00 	sbfiz	x0, x0, #10, #32
   89ee4:	f0000041 	adrp	x1, 94000 <HubTable+0x430>
   89ee8:	910a8021 	add	x1, x1, #0x2a0
   89eec:	8b000020 	add	x0, x1, x0
   89ef0:	b943f001 	ldr	w1, [x0, #1008]
   89ef4:	7100083f 	cmp	w1, #0x2
   89ef8:	54fff5e1 	b.ne	89db4 <HubCheckConnection.part.0+0x1b4>  // b.any
   89efc:	f941fc00 	ldr	x0, [x0, #1016]
   89f00:	b4fff5a0 	cbz	x0, 89db4 <HubCheckConnection.part.0+0x1b4>
   89f04:	3941e3e1 	ldrb	w1, [sp, #120]
   89f08:	aa1c03e0 	mov	x0, x28
   89f0c:	940003cd 	bl	8ae40 <HubPortConnectionChanged.part.0>
   89f10:	394263e0 	ldrb	w0, [sp, #152]
   89f14:	17ffffa9 	b	89db8 <HubCheckConnection.part.0+0x1b8>
   89f18:	b9400780 	ldr	w0, [x28, #4]
   89f1c:	2a1703e2 	mov	w2, w23
   89f20:	52800003 	mov	w3, #0x0                   	// #0
   89f24:	52800261 	mov	w1, #0x13                  	// #19
   89f28:	97fff7d2 	bl	87e70 <HCDChangeHubPortFeature>
   89f2c:	350007c0 	cbnz	w0, 8a024 <HubCheckConnection.part.0+0x424>
   89f30:	39426be0 	ldrb	w0, [sp, #154]
   89f34:	3627f4a0 	tbz	w0, #4, 89dc8 <HubCheckConnection.part.0+0x1c8>
   89f38:	17ffffc2 	b	89e40 <HubCheckConnection.part.0+0x240>
   89f3c:	b9400780 	ldr	w0, [x28, #4]
   89f40:	2a1703e2 	mov	w2, w23
   89f44:	52800003 	mov	w3, #0x0                   	// #0
   89f48:	52800041 	mov	w1, #0x2                   	// #2
   89f4c:	97fff7c9 	bl	87e70 <HCDChangeHubPortFeature>
   89f50:	34fff360 	cbz	w0, 89dbc <HubCheckConnection.part.0+0x1bc>
   89f54:	aa1c03e0 	mov	x0, x28
   89f58:	97fffd5a 	bl	894c0 <UsbGetDescription>
   89f5c:	2a1603e2 	mov	w2, w22
   89f60:	aa0003e1 	mov	x1, x0
   89f64:	f0000020 	adrp	x0, 90000 <__sflush_r+0x40>
   89f68:	91390000 	add	x0, x0, #0xe40
   89f6c:	97ffdef9 	bl	81b50 <printf>
   89f70:	17ffff93 	b	89dbc <HubCheckConnection.part.0+0x1bc>
   89f74:	9102d3e3 	add	x3, sp, #0xb4
   89f78:	9102e3e2 	add	x2, sp, #0xb8
   89f7c:	910263e0 	add	x0, sp, #0x98
   89f80:	52800081 	mov	w1, #0x4                   	// #4
   89f84:	b9008fe6 	str	w6, [sp, #140]
   89f88:	97ffef22 	bl	85c10 <HcdProcessRootHubMessage>
   89f8c:	b9408fe6 	ldr	w6, [sp, #140]
   89f90:	2a0003f5 	mov	w21, w0
   89f94:	34000980 	cbz	w0, 8a0c4 <HubCheckConnection.part.0+0x4c4>
   89f98:	2a0003e3 	mov	w3, w0
   89f9c:	b9400740 	ldr	w0, [x26, #4]
   89fa0:	2a0603e1 	mov	w1, w6
   89fa4:	2a1b03e5 	mov	w5, w27
   89fa8:	2a130006 	orr	w6, w0, w19
   89fac:	2a1403e4 	mov	w4, w20
   89fb0:	2a1703e2 	mov	w2, w23
   89fb4:	f0000020 	adrp	x0, 90000 <__sflush_r+0x40>
   89fb8:	91208000 	add	x0, x0, #0x820
   89fbc:	b9000746 	str	w6, [x26, #4]
   89fc0:	97ffdee4 	bl	81b50 <printf>
   89fc4:	31002ebf 	cmn	w21, #0xb
   89fc8:	54fff020 	b.eq	89dcc <HubCheckConnection.part.0+0x1cc>  // b.none
   89fcc:	aa1c03e0 	mov	x0, x28
   89fd0:	97fffd3c 	bl	894c0 <UsbGetDescription>
   89fd4:	2a1603e2 	mov	w2, w22
   89fd8:	aa0003e1 	mov	x1, x0
   89fdc:	f0000020 	adrp	x0, 90000 <__sflush_r+0x40>
   89fe0:	9135c000 	add	x0, x0, #0xd70
   89fe4:	97ffdedb 	bl	81b50 <printf>
   89fe8:	17ffff79 	b	89dcc <HubCheckConnection.part.0+0x1cc>
   89fec:	b9408be1 	ldr	w1, [sp, #136]
   89ff0:	f0000020 	adrp	x0, 90000 <__sflush_r+0x40>
   89ff4:	911dc000 	add	x0, x0, #0x770
   89ff8:	97ffded6 	bl	81b50 <printf>
   89ffc:	b9400740 	ldr	w0, [x26, #4]
   8a000:	2a130000 	orr	w0, w0, w19
   8a004:	b9000740 	str	w0, [x26, #4]
   8a008:	b9408be1 	ldr	w1, [sp, #136]
   8a00c:	2a1703e2 	mov	w2, w23
   8a010:	d0000020 	adrp	x0, 90000 <__sflush_r+0x40>
   8a014:	91222000 	add	x0, x0, #0x888
   8a018:	12800075 	mov	w21, #0xfffffffc            	// #-4
   8a01c:	97ffdecd 	bl	81b50 <printf>
   8a020:	17ffffeb 	b	89fcc <HubCheckConnection.part.0+0x3cc>
   8a024:	aa1c03e0 	mov	x0, x28
   8a028:	97fffd26 	bl	894c0 <UsbGetDescription>
   8a02c:	2a1603e2 	mov	w2, w22
   8a030:	aa0003e1 	mov	x1, x0
   8a034:	d0000020 	adrp	x0, 90000 <__sflush_r+0x40>
   8a038:	9139e000 	add	x0, x0, #0xe78
   8a03c:	97ffdec5 	bl	81b50 <printf>
   8a040:	39426be0 	ldrb	w0, [sp, #154]
   8a044:	17ffffbc 	b	89f34 <HubCheckConnection.part.0+0x334>
   8a048:	aa1c03e0 	mov	x0, x28
   8a04c:	97fffd1d 	bl	894c0 <UsbGetDescription>
   8a050:	2a1603e2 	mov	w2, w22
   8a054:	aa0003e1 	mov	x1, x0
   8a058:	d0000020 	adrp	x0, 90000 <__sflush_r+0x40>
   8a05c:	9136a000 	add	x0, x0, #0xda8
   8a060:	97ffdebc 	bl	81b50 <printf>
   8a064:	17ffff8b 	b	89e90 <HubCheckConnection.part.0+0x290>
   8a068:	3942e3e3 	ldrb	w3, [sp, #184]
   8a06c:	2a1803e7 	mov	w7, w24
   8a070:	3942e7e2 	ldrb	w2, [sp, #185]
   8a074:	2a1503e6 	mov	w6, w21
   8a078:	b9408be1 	ldr	w1, [sp, #136]
   8a07c:	2a1b03e5 	mov	w5, w27
   8a080:	b90003e0 	str	w0, [sp]
   8a084:	2a1403e4 	mov	w4, w20
   8a088:	d0000020 	adrp	x0, 90000 <__sflush_r+0x40>
   8a08c:	911be000 	add	x0, x0, #0x6f8
   8a090:	97ffdeb0 	bl	81b50 <printf>
   8a094:	b9400740 	ldr	w0, [x26, #4]
   8a098:	2a130000 	orr	w0, w0, w19
   8a09c:	b9000740 	str	w0, [x26, #4]
   8a0a0:	17ffffda 	b	8a008 <HubCheckConnection.part.0+0x408>
   8a0a4:	b9408be1 	ldr	w1, [sp, #136]
   8a0a8:	d0000020 	adrp	x0, 90000 <__sflush_r+0x40>
   8a0ac:	911fc000 	add	x0, x0, #0x7f0
   8a0b0:	97ffdea8 	bl	81b50 <printf>
   8a0b4:	b9400740 	ldr	w0, [x26, #4]
   8a0b8:	2a130000 	orr	w0, w0, w19
   8a0bc:	b9000740 	str	w0, [x26, #4]
   8a0c0:	17ffffd2 	b	8a008 <HubCheckConnection.part.0+0x408>
   8a0c4:	b940b7f4 	ldr	w20, [sp, #180]
   8a0c8:	17ffff33 	b	89d94 <HubCheckConnection.part.0+0x194>
   8a0cc:	d503201f 	nop

000000000008a0d0 <HubCheckForChange.part.0>:
   8a0d0:	a9bd7bfd 	stp	x29, x30, [sp, #-48]!
   8a0d4:	910003fd 	mov	x29, sp
   8a0d8:	a90153f3 	stp	x19, x20, [sp, #16]
   8a0dc:	aa0003f3 	mov	x19, x0
   8a0e0:	f941fc00 	ldr	x0, [x0, #1016]
   8a0e4:	b9400000 	ldr	w0, [x0]
   8a0e8:	34000260 	cbz	w0, 8a134 <HubCheckForChange.part.0+0x64>
   8a0ec:	d0000054 	adrp	x20, 94000 <HubTable+0x430>
   8a0f0:	910a8294 	add	x20, x20, #0x2a0
   8a0f4:	f90013f5 	str	x21, [sp, #32]
   8a0f8:	52800015 	mov	w21, #0x0                   	// #0
   8a0fc:	39401661 	ldrb	w1, [x19, #5]
   8a100:	51000421 	sub	w1, w1, #0x1
   8a104:	12001c22 	and	w2, w1, #0xff
   8a108:	71007c5f 	cmp	w2, #0x1f
   8a10c:	54000128 	b.hi	8a130 <HubCheckForChange.part.0+0x60>  // b.pmore
   8a110:	93767c21 	sbfiz	x1, x1, #10, #32
   8a114:	8b010281 	add	x1, x20, x1
   8a118:	b943f022 	ldr	w2, [x1, #1008]
   8a11c:	7100085f 	cmp	w2, #0x2
   8a120:	54000100 	b.eq	8a140 <HubCheckForChange.part.0+0x70>  // b.none
   8a124:	110006b5 	add	w21, w21, #0x1
   8a128:	6b0002bf 	cmp	w21, w0
   8a12c:	54fffe83 	b.cc	8a0fc <HubCheckForChange.part.0+0x2c>  // b.lo, b.ul, b.last
   8a130:	f94013f5 	ldr	x21, [sp, #32]
   8a134:	a94153f3 	ldp	x19, x20, [sp, #16]
   8a138:	a8c37bfd 	ldp	x29, x30, [sp], #48
   8a13c:	d65f03c0 	ret
   8a140:	f941fc21 	ldr	x1, [x1, #1016]
   8a144:	b4ffff01 	cbz	x1, 8a124 <HubCheckForChange.part.0+0x54>
   8a148:	2a1503e1 	mov	w1, w21
   8a14c:	aa1303e0 	mov	x0, x19
   8a150:	97fffeac 	bl	89c00 <HubCheckConnection.part.0>
   8a154:	35000280 	cbnz	w0, 8a1a4 <HubCheckForChange.part.0+0xd4>
   8a158:	f941fe62 	ldr	x2, [x19, #1016]
   8a15c:	8b35cc40 	add	x0, x2, w21, sxtw #3
   8a160:	f9400400 	ldr	x0, [x0, #8]
   8a164:	b4000160 	cbz	x0, 8a190 <HubCheckForChange.part.0+0xc0>
   8a168:	39401401 	ldrb	w1, [x0, #5]
   8a16c:	51000421 	sub	w1, w1, #0x1
   8a170:	12001c23 	and	w3, w1, #0xff
   8a174:	71007c7f 	cmp	w3, #0x1f
   8a178:	540000c8 	b.hi	8a190 <HubCheckForChange.part.0+0xc0>  // b.pmore
   8a17c:	93767c21 	sbfiz	x1, x1, #10, #32
   8a180:	8b010281 	add	x1, x20, x1
   8a184:	b943f023 	ldr	w3, [x1, #1008]
   8a188:	7100087f 	cmp	w3, #0x2
   8a18c:	54000060 	b.eq	8a198 <HubCheckForChange.part.0+0xc8>  // b.none
   8a190:	b9400040 	ldr	w0, [x2]
   8a194:	17ffffe4 	b	8a124 <HubCheckForChange.part.0+0x54>
   8a198:	f941fc21 	ldr	x1, [x1, #1016]
   8a19c:	b4ffffa1 	cbz	x1, 8a190 <HubCheckForChange.part.0+0xc0>
   8a1a0:	97ffffcc 	bl	8a0d0 <HubCheckForChange.part.0>
   8a1a4:	f941fe60 	ldr	x0, [x19, #1016]
   8a1a8:	b9400000 	ldr	w0, [x0]
   8a1ac:	17ffffde 	b	8a124 <HubCheckForChange.part.0+0x54>

000000000008a1b0 <HubCheckForChange>:
   8a1b0:	39401401 	ldrb	w1, [x0, #5]
   8a1b4:	51000421 	sub	w1, w1, #0x1
   8a1b8:	12001c22 	and	w2, w1, #0xff
   8a1bc:	71007c5f 	cmp	w2, #0x1f
   8a1c0:	54000108 	b.hi	8a1e0 <HubCheckForChange+0x30>  // b.pmore
   8a1c4:	93767c21 	sbfiz	x1, x1, #10, #32
   8a1c8:	d0000042 	adrp	x2, 94000 <HubTable+0x430>
   8a1cc:	910a8042 	add	x2, x2, #0x2a0
   8a1d0:	8b010041 	add	x1, x2, x1
   8a1d4:	b943f022 	ldr	w2, [x1, #1008]
   8a1d8:	7100085f 	cmp	w2, #0x2
   8a1dc:	54000040 	b.eq	8a1e4 <HubCheckForChange+0x34>  // b.none
   8a1e0:	d65f03c0 	ret
   8a1e4:	f941fc21 	ldr	x1, [x1, #1016]
   8a1e8:	b4ffffc1 	cbz	x1, 8a1e0 <HubCheckForChange+0x30>
   8a1ec:	17ffffb9 	b	8a0d0 <HubCheckForChange.part.0>

000000000008a1f0 <UsbCheckForChange>:
   8a1f0:	d0000040 	adrp	x0, 94000 <HubTable+0x430>
   8a1f4:	910a8000 	add	x0, x0, #0x2a0
   8a1f8:	b943f001 	ldr	w1, [x0, #1008]
   8a1fc:	35000041 	cbnz	w1, 8a204 <UsbCheckForChange+0x14>
   8a200:	d65f03c0 	ret
   8a204:	39401401 	ldrb	w1, [x0, #5]
   8a208:	51000421 	sub	w1, w1, #0x1
   8a20c:	12001c22 	and	w2, w1, #0xff
   8a210:	71007c5f 	cmp	w2, #0x1f
   8a214:	54ffff68 	b.hi	8a200 <UsbCheckForChange+0x10>  // b.pmore
   8a218:	93767c21 	sbfiz	x1, x1, #10, #32
   8a21c:	8b010001 	add	x1, x0, x1
   8a220:	b943f022 	ldr	w2, [x1, #1008]
   8a224:	7100085f 	cmp	w2, #0x2
   8a228:	54fffec1 	b.ne	8a200 <UsbCheckForChange+0x10>  // b.any
   8a22c:	f941fc21 	ldr	x1, [x1, #1016]
   8a230:	b4fffe81 	cbz	x1, 8a200 <UsbCheckForChange+0x10>
   8a234:	17ffffa7 	b	8a0d0 <HubCheckForChange.part.0>
   8a238:	d503201f 	nop
   8a23c:	d503201f 	nop

000000000008a240 <EnumerateHub>:
   8a240:	d101c3ff 	sub	sp, sp, #0x70
   8a244:	a9017bfd 	stp	x29, x30, [sp, #16]
   8a248:	910043fd 	add	x29, sp, #0x10
   8a24c:	a9035bf5 	stp	x21, x22, [sp, #48]
   8a250:	b4002060 	cbz	x0, 8a65c <EnumerateHub+0x41c>
   8a254:	a90253f3 	stp	x19, x20, [sp, #32]
   8a258:	aa0003f4 	mov	x20, x0
   8a25c:	b943f000 	ldr	w0, [x0, #1008]
   8a260:	7100041f 	cmp	w0, #0x1
   8a264:	540019c1 	b.ne	8a59c <EnumerateHub+0x35c>  // b.any
   8a268:	b0000055 	adrp	x21, 93000 <_impure_data+0x148>
   8a26c:	912422b5 	add	x21, x21, #0x908
   8a270:	910b22a1 	add	x1, x21, #0x2c8
   8a274:	b942caa2 	ldr	w2, [x21, #712]
   8a278:	34000562 	cbz	w2, 8a324 <EnumerateHub+0xe4>
   8a27c:	b94332a2 	ldr	w2, [x21, #816]
   8a280:	34001662 	cbz	w2, 8a54c <EnumerateHub+0x30c>
   8a284:	b9439aa0 	ldr	w0, [x21, #920]
   8a288:	340016a0 	cbz	w0, 8a55c <EnumerateHub+0x31c>
   8a28c:	b94402a0 	ldr	w0, [x21, #1024]
   8a290:	340016e0 	cbz	w0, 8a56c <EnumerateHub+0x32c>
   8a294:	b9446aa0 	ldr	w0, [x21, #1128]
   8a298:	34001720 	cbz	w0, 8a57c <EnumerateHub+0x33c>
   8a29c:	b944d2a0 	ldr	w0, [x21, #1232]
   8a2a0:	34001760 	cbz	w0, 8a58c <EnumerateHub+0x34c>
   8a2a4:	b9453aa0 	ldr	w0, [x21, #1336]
   8a2a8:	34001800 	cbz	w0, 8a5a8 <EnumerateHub+0x368>
   8a2ac:	b945a2a0 	ldr	w0, [x21, #1440]
   8a2b0:	34001840 	cbz	w0, 8a5b8 <EnumerateHub+0x378>
   8a2b4:	aa0103e0 	mov	x0, x1
   8a2b8:	b9434021 	ldr	w1, [x1, #832]
   8a2bc:	34001861 	cbz	w1, 8a5c8 <EnumerateHub+0x388>
   8a2c0:	b943a801 	ldr	w1, [x0, #936]
   8a2c4:	340018a1 	cbz	w1, 8a5d8 <EnumerateHub+0x398>
   8a2c8:	b9441001 	ldr	w1, [x0, #1040]
   8a2cc:	340018e1 	cbz	w1, 8a5e8 <EnumerateHub+0x3a8>
   8a2d0:	b9447801 	ldr	w1, [x0, #1144]
   8a2d4:	34001341 	cbz	w1, 8a53c <EnumerateHub+0x2fc>
   8a2d8:	b944e001 	ldr	w1, [x0, #1248]
   8a2dc:	340018e1 	cbz	w1, 8a5f8 <EnumerateHub+0x3b8>
   8a2e0:	b9454801 	ldr	w1, [x0, #1352]
   8a2e4:	34001921 	cbz	w1, 8a608 <EnumerateHub+0x3c8>
   8a2e8:	b945b001 	ldr	w1, [x0, #1456]
   8a2ec:	34001961 	cbz	w1, 8a618 <EnumerateHub+0x3d8>
   8a2f0:	b9461800 	ldr	w0, [x0, #1560]
   8a2f4:	128000d6 	mov	w22, #0xfffffff9            	// #-7
   8a2f8:	34001980 	cbz	w0, 8a628 <EnumerateHub+0x3e8>
   8a2fc:	a94253f3 	ldp	x19, x20, [sp, #32]
   8a300:	d0000020 	adrp	x0, 90000 <__sflush_r+0x40>
   8a304:	2a1603e1 	mov	w1, w22
   8a308:	913b8000 	add	x0, x0, #0xee0
   8a30c:	97ffde11 	bl	81b50 <printf>
   8a310:	a9417bfd 	ldp	x29, x30, [sp, #16]
   8a314:	2a1603e0 	mov	w0, w22
   8a318:	a9435bf5 	ldp	x21, x22, [sp, #48]
   8a31c:	9101c3ff 	add	sp, sp, #0x70
   8a320:	d65f03c0 	ret
   8a324:	52800004 	mov	w4, #0x0                   	// #0
   8a328:	a90463f7 	stp	x23, x24, [sp, #64]
   8a32c:	f9002bf9 	str	x25, [sp, #80]
   8a330:	93407c97 	sxtw	x23, w4
   8a334:	d2800d16 	mov	x22, #0x68                  	// #104
   8a338:	52800d03 	mov	w3, #0x68                  	// #104
   8a33c:	910b22b8 	add	x24, x21, #0x2c8
   8a340:	b9400680 	ldr	w0, [x20, #4]
   8a344:	52800041 	mov	w1, #0x2                   	// #2
   8a348:	9b167ef6 	mul	x22, x23, x22
   8a34c:	52800022 	mov	w2, #0x1                   	// #1
   8a350:	9b237c84 	smull	x4, w4, w3
   8a354:	390003e2 	strb	w2, [sp]
   8a358:	8b160313 	add	x19, x24, x22
   8a35c:	b903f281 	str	w1, [x20, #1008]
   8a360:	8b040301 	add	x1, x24, x4
   8a364:	f901fe81 	str	x1, [x20, #1016]
   8a368:	52800159 	mov	w25, #0xa                   	// #10
   8a36c:	b8366b19 	str	w25, [x24, x22]
   8a370:	a900fe7f 	stp	xzr, xzr, [x19, #8]
   8a374:	91016084 	add	x4, x4, #0x58
   8a378:	9101b3e7 	add	x7, sp, #0x6c
   8a37c:	a901fe7f 	stp	xzr, xzr, [x19, #24]
   8a380:	8b040304 	add	x4, x24, x4
   8a384:	12800be6 	mov	w6, #0xffffffa0            	// #-96
   8a388:	a902fe7f 	stp	xzr, xzr, [x19, #40]
   8a38c:	52800125 	mov	w5, #0x9                   	// #9
   8a390:	52800003 	mov	w3, #0x0                   	// #0
   8a394:	a903fe7f 	stp	xzr, xzr, [x19, #56]
   8a398:	52800002 	mov	w2, #0x0                   	// #0
   8a39c:	52800521 	mov	w1, #0x29                  	// #41
   8a3a0:	a904fe7f 	stp	xzr, xzr, [x19, #72]
   8a3a4:	97fffa1f 	bl	88c20 <HCDGetDescriptor>
   8a3a8:	35001480 	cbnz	w0, 8a638 <EnumerateHub+0x3f8>
   8a3ac:	b9406fe0 	ldr	w0, [sp, #108]
   8a3b0:	7100241f 	cmp	w0, #0x9
   8a3b4:	54001421 	b.ne	8a638 <EnumerateHub+0x3f8>  // b.any
   8a3b8:	39416a60 	ldrb	w0, [x19, #90]
   8a3bc:	7100281f 	cmp	w0, #0xa
   8a3c0:	54000988 	b.hi	8a4f0 <EnumerateHub+0x2b0>  // b.pmore
   8a3c4:	b8366b00 	str	w0, [x24, x22]
   8a3c8:	9101a3e2 	add	x2, sp, #0x68
   8a3cc:	b9400680 	ldr	w0, [x20, #4]
   8a3d0:	52800001 	mov	w1, #0x0                   	// #0
   8a3d4:	97fff5f7 	bl	87bb0 <HCDReadHubPortStatus>
   8a3d8:	2a0003f6 	mov	w22, w0
   8a3dc:	35000a00 	cbnz	w0, 8a51c <EnumerateHub+0x2dc>
   8a3e0:	d2800d00 	mov	x0, #0x68                  	// #104
   8a3e4:	910b22a1 	add	x1, x21, #0x2c8
   8a3e8:	91001298 	add	x24, x20, #0x4
   8a3ec:	52800013 	mov	w19, #0x0                   	// #0
   8a3f0:	9b007ee0 	mul	x0, x23, x0
   8a3f4:	8b000039 	add	x25, x1, x0
   8a3f8:	b8606820 	ldr	w0, [x1, x0]
   8a3fc:	34000140 	cbz	w0, 8a424 <EnumerateHub+0x1e4>
   8a400:	b9400300 	ldr	w0, [x24]
   8a404:	11000673 	add	w19, w19, #0x1
   8a408:	2a1303e2 	mov	w2, w19
   8a40c:	52800101 	mov	w1, #0x8                   	// #8
   8a410:	97fff450 	bl	87550 <HCDChangeHubPortFeature.constprop.0>
   8a414:	350004e0 	cbnz	w0, 8a4b0 <EnumerateHub+0x270>
   8a418:	b9400320 	ldr	w0, [x25]
   8a41c:	6b13001f 	cmp	w0, w19
   8a420:	54ffff08 	b.hi	8a400 <EnumerateHub+0x1c0>  // b.pmore
   8a424:	d2800d13 	mov	x19, #0x68                  	// #104
   8a428:	910b22b5 	add	x21, x21, #0x2c8
   8a42c:	5280fa01 	mov	w1, #0x7d0                 	// #2000
   8a430:	9b137ef3 	mul	x19, x23, x19
   8a434:	8b1302b7 	add	x23, x21, x19
   8a438:	394176e0 	ldrb	w0, [x23, #93]
   8a43c:	1b017c00 	mul	w0, w0, w1
   8a440:	97ffe950 	bl	84980 <timer_wait>
   8a444:	b8736aa3 	ldr	w3, [x21, x19]
   8a448:	52800013 	mov	w19, #0x0                   	// #0
   8a44c:	d0000055 	adrp	x21, 94000 <HubTable+0x430>
   8a450:	34000123 	cbz	w3, 8a474 <EnumerateHub+0x234>
   8a454:	39401681 	ldrb	w1, [x20, #5]
   8a458:	910a82a2 	add	x2, x21, #0x2a0
   8a45c:	51000421 	sub	w1, w1, #0x1
   8a460:	12001c20 	and	w0, w1, #0xff
   8a464:	93767c21 	sbfiz	x1, x1, #10, #32
   8a468:	71007c1f 	cmp	w0, #0x1f
   8a46c:	8b010042 	add	x2, x2, x1
   8a470:	54000129 	b.ls	8a494 <EnumerateHub+0x254>  // b.plast
   8a474:	a9417bfd 	ldp	x29, x30, [sp, #16]
   8a478:	2a1603e0 	mov	w0, w22
   8a47c:	a94253f3 	ldp	x19, x20, [sp, #32]
   8a480:	a9435bf5 	ldp	x21, x22, [sp, #48]
   8a484:	a94463f7 	ldp	x23, x24, [sp, #64]
   8a488:	f9402bf9 	ldr	x25, [sp, #80]
   8a48c:	9101c3ff 	add	sp, sp, #0x70
   8a490:	d65f03c0 	ret
   8a494:	b943f040 	ldr	w0, [x2, #1008]
   8a498:	7100081f 	cmp	w0, #0x2
   8a49c:	540001c0 	b.eq	8a4d4 <EnumerateHub+0x294>  // b.none
   8a4a0:	11000673 	add	w19, w19, #0x1
   8a4a4:	6b03027f 	cmp	w19, w3
   8a4a8:	54fffd63 	b.cc	8a454 <EnumerateHub+0x214>  // b.lo, b.ul, b.last
   8a4ac:	17fffff2 	b	8a474 <EnumerateHub+0x234>
   8a4b0:	39401681 	ldrb	w1, [x20, #5]
   8a4b4:	2a1303e2 	mov	w2, w19
   8a4b8:	d0000020 	adrp	x0, 90000 <__sflush_r+0x40>
   8a4bc:	913f6000 	add	x0, x0, #0xfd8
   8a4c0:	97ffdda4 	bl	81b50 <printf>
   8a4c4:	b9400320 	ldr	w0, [x25]
   8a4c8:	6b13001f 	cmp	w0, w19
   8a4cc:	54fff9a8 	b.hi	8a400 <EnumerateHub+0x1c0>  // b.pmore
   8a4d0:	17ffffd5 	b	8a424 <EnumerateHub+0x1e4>
   8a4d4:	f941fc42 	ldr	x2, [x2, #1016]
   8a4d8:	2a1303e1 	mov	w1, w19
   8a4dc:	aa1403e0 	mov	x0, x20
   8a4e0:	b4fffe02 	cbz	x2, 8a4a0 <EnumerateHub+0x260>
   8a4e4:	97fffdc7 	bl	89c00 <HubCheckConnection.part.0>
   8a4e8:	b94002e3 	ldr	w3, [x23]
   8a4ec:	17ffffed 	b	8a4a0 <EnumerateHub+0x260>
   8a4f0:	39401681 	ldrb	w1, [x20, #5]
   8a4f4:	2a1903e2 	mov	w2, w25
   8a4f8:	d0000020 	adrp	x0, 90000 <__sflush_r+0x40>
   8a4fc:	913d2000 	add	x0, x0, #0xf48
   8a500:	97ffdd94 	bl	81b50 <printf>
   8a504:	b9400680 	ldr	w0, [x20, #4]
   8a508:	9101a3e2 	add	x2, sp, #0x68
   8a50c:	52800001 	mov	w1, #0x0                   	// #0
   8a510:	97fff5a8 	bl	87bb0 <HCDReadHubPortStatus>
   8a514:	2a0003f6 	mov	w22, w0
   8a518:	34fff640 	cbz	w0, 8a3e0 <EnumerateHub+0x1a0>
   8a51c:	39401681 	ldrb	w1, [x20, #5]
   8a520:	d0000020 	adrp	x0, 90000 <__sflush_r+0x40>
   8a524:	913ea000 	add	x0, x0, #0xfa8
   8a528:	97ffdd8a 	bl	81b50 <printf>
   8a52c:	a94253f3 	ldp	x19, x20, [sp, #32]
   8a530:	a94463f7 	ldp	x23, x24, [sp, #64]
   8a534:	f9402bf9 	ldr	x25, [sp, #80]
   8a538:	17ffff76 	b	8a310 <EnumerateHub+0xd0>
   8a53c:	52800164 	mov	w4, #0xb                   	// #11
   8a540:	a90463f7 	stp	x23, x24, [sp, #64]
   8a544:	f9002bf9 	str	x25, [sp, #80]
   8a548:	17ffff7a 	b	8a330 <EnumerateHub+0xf0>
   8a54c:	2a0003e4 	mov	w4, w0
   8a550:	a90463f7 	stp	x23, x24, [sp, #64]
   8a554:	f9002bf9 	str	x25, [sp, #80]
   8a558:	17ffff76 	b	8a330 <EnumerateHub+0xf0>
   8a55c:	52800044 	mov	w4, #0x2                   	// #2
   8a560:	a90463f7 	stp	x23, x24, [sp, #64]
   8a564:	f9002bf9 	str	x25, [sp, #80]
   8a568:	17ffff72 	b	8a330 <EnumerateHub+0xf0>
   8a56c:	52800064 	mov	w4, #0x3                   	// #3
   8a570:	a90463f7 	stp	x23, x24, [sp, #64]
   8a574:	f9002bf9 	str	x25, [sp, #80]
   8a578:	17ffff6e 	b	8a330 <EnumerateHub+0xf0>
   8a57c:	52800084 	mov	w4, #0x4                   	// #4
   8a580:	a90463f7 	stp	x23, x24, [sp, #64]
   8a584:	f9002bf9 	str	x25, [sp, #80]
   8a588:	17ffff6a 	b	8a330 <EnumerateHub+0xf0>
   8a58c:	528000a4 	mov	w4, #0x5                   	// #5
   8a590:	a90463f7 	stp	x23, x24, [sp, #64]
   8a594:	f9002bf9 	str	x25, [sp, #80]
   8a598:	17ffff66 	b	8a330 <EnumerateHub+0xf0>
   8a59c:	a94253f3 	ldp	x19, x20, [sp, #32]
   8a5a0:	12800036 	mov	w22, #0xfffffffe            	// #-2
   8a5a4:	17ffff57 	b	8a300 <EnumerateHub+0xc0>
   8a5a8:	528000c4 	mov	w4, #0x6                   	// #6
   8a5ac:	a90463f7 	stp	x23, x24, [sp, #64]
   8a5b0:	f9002bf9 	str	x25, [sp, #80]
   8a5b4:	17ffff5f 	b	8a330 <EnumerateHub+0xf0>
   8a5b8:	528000e4 	mov	w4, #0x7                   	// #7
   8a5bc:	a90463f7 	stp	x23, x24, [sp, #64]
   8a5c0:	f9002bf9 	str	x25, [sp, #80]
   8a5c4:	17ffff5b 	b	8a330 <EnumerateHub+0xf0>
   8a5c8:	52800104 	mov	w4, #0x8                   	// #8
   8a5cc:	a90463f7 	stp	x23, x24, [sp, #64]
   8a5d0:	f9002bf9 	str	x25, [sp, #80]
   8a5d4:	17ffff57 	b	8a330 <EnumerateHub+0xf0>
   8a5d8:	52800124 	mov	w4, #0x9                   	// #9
   8a5dc:	a90463f7 	stp	x23, x24, [sp, #64]
   8a5e0:	f9002bf9 	str	x25, [sp, #80]
   8a5e4:	17ffff53 	b	8a330 <EnumerateHub+0xf0>
   8a5e8:	52800144 	mov	w4, #0xa                   	// #10
   8a5ec:	a90463f7 	stp	x23, x24, [sp, #64]
   8a5f0:	f9002bf9 	str	x25, [sp, #80]
   8a5f4:	17ffff4f 	b	8a330 <EnumerateHub+0xf0>
   8a5f8:	52800184 	mov	w4, #0xc                   	// #12
   8a5fc:	a90463f7 	stp	x23, x24, [sp, #64]
   8a600:	f9002bf9 	str	x25, [sp, #80]
   8a604:	17ffff4b 	b	8a330 <EnumerateHub+0xf0>
   8a608:	528001a4 	mov	w4, #0xd                   	// #13
   8a60c:	a90463f7 	stp	x23, x24, [sp, #64]
   8a610:	f9002bf9 	str	x25, [sp, #80]
   8a614:	17ffff47 	b	8a330 <EnumerateHub+0xf0>
   8a618:	528001c4 	mov	w4, #0xe                   	// #14
   8a61c:	a90463f7 	stp	x23, x24, [sp, #64]
   8a620:	f9002bf9 	str	x25, [sp, #80]
   8a624:	17ffff43 	b	8a330 <EnumerateHub+0xf0>
   8a628:	528001e4 	mov	w4, #0xf                   	// #15
   8a62c:	a90463f7 	stp	x23, x24, [sp, #64]
   8a630:	f9002bf9 	str	x25, [sp, #80]
   8a634:	17ffff3f 	b	8a330 <EnumerateHub+0xf0>
   8a638:	39401681 	ldrb	w1, [x20, #5]
   8a63c:	d0000020 	adrp	x0, 90000 <__sflush_r+0x40>
   8a640:	913c4000 	add	x0, x0, #0xf10
   8a644:	12800076 	mov	w22, #0xfffffffc            	// #-4
   8a648:	97ffdd42 	bl	81b50 <printf>
   8a64c:	a94253f3 	ldp	x19, x20, [sp, #32]
   8a650:	a94463f7 	ldp	x23, x24, [sp, #64]
   8a654:	f9402bf9 	ldr	x25, [sp, #80]
   8a658:	17ffff2e 	b	8a310 <EnumerateHub+0xd0>
   8a65c:	12800036 	mov	w22, #0xfffffffe            	// #-2
   8a660:	17ffff28 	b	8a300 <EnumerateHub+0xc0>
   8a664:	d503201f 	nop
   8a668:	d503201f 	nop
   8a66c:	d503201f 	nop

000000000008a670 <EnumerateDevice>:
   8a670:	d11383ff 	sub	sp, sp, #0x4e0
   8a674:	aa0003e3 	mov	x3, x0
   8a678:	d280d006 	mov	x6, #0x680                 	// #1664
   8a67c:	f2a02006 	movk	x6, #0x100, lsl #16
   8a680:	12001c42 	and	w2, w2, #0xff
   8a684:	f2e00106 	movk	x6, #0x8, lsl #48
   8a688:	a9017bfd 	stp	x29, x30, [sp, #16]
   8a68c:	910043fd 	add	x29, sp, #0x10
   8a690:	a90673fb 	stp	x27, x28, [sp, #96]
   8a694:	b0000044 	adrp	x4, 93000 <_impure_data+0x148>
   8a698:	9124209c 	add	x28, x4, #0x908
   8a69c:	39642085 	ldrb	w5, [x4, #2312]
   8a6a0:	79400804 	ldrh	w4, [x0, #4]
   8a6a4:	a90253f3 	stp	x19, x20, [sp, #32]
   8a6a8:	aa0003f3 	mov	x19, x0
   8a6ac:	3940141b 	ldrb	w27, [x0, #5]
   8a6b0:	a9035bf5 	stp	x21, x22, [sp, #48]
   8a6b4:	121e1484 	and	w4, w4, #0xfc
   8a6b8:	528003f4 	mov	w20, #0x1f                  	// #31
   8a6bc:	a90463f7 	stp	x23, x24, [sp, #64]
   8a6c0:	52800035 	mov	w21, #0x1                   	// #1
   8a6c4:	aa0103f7 	mov	x23, x1
   8a6c8:	a9056bf9 	stp	x25, x26, [sp, #80]
   8a6cc:	78004c64 	strh	w4, [x3, #4]!
   8a6d0:	b9007fe2 	str	w2, [sp, #124]
   8a6d4:	39401018 	ldrb	w24, [x0, #4]
   8a6d8:	b9400780 	ldr	w0, [x28, #4]
   8a6dc:	39400c76 	ldrb	w22, [x3, #3]
   8a6e0:	5ac01004 	clz	w4, w0
   8a6e4:	39400879 	ldrb	w25, [x3, #2]
   8a6e8:	4b040294 	sub	w20, w20, w4
   8a6ec:	b9400664 	ldr	w4, [x19, #4]
   8a6f0:	b9008bff 	str	wzr, [sp, #136]
   8a6f4:	d37a02c1 	ubfiz	x1, x22, #6, #1
   8a6f8:	1ad422b5 	lsl	w21, w21, w20
   8a6fc:	0a350000 	bic	w0, w0, w21
   8a700:	b9000780 	str	w0, [x28, #4]
   8a704:	d34182d6 	ubfx	x22, x22, #1, #32
   8a708:	f90053e6 	str	x6, [sp, #160]
   8a70c:	2a590839 	orr	w25, w1, w25, lsr #2
   8a710:	b900bbe4 	str	w4, [sp, #184]
   8a714:	d3420f18 	ubfx	x24, x24, #2, #2
   8a718:	a90cffff 	stp	xzr, xzr, [sp, #200]
   8a71c:	12001e9a 	and	w26, w20, #0xff
   8a720:	7901b3ff 	strh	wzr, [sp, #216]
   8a724:	34000d45 	cbz	w5, 8a8cc <EnumerateDevice+0x25c>
   8a728:	39022bfa 	strb	w26, [sp, #138]
   8a72c:	910283e2 	add	x2, sp, #0xa0
   8a730:	f9405fe0 	ldr	x0, [sp, #184]
   8a734:	52800064 	mov	w4, #0x3                   	// #3
   8a738:	b9408be1 	ldr	w1, [sp, #136]
   8a73c:	52800103 	mov	w3, #0x8                   	// #8
   8a740:	32080021 	orr	w1, w1, #0x1000000
   8a744:	b9008be1 	str	w1, [sp, #136]
   8a748:	12077821 	and	w1, w1, #0xfeffffff
   8a74c:	b900e3e1 	str	w1, [sp, #224]
   8a750:	f94073e1 	ldr	x1, [sp, #224]
   8a754:	97fff22f 	bl	87010 <HCDChannelTransfer>
   8a758:	35001ba0 	cbnz	w0, 8aacc <EnumerateDevice+0x45c>
   8a75c:	b940e3e1 	ldr	w1, [sp, #224]
   8a760:	910323e2 	add	x2, sp, #0xc8
   8a764:	f9405fe0 	ldr	x0, [sp, #184]
   8a768:	32080021 	orr	w1, w1, #0x1000000
   8a76c:	b900e3e1 	str	w1, [sp, #224]
   8a770:	52800044 	mov	w4, #0x2                   	// #2
   8a774:	52800103 	mov	w3, #0x8                   	// #8
   8a778:	f94073e1 	ldr	x1, [sp, #224]
   8a77c:	97fff225 	bl	87010 <HCDChannelTransfer>
   8a780:	35001c00 	cbnz	w0, 8ab00 <EnumerateDevice+0x490>
   8a784:	90000059 	adrp	x25, 92000 <BitFont+0xbc0>
   8a788:	b94b0321 	ldr	w1, [x25, #2816]
   8a78c:	937b7e94 	sbfiz	x20, x20, #5, #32
   8a790:	5280a018 	mov	w24, #0x500                 	// #1280
   8a794:	72a01318 	movk	w24, #0x98, lsl #16
   8a798:	0b180021 	add	w1, w1, w24
   8a79c:	8b140021 	add	x1, x1, x20
   8a7a0:	b940e3e6 	ldr	w6, [sp, #224]
   8a7a4:	f9405fe0 	ldr	x0, [sp, #184]
   8a7a8:	120778c6 	and	w6, w6, #0xfeffffff
   8a7ac:	b9401025 	ldr	w5, [x1, #16]
   8a7b0:	52800116 	mov	w22, #0x8                   	// #8
   8a7b4:	b900e3e6 	str	w6, [sp, #224]
   8a7b8:	910323e2 	add	x2, sp, #0xc8
   8a7bc:	52800044 	mov	w4, #0x2                   	// #2
   8a7c0:	52800003 	mov	w3, #0x0                   	// #0
   8a7c4:	f94073e1 	ldr	x1, [sp, #224]
   8a7c8:	d34048a5 	ubfx	x5, x5, #0, #19
   8a7cc:	4b0502d6 	sub	w22, w22, w5
   8a7d0:	97fff210 	bl	87010 <HCDChannelTransfer>
   8a7d4:	35001700 	cbnz	w0, 8aab4 <EnumerateDevice+0x444>
   8a7d8:	b94b0320 	ldr	w0, [x25, #2816]
   8a7dc:	0b180000 	add	w0, w0, w24
   8a7e0:	8b140000 	add	x0, x0, x20
   8a7e4:	b9401000 	ldr	w0, [x0, #16]
   8a7e8:	b9009ff6 	str	w22, [sp, #156]
   8a7ec:	710022df 	cmp	w22, #0x8
   8a7f0:	52800014 	mov	w20, #0x0                   	// #0
   8a7f4:	540007a1 	b.ne	8a8e8 <EnumerateDevice+0x278>  // b.any
   8a7f8:	39433fe1 	ldrb	w1, [sp, #207]
   8a7fc:	52800000 	mov	w0, #0x0                   	// #0
   8a800:	7100203f 	cmp	w1, #0x8
   8a804:	540000e9 	b.ls	8a820 <EnumerateDevice+0x1b0>  // b.plast
   8a808:	7100403f 	cmp	w1, #0x10
   8a80c:	52800020 	mov	w0, #0x1                   	// #1
   8a810:	54000089 	b.ls	8a820 <EnumerateDevice+0x1b0>  // b.plast
   8a814:	7100803f 	cmp	w1, #0x20
   8a818:	1a9f97e0 	cset	w0, hi	// hi = pmore
   8a81c:	11000800 	add	w0, w0, #0x2
   8a820:	b9400661 	ldr	w1, [x19, #4]
   8a824:	52800042 	mov	w2, #0x2                   	// #2
   8a828:	39003a62 	strb	w2, [x19, #14]
   8a82c:	33000401 	bfxil	w1, w0, #0, #2
   8a830:	b9000661 	str	w1, [x19, #4]
   8a834:	b40000d7 	cbz	x23, 8a84c <EnumerateDevice+0x1dc>
   8a838:	3941f3e1 	ldrb	w1, [sp, #124]
   8a83c:	aa1703e0 	mov	x0, x23
   8a840:	97fffbc8 	bl	89760 <HubPortReset>
   8a844:	2a0003f4 	mov	w20, w0
   8a848:	35000280 	cbnz	w0, 8a898 <EnumerateDevice+0x228>
   8a84c:	b9400660 	ldr	w0, [x19, #4]
   8a850:	12800034 	mov	w20, #0xfffffffe            	// #-2
   8a854:	b900bbff 	str	wzr, [sp, #184]
   8a858:	b900b3e0 	str	w0, [sp, #176]
   8a85c:	3902ebfa 	strb	w26, [sp, #186]
   8a860:	340001db 	cbz	w27, 8a898 <EnumerateDevice+0x228>
   8a864:	a94b07e0 	ldp	x0, x1, [sp, #176]
   8a868:	d280a002 	mov	x2, #0x500                 	// #1280
   8a86c:	910383f6 	add	x22, sp, #0xe0
   8a870:	f90073e2 	str	x2, [sp, #224]
   8a874:	aa1603e4 	mov	x4, x22
   8a878:	d2800006 	mov	x6, #0x0                   	// #0
   8a87c:	52800145 	mov	w5, #0xa                   	// #10
   8a880:	52800003 	mov	w3, #0x0                   	// #0
   8a884:	d2800002 	mov	x2, #0x0                   	// #0
   8a888:	7901c7fb 	strh	w27, [sp, #226]
   8a88c:	97fff3a1 	bl	87710 <HCDSumbitControlMessage>
   8a890:	2a0003f4 	mov	w20, w0
   8a894:	34000320 	cbz	w0, 8a8f8 <EnumerateDevice+0x288>
   8a898:	b9400780 	ldr	w0, [x28, #4]
   8a89c:	3900167b 	strb	w27, [x19, #5]
   8a8a0:	2a150000 	orr	w0, w0, w21
   8a8a4:	b9000780 	str	w0, [x28, #4]
   8a8a8:	a9417bfd 	ldp	x29, x30, [sp, #16]
   8a8ac:	2a1403e0 	mov	w0, w20
   8a8b0:	a94253f3 	ldp	x19, x20, [sp, #32]
   8a8b4:	a9435bf5 	ldp	x21, x22, [sp, #48]
   8a8b8:	a94463f7 	ldp	x23, x24, [sp, #64]
   8a8bc:	a9456bf9 	ldp	x25, x26, [sp, #80]
   8a8c0:	a94673fb 	ldp	x27, x28, [sp, #96]
   8a8c4:	911383ff 	add	sp, sp, #0x4e0
   8a8c8:	d65f03c0 	ret
   8a8cc:	910273e3 	add	x3, sp, #0x9c
   8a8d0:	910283e2 	add	x2, sp, #0xa0
   8a8d4:	910323e0 	add	x0, sp, #0xc8
   8a8d8:	52800101 	mov	w1, #0x8                   	// #8
   8a8dc:	97ffeccd 	bl	85c10 <HcdProcessRootHubMessage>
   8a8e0:	2a0003f4 	mov	w20, w0
   8a8e4:	340010a0 	cbz	w0, 8aaf8 <EnumerateDevice+0x488>
   8a8e8:	b9400780 	ldr	w0, [x28, #4]
   8a8ec:	2a150000 	orr	w0, w0, w21
   8a8f0:	b9000780 	str	w0, [x28, #4]
   8a8f4:	17ffffed 	b	8a8a8 <EnumerateDevice+0x238>
   8a8f8:	3900167b 	strb	w27, [x19, #5]
   8a8fc:	d284e200 	mov	x0, #0x2710                	// #10000
   8a900:	52800037 	mov	w23, #0x1                   	// #1
   8a904:	97ffe81f 	bl	84980 <timer_wait>
   8a908:	b9400660 	ldr	w0, [x19, #4]
   8a90c:	52800061 	mov	w1, #0x3                   	// #3
   8a910:	390003f7 	strb	w23, [sp]
   8a914:	910273e7 	add	x7, sp, #0x9c
   8a918:	39003a61 	strb	w1, [x19, #14]
   8a91c:	910f7264 	add	x4, x19, #0x3dc
   8a920:	12800fe6 	mov	w6, #0xffffff80            	// #-128
   8a924:	52800245 	mov	w5, #0x12                  	// #18
   8a928:	52800003 	mov	w3, #0x0                   	// #0
   8a92c:	52800002 	mov	w2, #0x0                   	// #0
   8a930:	52800021 	mov	w1, #0x1                   	// #1
   8a934:	97fff8bb 	bl	88c20 <HCDGetDescriptor>
   8a938:	2a0003f4 	mov	w20, w0
   8a93c:	35fffd60 	cbnz	w0, 8a8e8 <EnumerateDevice+0x278>
   8a940:	b9409fe0 	ldr	w0, [sp, #156]
   8a944:	7100481f 	cmp	w0, #0x12
   8a948:	54fffd01 	b.ne	8a8e8 <EnumerateDevice+0x278>  // b.any
   8a94c:	b9400660 	ldr	w0, [x19, #4]
   8a950:	910273e7 	add	x7, sp, #0x9c
   8a954:	390003f7 	strb	w23, [sp]
   8a958:	9102e3e4 	add	x4, sp, #0xb8
   8a95c:	12800fe6 	mov	w6, #0xffffff80            	// #-128
   8a960:	52800125 	mov	w5, #0x9                   	// #9
   8a964:	52800003 	mov	w3, #0x0                   	// #0
   8a968:	52800002 	mov	w2, #0x0                   	// #0
   8a96c:	52800041 	mov	w1, #0x2                   	// #2
   8a970:	97fff8ac 	bl	88c20 <HCDGetDescriptor>
   8a974:	350019c0 	cbnz	w0, 8acac <EnumerateDevice+0x63c>
   8a978:	b9409ff9 	ldr	w25, [sp, #156]
   8a97c:	7100273f 	cmp	w25, #0x9
   8a980:	54001961 	b.ne	8acac <EnumerateDevice+0x63c>  // b.any
   8a984:	39022bfa 	strb	w26, [sp, #138]
   8a988:	5280d007 	mov	w7, #0x680                 	// #1664
   8a98c:	72a04007 	movk	w7, #0x200, lsl #16
   8a990:	b9400660 	ldr	w0, [x19, #4]
   8a994:	b9408be1 	ldr	w1, [sp, #136]
   8a998:	910273e6 	add	x6, sp, #0x9c
   8a99c:	3942fbe9 	ldrb	w9, [sp, #190]
   8a9a0:	9102a3e4 	add	x4, sp, #0xa8
   8a9a4:	32080021 	orr	w1, w1, #0x1000000
   8a9a8:	b9008be1 	str	w1, [sp, #136]
   8a9ac:	794177e3 	ldrh	w3, [sp, #186]
   8a9b0:	aa1603e2 	mov	x2, x22
   8a9b4:	f94047e1 	ldr	x1, [sp, #136]
   8a9b8:	39003669 	strb	w9, [x19, #13]
   8a9bc:	3942f7f7 	ldrb	w23, [sp, #189]
   8a9c0:	52800145 	mov	w5, #0xa                   	// #10
   8a9c4:	b900abe7 	str	w7, [sp, #168]
   8a9c8:	79015bff 	strh	wzr, [sp, #172]
   8a9cc:	79015fe3 	strh	w3, [sp, #174]
   8a9d0:	97fff350 	bl	87710 <HCDSumbitControlMessage>
   8a9d4:	2a0003f4 	mov	w20, w0
   8a9d8:	35fff880 	cbnz	w0, 8a8e8 <EnumerateDevice+0x278>
   8a9dc:	794177e5 	ldrh	w5, [sp, #186]
   8a9e0:	b9409fe0 	ldr	w0, [sp, #156]
   8a9e4:	6b0000bf 	cmp	w5, w0
   8a9e8:	54001621 	b.ne	8acac <EnumerateDevice+0x63c>  // b.any
   8a9ec:	710004bf 	cmp	w5, #0x1
   8a9f0:	52800002 	mov	w2, #0x0                   	// #0
   8a9f4:	52800018 	mov	w24, #0x0                   	// #0
   8a9f8:	52800006 	mov	w6, #0x0                   	// #0
   8a9fc:	54001620 	b.eq	8acc0 <EnumerateDevice+0x650>  // b.none
   8aa00:	91002384 	add	x4, x28, #0x8
   8aa04:	52800e0b 	mov	w11, #0x70                  	// #112
   8aa08:	d2800b8a 	mov	x10, #0x5c                  	// #92
   8aa0c:	528000e9 	mov	w9, #0x7                   	// #7
   8aa10:	5280006e 	mov	w14, #0x3                   	// #3
   8aa14:	d280058d 	mov	x13, #0x2c                  	// #44
   8aa18:	5280008c 	mov	w12, #0x4                   	// #4
   8aa1c:	d2800287 	mov	x7, #0x14                  	// #20
   8aa20:	1400000a 	b	8aa48 <EnumerateDevice+0x3d8>
   8aa24:	7100841f 	cmp	w0, #0x21
   8aa28:	54000ae0 	b.eq	8ab84 <EnumerateDevice+0x514>  // b.none
   8aa2c:	7100101f 	cmp	w0, #0x4
   8aa30:	54000740 	b.eq	8ab18 <EnumerateDevice+0x4a8>  // b.none
   8aa34:	38624ac3 	ldrb	w3, [x22, w2, uxtw]
   8aa38:	0b030042 	add	w2, w2, w3
   8aa3c:	510004a0 	sub	w0, w5, #0x1
   8aa40:	6b02001f 	cmp	w0, w2
   8aa44:	540013e9 	b.ls	8acc0 <EnumerateDevice+0x650>  // b.plast
   8aa48:	11000440 	add	w0, w2, #0x1
   8aa4c:	38604ac0 	ldrb	w0, [x22, w0, uxtw]
   8aa50:	7100141f 	cmp	w0, #0x5
   8aa54:	54fffe81 	b.ne	8aa24 <EnumerateDevice+0x3b4>  // b.any
   8aa58:	39404260 	ldrb	w0, [x19, #16]
   8aa5c:	8b2242cf 	add	x15, x22, w2, uxtw
   8aa60:	110004c1 	add	w1, w6, #0x1
   8aa64:	38624ac3 	ldrb	w3, [x22, w2, uxtw]
   8aa68:	51000400 	sub	w0, w0, #0x1
   8aa6c:	394005f1 	ldrb	w17, [x15, #1]
   8aa70:	394009f0 	ldrb	w16, [x15, #2]
   8aa74:	9b2b2800 	smaddl	x0, w0, w11, x10
   8aa78:	9ba60120 	umaddl	x0, w9, w6, x0
   8aa7c:	12001c26 	and	w6, w1, #0xff
   8aa80:	8b000261 	add	x1, x19, x0
   8aa84:	38206a63 	strb	w3, [x19, x0]
   8aa88:	39400de0 	ldrb	w0, [x15, #3]
   8aa8c:	39000431 	strb	w17, [x1, #1]
   8aa90:	394011f1 	ldrb	w17, [x15, #4]
   8aa94:	39000830 	strb	w16, [x1, #2]
   8aa98:	394015f0 	ldrb	w16, [x15, #5]
   8aa9c:	39000c20 	strb	w0, [x1, #3]
   8aaa0:	394019e0 	ldrb	w0, [x15, #6]
   8aaa4:	39001031 	strb	w17, [x1, #4]
   8aaa8:	39001430 	strb	w16, [x1, #5]
   8aaac:	39001820 	strb	w0, [x1, #6]
   8aab0:	17ffffe2 	b	8aa38 <EnumerateDevice+0x3c8>
   8aab4:	d0000020 	adrp	x0, 90000 <__sflush_r+0x40>
   8aab8:	52800001 	mov	w1, #0x0                   	// #0
   8aabc:	911dc000 	add	x0, x0, #0x770
   8aac0:	97ffdc24 	bl	81b50 <printf>
   8aac4:	b9409ff6 	ldr	w22, [sp, #156]
   8aac8:	17ffff49 	b	8a7ec <EnumerateDevice+0x17c>
   8aacc:	394283e3 	ldrb	w3, [sp, #160]
   8aad0:	2a1903e7 	mov	w7, w25
   8aad4:	394287e2 	ldrb	w2, [sp, #161]
   8aad8:	2a1603e6 	mov	w6, w22
   8aadc:	b90003e0 	str	w0, [sp]
   8aae0:	2a1803e4 	mov	w4, w24
   8aae4:	d0000020 	adrp	x0, 90000 <__sflush_r+0x40>
   8aae8:	911be000 	add	x0, x0, #0x6f8
   8aaec:	52800005 	mov	w5, #0x0                   	// #0
   8aaf0:	52800001 	mov	w1, #0x0                   	// #0
   8aaf4:	97ffdc17 	bl	81b50 <printf>
   8aaf8:	b9409ff6 	ldr	w22, [sp, #156]
   8aafc:	17ffff3c 	b	8a7ec <EnumerateDevice+0x17c>
   8ab00:	d0000020 	adrp	x0, 90000 <__sflush_r+0x40>
   8ab04:	52800001 	mov	w1, #0x0                   	// #0
   8ab08:	911fc000 	add	x0, x0, #0x7f0
   8ab0c:	97ffdc11 	bl	81b50 <printf>
   8ab10:	b9409ff6 	ldr	w22, [sp, #156]
   8ab14:	17ffff36 	b	8a7ec <EnumerateDevice+0x17c>
   8ab18:	3940426f 	ldrb	w15, [x19, #16]
   8ab1c:	8b2242c1 	add	x1, x22, w2, uxtw
   8ab20:	38624ac3 	ldrb	w3, [x22, w2, uxtw]
   8ab24:	52800006 	mov	w6, #0x0                   	// #0
   8ab28:	39400431 	ldrb	w17, [x1, #1]
   8ab2c:	9baf1f2f 	umaddl	x15, w25, w15, x7
   8ab30:	39400830 	ldrb	w16, [x1, #2]
   8ab34:	8b0f0260 	add	x0, x19, x15
   8ab38:	382f6a63 	strb	w3, [x19, x15]
   8ab3c:	39400c2f 	ldrb	w15, [x1, #3]
   8ab40:	39000c0f 	strb	w15, [x0, #3]
   8ab44:	3940102f 	ldrb	w15, [x1, #4]
   8ab48:	3900100f 	strb	w15, [x0, #4]
   8ab4c:	3940142f 	ldrb	w15, [x1, #5]
   8ab50:	3900140f 	strb	w15, [x0, #5]
   8ab54:	3940182f 	ldrb	w15, [x1, #6]
   8ab58:	3900180f 	strb	w15, [x0, #6]
   8ab5c:	39401c2f 	ldrb	w15, [x1, #7]
   8ab60:	39402021 	ldrb	w1, [x1, #8]
   8ab64:	39000411 	strb	w17, [x0, #1]
   8ab68:	39000810 	strb	w16, [x0, #2]
   8ab6c:	39001c0f 	strb	w15, [x0, #7]
   8ab70:	39002001 	strb	w1, [x0, #8]
   8ab74:	39404260 	ldrb	w0, [x19, #16]
   8ab78:	11000400 	add	w0, w0, #0x1
   8ab7c:	39004260 	strb	w0, [x19, #16]
   8ab80:	17ffffae 	b	8aa38 <EnumerateDevice+0x3c8>
   8ab84:	350004d8 	cbnz	w24, 8ac1c <EnumerateDevice+0x5ac>
   8ab88:	b943f260 	ldr	w0, [x19, #1008]
   8ab8c:	7100041f 	cmp	w0, #0x1
   8ab90:	54001181 	b.ne	8adc0 <EnumerateDevice+0x750>  // b.any
   8ab94:	3940a081 	ldrb	w1, [x4, #40]
   8ab98:	34000d81 	cbz	w1, 8ad48 <EnumerateDevice+0x6d8>
   8ab9c:	39415081 	ldrb	w1, [x4, #84]
   8aba0:	34000ec1 	cbz	w1, 8ad78 <EnumerateDevice+0x708>
   8aba4:	39420080 	ldrb	w0, [x4, #128]
   8aba8:	34000e20 	cbz	w0, 8ad6c <EnumerateDevice+0x6fc>
   8abac:	3942b080 	ldrb	w0, [x4, #172]
   8abb0:	34000ee0 	cbz	w0, 8ad8c <EnumerateDevice+0x71c>
   8abb4:	39436080 	ldrb	w0, [x4, #216]
   8abb8:	34000e40 	cbz	w0, 8ad80 <EnumerateDevice+0x710>
   8abbc:	39441080 	ldrb	w0, [x4, #260]
   8abc0:	34000fa0 	cbz	w0, 8adb4 <EnumerateDevice+0x744>
   8abc4:	3944c080 	ldrb	w0, [x4, #304]
   8abc8:	34000f00 	cbz	w0, 8ada8 <EnumerateDevice+0x738>
   8abcc:	39457080 	ldrb	w0, [x4, #348]
   8abd0:	34001020 	cbz	w0, 8add4 <EnumerateDevice+0x764>
   8abd4:	39462080 	ldrb	w0, [x4, #392]
   8abd8:	34000f80 	cbz	w0, 8adc8 <EnumerateDevice+0x758>
   8abdc:	3946d080 	ldrb	w0, [x4, #436]
   8abe0:	34001060 	cbz	w0, 8adec <EnumerateDevice+0x77c>
   8abe4:	39478080 	ldrb	w0, [x4, #480]
   8abe8:	34000fc0 	cbz	w0, 8ade0 <EnumerateDevice+0x770>
   8abec:	39483080 	ldrb	w0, [x4, #524]
   8abf0:	34001040 	cbz	w0, 8adf8 <EnumerateDevice+0x788>
   8abf4:	3948e080 	ldrb	w0, [x4, #568]
   8abf8:	34001060 	cbz	w0, 8ae04 <EnumerateDevice+0x794>
   8abfc:	39499080 	ldrb	w0, [x4, #612]
   8ac00:	340010e0 	cbz	w0, 8ae1c <EnumerateDevice+0x7ac>
   8ac04:	394a4080 	ldrb	w0, [x4, #656]
   8ac08:	34001040 	cbz	w0, 8ae10 <EnumerateDevice+0x7a0>
   8ac0c:	394af080 	ldrb	w0, [x4, #700]
   8ac10:	340010c0 	cbz	w0, 8ae28 <EnumerateDevice+0x7b8>
   8ac14:	128000d4 	mov	w20, #0xfffffff9            	// #-7
   8ac18:	17ffff34 	b	8a8e8 <EnumerateDevice+0x278>
   8ac1c:	38624ac3 	ldrb	w3, [x22, w2, uxtw]
   8ac20:	71000f1f 	cmp	w24, #0x3
   8ac24:	2a0203ef 	mov	w15, w2
   8ac28:	54fff088 	b.hi	8aa38 <EnumerateDevice+0x3c8>  // b.pmore
   8ac2c:	f941fe61 	ldr	x1, [x19, #1016]
   8ac30:	9bb97f05 	umull	x5, w24, w25
   8ac34:	386f6ad0 	ldrb	w16, [x22, x15]
   8ac38:	8b0f02c3 	add	x3, x22, x15
   8ac3c:	8b050020 	add	x0, x1, x5
   8ac40:	38256830 	strb	w16, [x1, x5]
   8ac44:	11000705 	add	w5, w24, #0x1
   8ac48:	39400461 	ldrb	w1, [x3, #1]
   8ac4c:	39000401 	strb	w1, [x0, #1]
   8ac50:	39400861 	ldrb	w1, [x3, #2]
   8ac54:	39000801 	strb	w1, [x0, #2]
   8ac58:	39400c61 	ldrb	w1, [x3, #3]
   8ac5c:	39000c01 	strb	w1, [x0, #3]
   8ac60:	39401061 	ldrb	w1, [x3, #4]
   8ac64:	39001001 	strb	w1, [x0, #4]
   8ac68:	39401461 	ldrb	w1, [x3, #5]
   8ac6c:	39001401 	strb	w1, [x0, #5]
   8ac70:	39401861 	ldrb	w1, [x3, #6]
   8ac74:	39001801 	strb	w1, [x0, #6]
   8ac78:	39401c61 	ldrb	w1, [x3, #7]
   8ac7c:	39001c01 	strb	w1, [x0, #7]
   8ac80:	39402061 	ldrb	w1, [x3, #8]
   8ac84:	39002001 	strb	w1, [x0, #8]
   8ac88:	f941fe60 	ldr	x0, [x19, #1016]
   8ac8c:	39404261 	ldrb	w1, [x19, #16]
   8ac90:	8b380000 	add	x0, x0, w24, uxtb
   8ac94:	51000421 	sub	w1, w1, #0x1
   8ac98:	12001cb8 	and	w24, w5, #0xff
   8ac9c:	39009001 	strb	w1, [x0, #36]
   8aca0:	386f6ac3 	ldrb	w3, [x22, x15]
   8aca4:	794177e5 	ldrh	w5, [sp, #186]
   8aca8:	17ffff64 	b	8aa38 <EnumerateDevice+0x3c8>
   8acac:	b9400780 	ldr	w0, [x28, #4]
   8acb0:	12800074 	mov	w20, #0xfffffffc            	// #-4
   8acb4:	2a0002a0 	orr	w0, w21, w0
   8acb8:	b9000780 	str	w0, [x28, #4]
   8acbc:	17fffefb 	b	8a8a8 <EnumerateDevice+0x238>
   8acc0:	b9400660 	ldr	w0, [x19, #4]
   8acc4:	d2812001 	mov	x1, #0x900                 	// #2304
   8acc8:	b9009bff 	str	wzr, [sp, #152]
   8accc:	9102c3e4 	add	x4, sp, #0xb0
   8acd0:	b90093e0 	str	w0, [sp, #144]
   8acd4:	d2800006 	mov	x6, #0x0                   	// #0
   8acd8:	39026bfa 	strb	w26, [sp, #154]
   8acdc:	52800145 	mov	w5, #0xa                   	// #10
   8ace0:	f9005be1 	str	x1, [sp, #176]
   8ace4:	52800003 	mov	w3, #0x0                   	// #0
   8ace8:	a94907e0 	ldp	x0, x1, [sp, #144]
   8acec:	d2800002 	mov	x2, #0x0                   	// #0
   8acf0:	790167f7 	strh	w23, [sp, #178]
   8acf4:	97fff287 	bl	87710 <HCDSumbitControlMessage>
   8acf8:	2a0003f4 	mov	w20, w0
   8acfc:	35ffdf60 	cbnz	w0, 8a8e8 <EnumerateDevice+0x278>
   8ad00:	394f8260 	ldrb	w0, [x19, #992]
   8ad04:	52800081 	mov	w1, #0x4                   	// #4
   8ad08:	39003277 	strb	w23, [x19, #12]
   8ad0c:	39003a61 	strb	w1, [x19, #14]
   8ad10:	7100241f 	cmp	w0, #0x9
   8ad14:	54000420 	b.eq	8ad98 <EnumerateDevice+0x728>  // b.none
   8ad18:	34ffde98 	cbz	w24, 8a8e8 <EnumerateDevice+0x278>
   8ad1c:	f941fe60 	ldr	x0, [x19, #1016]
   8ad20:	aa1303e1 	mov	x1, x19
   8ad24:	3900a018 	strb	w24, [x0, #40]
   8ad28:	b9400660 	ldr	w0, [x19, #4]
   8ad2c:	97fff709 	bl	88950 <EnumerateHID>
   8ad30:	34ffddc0 	cbz	w0, 8a8e8 <EnumerateDevice+0x278>
   8ad34:	b9400781 	ldr	w1, [x28, #4]
   8ad38:	2a0003f4 	mov	w20, w0
   8ad3c:	2a150020 	orr	w0, w1, w21
   8ad40:	b9000780 	str	w0, [x28, #4]
   8ad44:	17fffed9 	b	8a8a8 <EnumerateDevice+0x238>
   8ad48:	aa0403e1 	mov	x1, x4
   8ad4c:	52800000 	mov	w0, #0x0                   	// #0
   8ad50:	93407c00 	sxtw	x0, w0
   8ad54:	2a0203ef 	mov	w15, w2
   8ad58:	b903f26e 	str	w14, [x19, #1008]
   8ad5c:	f901fe61 	str	x1, [x19, #1016]
   8ad60:	9b0d1000 	madd	x0, x0, x13, x4
   8ad64:	3900a00c 	strb	w12, [x0, #40]
   8ad68:	17ffffb2 	b	8ac30 <EnumerateDevice+0x5c0>
   8ad6c:	91018381 	add	x1, x28, #0x60
   8ad70:	52800040 	mov	w0, #0x2                   	// #2
   8ad74:	17fffff7 	b	8ad50 <EnumerateDevice+0x6e0>
   8ad78:	9100d381 	add	x1, x28, #0x34
   8ad7c:	17fffff5 	b	8ad50 <EnumerateDevice+0x6e0>
   8ad80:	9102e381 	add	x1, x28, #0xb8
   8ad84:	52800080 	mov	w0, #0x4                   	// #4
   8ad88:	17fffff2 	b	8ad50 <EnumerateDevice+0x6e0>
   8ad8c:	91023381 	add	x1, x28, #0x8c
   8ad90:	52800060 	mov	w0, #0x3                   	// #3
   8ad94:	17ffffef 	b	8ad50 <EnumerateDevice+0x6e0>
   8ad98:	aa1303e0 	mov	x0, x19
   8ad9c:	97fffd29 	bl	8a240 <EnumerateHub>
   8ada0:	34ffda40 	cbz	w0, 8a8e8 <EnumerateDevice+0x278>
   8ada4:	17ffffe4 	b	8ad34 <EnumerateDevice+0x6c4>
   8ada8:	91044381 	add	x1, x28, #0x110
   8adac:	528000c0 	mov	w0, #0x6                   	// #6
   8adb0:	17ffffe8 	b	8ad50 <EnumerateDevice+0x6e0>
   8adb4:	91039381 	add	x1, x28, #0xe4
   8adb8:	528000a0 	mov	w0, #0x5                   	// #5
   8adbc:	17ffffe5 	b	8ad50 <EnumerateDevice+0x6e0>
   8adc0:	12800034 	mov	w20, #0xfffffffe            	// #-2
   8adc4:	17fffec9 	b	8a8e8 <EnumerateDevice+0x278>
   8adc8:	9105a381 	add	x1, x28, #0x168
   8adcc:	52800100 	mov	w0, #0x8                   	// #8
   8add0:	17ffffe0 	b	8ad50 <EnumerateDevice+0x6e0>
   8add4:	9104f381 	add	x1, x28, #0x13c
   8add8:	528000e0 	mov	w0, #0x7                   	// #7
   8addc:	17ffffdd 	b	8ad50 <EnumerateDevice+0x6e0>
   8ade0:	91070381 	add	x1, x28, #0x1c0
   8ade4:	52800140 	mov	w0, #0xa                   	// #10
   8ade8:	17ffffda 	b	8ad50 <EnumerateDevice+0x6e0>
   8adec:	91065381 	add	x1, x28, #0x194
   8adf0:	52800120 	mov	w0, #0x9                   	// #9
   8adf4:	17ffffd7 	b	8ad50 <EnumerateDevice+0x6e0>
   8adf8:	9107b381 	add	x1, x28, #0x1ec
   8adfc:	52800160 	mov	w0, #0xb                   	// #11
   8ae00:	17ffffd4 	b	8ad50 <EnumerateDevice+0x6e0>
   8ae04:	91086381 	add	x1, x28, #0x218
   8ae08:	52800180 	mov	w0, #0xc                   	// #12
   8ae0c:	17ffffd1 	b	8ad50 <EnumerateDevice+0x6e0>
   8ae10:	9109c381 	add	x1, x28, #0x270
   8ae14:	528001c0 	mov	w0, #0xe                   	// #14
   8ae18:	17ffffce 	b	8ad50 <EnumerateDevice+0x6e0>
   8ae1c:	91091381 	add	x1, x28, #0x244
   8ae20:	528001a0 	mov	w0, #0xd                   	// #13
   8ae24:	17ffffcb 	b	8ad50 <EnumerateDevice+0x6e0>
   8ae28:	910a7381 	add	x1, x28, #0x29c
   8ae2c:	528001e0 	mov	w0, #0xf                   	// #15
   8ae30:	17ffffc8 	b	8ad50 <EnumerateDevice+0x6e0>
   8ae34:	d503201f 	nop
   8ae38:	d503201f 	nop
   8ae3c:	d503201f 	nop

000000000008ae40 <HubPortConnectionChanged.part.0>:
   8ae40:	a9ba7bfd 	stp	x29, x30, [sp, #-96]!
   8ae44:	910003fd 	mov	x29, sp
   8ae48:	a90153f3 	stp	x19, x20, [sp, #16]
   8ae4c:	aa0003f3 	mov	x19, x0
   8ae50:	b9400400 	ldr	w0, [x0, #4]
   8ae54:	a9025bf5 	stp	x21, x22, [sp, #32]
   8ae58:	12001c36 	and	w22, w1, #0xff
   8ae5c:	910163e2 	add	x2, sp, #0x58
   8ae60:	a90363f7 	stp	x23, x24, [sp, #48]
   8ae64:	110006d7 	add	w23, w22, #0x1
   8ae68:	12001ef8 	and	w24, w23, #0xff
   8ae6c:	f941fe75 	ldr	x21, [x19, #1016]
   8ae70:	2a1803e1 	mov	w1, w24
   8ae74:	97fff34f 	bl	87bb0 <HCDReadHubPortStatus>
   8ae78:	2a0003f4 	mov	w20, w0
   8ae7c:	35000c20 	cbnz	w0, 8b000 <HubPortConnectionChanged.part.0+0x1c0>
   8ae80:	b9400660 	ldr	w0, [x19, #4]
   8ae84:	2a1803e2 	mov	w2, w24
   8ae88:	52800003 	mov	w3, #0x0                   	// #0
   8ae8c:	52800201 	mov	w1, #0x10                  	// #16
   8ae90:	a9046bf9 	stp	x25, x26, [sp, #64]
   8ae94:	97fff3f7 	bl	87e70 <HCDChangeHubPortFeature>
   8ae98:	350009a0 	cbnz	w0, 8afcc <HubPortConnectionChanged.part.0+0x18c>
   8ae9c:	8b360eb5 	add	x21, x21, w22, uxtb #3
   8aea0:	394163e0 	ldrb	w0, [sp, #88]
   8aea4:	12000400 	and	w0, w0, #0x3
   8aea8:	f94006a5 	ldr	x5, [x21, #8]
   8aeac:	34000040 	cbz	w0, 8aeb4 <HubPortConnectionChanged.part.0+0x74>
   8aeb0:	b4000225 	cbz	x5, 8aef4 <HubPortConnectionChanged.part.0+0xb4>
   8aeb4:	aa1303e0 	mov	x0, x19
   8aeb8:	97fff982 	bl	894c0 <UsbGetDescription>
   8aebc:	aa0003e4 	mov	x4, x0
   8aec0:	aa0503e0 	mov	x0, x5
   8aec4:	97fff97f 	bl	894c0 <UsbGetDescription>
   8aec8:	aa0003e3 	mov	x3, x0
   8aecc:	aa0403e1 	mov	x1, x4
   8aed0:	2a1703e2 	mov	w2, w23
   8aed4:	f0000020 	adrp	x0, 91000 <__text_end__+0xc00>
   8aed8:	9101c000 	add	x0, x0, #0x70
   8aedc:	97ffdb1d 	bl	81b50 <printf>
   8aee0:	f94006a0 	ldr	x0, [x21, #8]
   8aee4:	97fff5af 	bl	885a0 <UsbDeallocateDevice>
   8aee8:	f90006bf 	str	xzr, [x21, #8]
   8aeec:	394163e0 	ldrb	w0, [sp, #88]
   8aef0:	36000600 	tbz	w0, #0, 8afb0 <HubPortConnectionChanged.part.0+0x170>
   8aef4:	2a1603e1 	mov	w1, w22
   8aef8:	aa1303e0 	mov	x0, x19
   8aefc:	97fffa19 	bl	89760 <HubPortReset>
   8af00:	2a0003f9 	mov	w25, w0
   8af04:	35000b60 	cbnz	w0, 8b070 <HubPortConnectionChanged.part.0+0x230>
   8af08:	d0000040 	adrp	x0, 94000 <HubTable+0x430>
   8af0c:	910a8000 	add	x0, x0, #0x2a0
   8af10:	aa0003e2 	mov	x2, x0
   8af14:	52800001 	mov	w1, #0x0                   	// #0
   8af18:	14000004 	b	8af28 <HubPortConnectionChanged.part.0+0xe8>
   8af1c:	11000421 	add	w1, w1, #0x1
   8af20:	7100803f 	cmp	w1, #0x20
   8af24:	54000880 	b.eq	8b034 <HubPortConnectionChanged.part.0+0x1f4>  // b.none
   8af28:	b943f043 	ldr	w3, [x2, #1008]
   8af2c:	91100042 	add	x2, x2, #0x400
   8af30:	35ffff63 	cbnz	w3, 8af1c <HubPortConnectionChanged.part.0+0xdc>
   8af34:	93767c25 	sbfiz	x5, x1, #10, #32
   8af38:	11000423 	add	w3, w1, #0x1
   8af3c:	8b050004 	add	x4, x0, x5
   8af40:	f90006a4 	str	x4, [x21, #8]
   8af44:	52801fe6 	mov	w6, #0xff                  	// #255
   8af48:	5280003a 	mov	w26, #0x1                   	// #1
   8af4c:	910163e2 	add	x2, sp, #0x58
   8af50:	2a1803e1 	mov	w1, w24
   8af54:	39001483 	strb	w3, [x4, #5]
   8af58:	3900389f 	strb	wzr, [x4, #14]
   8af5c:	78256806 	strh	w6, [x0, x5]
   8af60:	b903f09a 	str	w26, [x4, #1008]
   8af64:	f901fc9f 	str	xzr, [x4, #1016]
   8af68:	b9400660 	ldr	w0, [x19, #4]
   8af6c:	97fff311 	bl	87bb0 <HCDReadHubPortStatus>
   8af70:	2a0003f9 	mov	w25, w0
   8af74:	35000a60 	cbnz	w0, 8b0c0 <HubPortConnectionChanged.part.0+0x280>
   8af78:	394167e1 	ldrb	w1, [sp, #89]
   8af7c:	f94006a0 	ldr	x0, [x21, #8]
   8af80:	39401662 	ldrb	w2, [x19, #5]
   8af84:	361008a1 	tbz	w1, #2, 8b098 <HubPortConnectionChanged.part.0+0x258>
   8af88:	b9400401 	ldr	w1, [x0, #4]
   8af8c:	121c7421 	and	w1, w1, #0xfffffff3
   8af90:	b9000401 	str	w1, [x0, #4]
   8af94:	39000002 	strb	w2, [x0]
   8af98:	aa1303e1 	mov	x1, x19
   8af9c:	39000416 	strb	w22, [x0, #1]
   8afa0:	2a1603e2 	mov	w2, w22
   8afa4:	97fffdb3 	bl	8a670 <EnumerateDevice>
   8afa8:	2a0003f6 	mov	w22, w0
   8afac:	35000a60 	cbnz	w0, 8b0f8 <HubPortConnectionChanged.part.0+0x2b8>
   8afb0:	a9446bf9 	ldp	x25, x26, [sp, #64]
   8afb4:	2a1403e0 	mov	w0, w20
   8afb8:	a94153f3 	ldp	x19, x20, [sp, #16]
   8afbc:	a9425bf5 	ldp	x21, x22, [sp, #32]
   8afc0:	a94363f7 	ldp	x23, x24, [sp, #48]
   8afc4:	a8c67bfd 	ldp	x29, x30, [sp], #96
   8afc8:	d65f03c0 	ret
   8afcc:	aa1303e0 	mov	x0, x19
   8afd0:	97fff93c 	bl	894c0 <UsbGetDescription>
   8afd4:	2a1703e2 	mov	w2, w23
   8afd8:	aa0003e1 	mov	x1, x0
   8afdc:	8b360eb5 	add	x21, x21, w22, uxtb #3
   8afe0:	f0000020 	adrp	x0, 91000 <__text_end__+0xc00>
   8afe4:	91010000 	add	x0, x0, #0x40
   8afe8:	97ffdada 	bl	81b50 <printf>
   8afec:	394163e0 	ldrb	w0, [sp, #88]
   8aff0:	f94006a5 	ldr	x5, [x21, #8]
   8aff4:	12000400 	and	w0, w0, #0x3
   8aff8:	35fff5c0 	cbnz	w0, 8aeb0 <HubPortConnectionChanged.part.0+0x70>
   8affc:	17ffffae 	b	8aeb4 <HubPortConnectionChanged.part.0+0x74>
   8b000:	aa1303e0 	mov	x0, x19
   8b004:	97fff92f 	bl	894c0 <UsbGetDescription>
   8b008:	2a1703e2 	mov	w2, w23
   8b00c:	aa0003e1 	mov	x1, x0
   8b010:	d0000020 	adrp	x0, 91000 <__text_end__+0xc00>
   8b014:	91002000 	add	x0, x0, #0x8
   8b018:	97ffdace 	bl	81b50 <printf>
   8b01c:	a9425bf5 	ldp	x21, x22, [sp, #32]
   8b020:	2a1403e0 	mov	w0, w20
   8b024:	a94153f3 	ldp	x19, x20, [sp, #16]
   8b028:	a94363f7 	ldp	x23, x24, [sp, #48]
   8b02c:	a8c67bfd 	ldp	x29, x30, [sp], #96
   8b030:	d65f03c0 	ret
   8b034:	aa1303e0 	mov	x0, x19
   8b038:	97fff922 	bl	894c0 <UsbGetDescription>
   8b03c:	2a1703e2 	mov	w2, w23
   8b040:	aa0003e1 	mov	x1, x0
   8b044:	128000d4 	mov	w20, #0xfffffff9            	// #-7
   8b048:	d0000020 	adrp	x0, 91000 <__text_end__+0xc00>
   8b04c:	91032000 	add	x0, x0, #0xc8
   8b050:	97ffdac0 	bl	81b50 <printf>
   8b054:	a9425bf5 	ldp	x21, x22, [sp, #32]
   8b058:	2a1403e0 	mov	w0, w20
   8b05c:	a94153f3 	ldp	x19, x20, [sp, #16]
   8b060:	a94363f7 	ldp	x23, x24, [sp, #48]
   8b064:	a9446bf9 	ldp	x25, x26, [sp, #64]
   8b068:	a8c67bfd 	ldp	x29, x30, [sp], #96
   8b06c:	d65f03c0 	ret
   8b070:	aa1303e0 	mov	x0, x19
   8b074:	97fff913 	bl	894c0 <UsbGetDescription>
   8b078:	2a1703e2 	mov	w2, w23
   8b07c:	aa0003e1 	mov	x1, x0
   8b080:	2a1903f4 	mov	w20, w25
   8b084:	d0000020 	adrp	x0, 91000 <__text_end__+0xc00>
   8b088:	91026000 	add	x0, x0, #0x98
   8b08c:	97ffdab1 	bl	81b50 <printf>
   8b090:	a9446bf9 	ldp	x25, x26, [sp, #64]
   8b094:	17ffffc8 	b	8afb4 <HubPortConnectionChanged.part.0+0x174>
   8b098:	36080281 	tbz	w1, #1, 8b0e8 <HubPortConnectionChanged.part.0+0x2a8>
   8b09c:	b9400403 	ldr	w3, [x0, #4]
   8b0a0:	530e1ac1 	ubfiz	w1, w22, #18, #7
   8b0a4:	321d0021 	orr	w1, w1, #0x8
   8b0a8:	12004463 	and	w3, w3, #0x3ffff
   8b0ac:	2a026421 	orr	w1, w1, w2, lsl #25
   8b0b0:	121c7463 	and	w3, w3, #0xfffffff3
   8b0b4:	2a030021 	orr	w1, w1, w3
   8b0b8:	b9000401 	str	w1, [x0, #4]
   8b0bc:	17ffffb6 	b	8af94 <HubPortConnectionChanged.part.0+0x154>
   8b0c0:	aa1303e0 	mov	x0, x19
   8b0c4:	97fff8ff 	bl	894c0 <UsbGetDescription>
   8b0c8:	2a1703e2 	mov	w2, w23
   8b0cc:	aa0003e1 	mov	x1, x0
   8b0d0:	2a1903f4 	mov	w20, w25
   8b0d4:	d0000020 	adrp	x0, 91000 <__text_end__+0xc00>
   8b0d8:	91042000 	add	x0, x0, #0x108
   8b0dc:	97ffda9d 	bl	81b50 <printf>
   8b0e0:	a9446bf9 	ldp	x25, x26, [sp, #64]
   8b0e4:	17ffffb4 	b	8afb4 <HubPortConnectionChanged.part.0+0x174>
   8b0e8:	b9400401 	ldr	w1, [x0, #4]
   8b0ec:	331e0741 	bfi	w1, w26, #2, #2
   8b0f0:	b9000401 	str	w1, [x0, #4]
   8b0f4:	17ffffa8 	b	8af94 <HubPortConnectionChanged.part.0+0x154>
   8b0f8:	aa1303e0 	mov	x0, x19
   8b0fc:	97fff8f1 	bl	894c0 <UsbGetDescription>
   8b100:	2a1703e2 	mov	w2, w23
   8b104:	aa0003e1 	mov	x1, x0
   8b108:	d0000020 	adrp	x0, 91000 <__text_end__+0xc00>
   8b10c:	91050000 	add	x0, x0, #0x140
   8b110:	97ffda90 	bl	81b50 <printf>
   8b114:	f94006a0 	ldr	x0, [x21, #8]
   8b118:	97fff522 	bl	885a0 <UsbDeallocateDevice>
   8b11c:	b9400660 	ldr	w0, [x19, #4]
   8b120:	2a1803e2 	mov	w2, w24
   8b124:	f90006bf 	str	xzr, [x21, #8]
   8b128:	52800003 	mov	w3, #0x0                   	// #0
   8b12c:	52800021 	mov	w1, #0x1                   	// #1
   8b130:	97fff350 	bl	87e70 <HCDChangeHubPortFeature>
   8b134:	35000080 	cbnz	w0, 8b144 <HubPortConnectionChanged.part.0+0x304>
   8b138:	a9446bf9 	ldp	x25, x26, [sp, #64]
   8b13c:	2a1603f4 	mov	w20, w22
   8b140:	17ffff9d 	b	8afb4 <HubPortConnectionChanged.part.0+0x174>
   8b144:	aa1303e0 	mov	x0, x19
   8b148:	97fff8de 	bl	894c0 <UsbGetDescription>
   8b14c:	2a1703e2 	mov	w2, w23
   8b150:	aa0003e1 	mov	x1, x0
   8b154:	d0000020 	adrp	x0, 91000 <__text_end__+0xc00>
   8b158:	91060000 	add	x0, x0, #0x180
   8b15c:	97ffda7d 	bl	81b50 <printf>
   8b160:	17fffff6 	b	8b138 <HubPortConnectionChanged.part.0+0x2f8>
   8b164:	d503201f 	nop
   8b168:	d503201f 	nop
   8b16c:	d503201f 	nop

000000000008b170 <HubPortConnectionChanged>:
   8b170:	39401402 	ldrb	w2, [x0, #5]
   8b174:	12001c21 	and	w1, w1, #0xff
   8b178:	51000442 	sub	w2, w2, #0x1
   8b17c:	12001c43 	and	w3, w2, #0xff
   8b180:	71007c7f 	cmp	w3, #0x1f
   8b184:	54000108 	b.hi	8b1a4 <HubPortConnectionChanged+0x34>  // b.pmore
   8b188:	93767c42 	sbfiz	x2, x2, #10, #32
   8b18c:	b0000043 	adrp	x3, 94000 <HubTable+0x430>
   8b190:	910a8063 	add	x3, x3, #0x2a0
   8b194:	8b020062 	add	x2, x3, x2
   8b198:	b943f043 	ldr	w3, [x2, #1008]
   8b19c:	7100087f 	cmp	w3, #0x2
   8b1a0:	54000060 	b.eq	8b1ac <HubPortConnectionChanged+0x3c>  // b.none
   8b1a4:	12800060 	mov	w0, #0xfffffffc            	// #-4
   8b1a8:	d65f03c0 	ret
   8b1ac:	f941fc42 	ldr	x2, [x2, #1016]
   8b1b0:	b4ffffa2 	cbz	x2, 8b1a4 <HubPortConnectionChanged+0x34>
   8b1b4:	17ffff23 	b	8ae40 <HubPortConnectionChanged.part.0>
   8b1b8:	d503201f 	nop
   8b1bc:	d503201f 	nop

000000000008b1c0 <UsbAttachRootHub>:
   8b1c0:	a9be7bfd 	stp	x29, x30, [sp, #-32]!
   8b1c4:	910003fd 	mov	x29, sp
   8b1c8:	f9000bf3 	str	x19, [sp, #16]
   8b1cc:	b0000053 	adrp	x19, 94000 <HubTable+0x430>
   8b1d0:	910a8273 	add	x19, x19, #0x2a0
   8b1d4:	b943f263 	ldr	w3, [x19, #1008]
   8b1d8:	350004c3 	cbnz	w3, 8b270 <UsbAttachRootHub+0xb0>
   8b1dc:	aa1303e2 	mov	x2, x19
   8b1e0:	52800001 	mov	w1, #0x0                   	// #0
   8b1e4:	340000e3 	cbz	w3, 8b200 <UsbAttachRootHub+0x40>
   8b1e8:	11000421 	add	w1, w1, #0x1
   8b1ec:	91100042 	add	x2, x2, #0x400
   8b1f0:	7100803f 	cmp	w1, #0x20
   8b1f4:	540001c0 	b.eq	8b22c <UsbAttachRootHub+0x6c>  // b.none
   8b1f8:	b943f043 	ldr	w3, [x2, #1008]
   8b1fc:	35ffff63 	cbnz	w3, 8b1e8 <UsbAttachRootHub+0x28>
   8b200:	93767c22 	sbfiz	x2, x1, #10, #32
   8b204:	11000421 	add	w1, w1, #0x1
   8b208:	8b020260 	add	x0, x19, x2
   8b20c:	52801fe4 	mov	w4, #0xff                  	// #255
   8b210:	52800023 	mov	w3, #0x1                   	// #1
   8b214:	39001401 	strb	w1, [x0, #5]
   8b218:	3900381f 	strb	wzr, [x0, #14]
   8b21c:	78226a64 	strh	w4, [x19, x2]
   8b220:	b903f003 	str	w3, [x0, #1008]
   8b224:	f901fc1f 	str	xzr, [x0, #1016]
   8b228:	b40000a2 	cbz	x2, 8b23c <UsbAttachRootHub+0x7c>
   8b22c:	f9400bf3 	ldr	x19, [sp, #16]
   8b230:	128000a0 	mov	w0, #0xfffffffa            	// #-6
   8b234:	a8c27bfd 	ldp	x29, x30, [sp], #32
   8b238:	d65f03c0 	ret
   8b23c:	39401264 	ldrb	w4, [x19, #4]
   8b240:	aa1303e0 	mov	x0, x19
   8b244:	39003a63 	strb	w3, [x19, #14]
   8b248:	90000041 	adrp	x1, 93000 <_impure_data+0x148>
   8b24c:	121c6c84 	and	w4, w4, #0xfffffff0
   8b250:	52800002 	mov	w2, #0x0                   	// #0
   8b254:	32000884 	orr	w4, w4, #0x7
   8b258:	39001264 	strb	w4, [x19, #4]
   8b25c:	f9400bf3 	ldr	x19, [sp, #16]
   8b260:	3924203f 	strb	wzr, [x1, #2312]
   8b264:	a8c27bfd 	ldp	x29, x30, [sp], #32
   8b268:	d2800001 	mov	x1, #0x0                   	// #0
   8b26c:	17fffd01 	b	8a670 <EnumerateDevice>
   8b270:	aa1303e0 	mov	x0, x19
   8b274:	97fff4cb 	bl	885a0 <UsbDeallocateDevice>
   8b278:	b943f263 	ldr	w3, [x19, #1008]
   8b27c:	17ffffd8 	b	8b1dc <UsbAttachRootHub+0x1c>

000000000008b280 <UsbInitialise>:
   8b280:	a9be7bfd 	stp	x29, x30, [sp, #-32]!
   8b284:	90000040 	adrp	x0, 93000 <_impure_data+0x148>
   8b288:	52801fe1 	mov	w1, #0xff                  	// #255
   8b28c:	910003fd 	mov	x29, sp
   8b290:	b9090c01 	str	w1, [x0, #2316]
   8b294:	f9000bf3 	str	x19, [sp, #16]
   8b298:	97fff372 	bl	88060 <HCDInitialise>
   8b29c:	35000240 	cbnz	w0, 8b2e4 <UsbInitialise+0x64>
   8b2a0:	97ffed0c 	bl	866d0 <HCDStart>
   8b2a4:	2a0003f3 	mov	w19, w0
   8b2a8:	35000100 	cbnz	w0, 8b2c8 <UsbInitialise+0x48>
   8b2ac:	97ffffc5 	bl	8b1c0 <UsbAttachRootHub>
   8b2b0:	2a0003f3 	mov	w19, w0
   8b2b4:	35000280 	cbnz	w0, 8b304 <UsbInitialise+0x84>
   8b2b8:	2a1303e0 	mov	w0, w19
   8b2bc:	f9400bf3 	ldr	x19, [sp, #16]
   8b2c0:	a8c27bfd 	ldp	x29, x30, [sp], #32
   8b2c4:	d65f03c0 	ret
   8b2c8:	d0000020 	adrp	x0, 91000 <__text_end__+0xc00>
   8b2cc:	91074000 	add	x0, x0, #0x1d0
   8b2d0:	97ffda20 	bl	81b50 <printf>
   8b2d4:	2a1303e0 	mov	w0, w19
   8b2d8:	f9400bf3 	ldr	x19, [sp, #16]
   8b2dc:	a8c27bfd 	ldp	x29, x30, [sp], #32
   8b2e0:	d65f03c0 	ret
   8b2e4:	2a0003f3 	mov	w19, w0
   8b2e8:	d0000020 	adrp	x0, 91000 <__text_end__+0xc00>
   8b2ec:	9106a000 	add	x0, x0, #0x1a8
   8b2f0:	97ffda18 	bl	81b50 <printf>
   8b2f4:	2a1303e0 	mov	w0, w19
   8b2f8:	f9400bf3 	ldr	x19, [sp, #16]
   8b2fc:	a8c27bfd 	ldp	x29, x30, [sp], #32
   8b300:	d65f03c0 	ret
   8b304:	d0000020 	adrp	x0, 91000 <__text_end__+0xc00>
   8b308:	9107e000 	add	x0, x0, #0x1f8
   8b30c:	97ffda11 	bl	81b50 <printf>
   8b310:	17ffffea 	b	8b2b8 <UsbInitialise+0x38>
   8b314:	d503201f 	nop
   8b318:	d503201f 	nop
   8b31c:	d503201f 	nop

000000000008b320 <HubCheckConnection>:
   8b320:	a9ba7bfd 	stp	x29, x30, [sp, #-96]!
   8b324:	910003fd 	mov	x29, sp
   8b328:	a9025bf5 	stp	x21, x22, [sp, #32]
   8b32c:	12001c36 	and	w22, w1, #0xff
   8b330:	39401401 	ldrb	w1, [x0, #5]
   8b334:	a90153f3 	stp	x19, x20, [sp, #16]
   8b338:	aa0003f3 	mov	x19, x0
   8b33c:	51000421 	sub	w1, w1, #0x1
   8b340:	12001c20 	and	w0, w1, #0xff
   8b344:	12800074 	mov	w20, #0xfffffffc            	// #-4
   8b348:	71007c1f 	cmp	w0, #0x1f
   8b34c:	54000128 	b.hi	8b370 <HubCheckConnection+0x50>  // b.pmore
   8b350:	b0000040 	adrp	x0, 94000 <HubTable+0x430>
   8b354:	910a8015 	add	x21, x0, #0x2a0
   8b358:	93767c21 	sbfiz	x1, x1, #10, #32
   8b35c:	12800074 	mov	w20, #0xfffffffc            	// #-4
   8b360:	8b0102a1 	add	x1, x21, x1
   8b364:	b943f020 	ldr	w0, [x1, #1008]
   8b368:	7100081f 	cmp	w0, #0x2
   8b36c:	540000c0 	b.eq	8b384 <HubCheckConnection+0x64>  // b.none
   8b370:	a9425bf5 	ldp	x21, x22, [sp, #32]
   8b374:	2a1403e0 	mov	w0, w20
   8b378:	a94153f3 	ldp	x19, x20, [sp, #16]
   8b37c:	a8c67bfd 	ldp	x29, x30, [sp], #96
   8b380:	d65f03c0 	ret
   8b384:	f941fc20 	ldr	x0, [x1, #1016]
   8b388:	a90363f7 	stp	x23, x24, [sp, #48]
   8b38c:	f90023f9 	str	x25, [sp, #64]
   8b390:	b4000240 	cbz	x0, 8b3d8 <HubCheckConnection+0xb8>
   8b394:	b9400660 	ldr	w0, [x19, #4]
   8b398:	110006d8 	add	w24, w22, #0x1
   8b39c:	12001f17 	and	w23, w24, #0xff
   8b3a0:	910163e2 	add	x2, sp, #0x58
   8b3a4:	f941fe79 	ldr	x25, [x19, #1016]
   8b3a8:	2a1703e1 	mov	w1, w23
   8b3ac:	97fff201 	bl	87bb0 <HCDReadHubPortStatus>
   8b3b0:	2a0003f4 	mov	w20, w0
   8b3b4:	35000be0 	cbnz	w0, 8b530 <HubCheckConnection+0x210>
   8b3b8:	39416be0 	ldrb	w0, [sp, #90]
   8b3bc:	37000660 	tbnz	w0, #0, 8b488 <HubCheckConnection+0x168>
   8b3c0:	370801a0 	tbnz	w0, #1, 8b3f4 <HubCheckConnection+0xd4>
   8b3c4:	394163e0 	ldrb	w0, [sp, #88]
   8b3c8:	37100cc0 	tbnz	w0, #2, 8b560 <HubCheckConnection+0x240>
   8b3cc:	39416be0 	ldrb	w0, [sp, #90]
   8b3d0:	37180800 	tbnz	w0, #3, 8b4d0 <HubCheckConnection+0x1b0>
   8b3d4:	372008e0 	tbnz	w0, #4, 8b4f0 <HubCheckConnection+0x1d0>
   8b3d8:	a9425bf5 	ldp	x21, x22, [sp, #32]
   8b3dc:	2a1403e0 	mov	w0, w20
   8b3e0:	a94153f3 	ldp	x19, x20, [sp, #16]
   8b3e4:	a94363f7 	ldp	x23, x24, [sp, #48]
   8b3e8:	f94023f9 	ldr	x25, [sp, #64]
   8b3ec:	a8c67bfd 	ldp	x29, x30, [sp], #96
   8b3f0:	d65f03c0 	ret
   8b3f4:	b9400660 	ldr	w0, [x19, #4]
   8b3f8:	2a1703e2 	mov	w2, w23
   8b3fc:	52800003 	mov	w3, #0x0                   	// #0
   8b400:	52800221 	mov	w1, #0x11                  	// #17
   8b404:	97fff29b 	bl	87e70 <HCDChangeHubPortFeature>
   8b408:	35000da0 	cbnz	w0, 8b5bc <HubCheckConnection+0x29c>
   8b40c:	394163e0 	ldrb	w0, [sp, #88]
   8b410:	12000401 	and	w1, w0, #0x3
   8b414:	7100043f 	cmp	w1, #0x1
   8b418:	54fffd81 	b.ne	8b3c8 <HubCheckConnection+0xa8>  // b.any
   8b41c:	8b360f39 	add	x25, x25, w22, uxtb #3
   8b420:	f9400721 	ldr	x1, [x25, #8]
   8b424:	b4fffd21 	cbz	x1, 8b3c8 <HubCheckConnection+0xa8>
   8b428:	aa1303e0 	mov	x0, x19
   8b42c:	97fff825 	bl	894c0 <UsbGetDescription>
   8b430:	2a1803e2 	mov	w2, w24
   8b434:	aa0003e1 	mov	x1, x0
   8b438:	b0000020 	adrp	x0, 90000 <__sflush_r+0x40>
   8b43c:	91376000 	add	x0, x0, #0xdd8
   8b440:	97ffd9c4 	bl	81b50 <printf>
   8b444:	39401660 	ldrb	w0, [x19, #5]
   8b448:	51000400 	sub	w0, w0, #0x1
   8b44c:	12001c01 	and	w1, w0, #0xff
   8b450:	71007c3f 	cmp	w1, #0x1f
   8b454:	54fffb88 	b.hi	8b3c4 <HubCheckConnection+0xa4>  // b.pmore
   8b458:	93767c00 	sbfiz	x0, x0, #10, #32
   8b45c:	8b0002a0 	add	x0, x21, x0
   8b460:	b943f001 	ldr	w1, [x0, #1008]
   8b464:	7100083f 	cmp	w1, #0x2
   8b468:	54fffae1 	b.ne	8b3c4 <HubCheckConnection+0xa4>  // b.any
   8b46c:	f941fc00 	ldr	x0, [x0, #1016]
   8b470:	b4fffaa0 	cbz	x0, 8b3c4 <HubCheckConnection+0xa4>
   8b474:	2a1603e1 	mov	w1, w22
   8b478:	aa1303e0 	mov	x0, x19
   8b47c:	97fffe71 	bl	8ae40 <HubPortConnectionChanged.part.0>
   8b480:	394163e0 	ldrb	w0, [sp, #88]
   8b484:	17ffffd1 	b	8b3c8 <HubCheckConnection+0xa8>
   8b488:	39401661 	ldrb	w1, [x19, #5]
   8b48c:	51000421 	sub	w1, w1, #0x1
   8b490:	12001c22 	and	w2, w1, #0xff
   8b494:	71007c5f 	cmp	w2, #0x1f
   8b498:	54fff948 	b.hi	8b3c0 <HubCheckConnection+0xa0>  // b.pmore
   8b49c:	93767c21 	sbfiz	x1, x1, #10, #32
   8b4a0:	8b0102a1 	add	x1, x21, x1
   8b4a4:	b943f022 	ldr	w2, [x1, #1008]
   8b4a8:	7100085f 	cmp	w2, #0x2
   8b4ac:	54fff8a1 	b.ne	8b3c0 <HubCheckConnection+0xa0>  // b.any
   8b4b0:	f941fc21 	ldr	x1, [x1, #1016]
   8b4b4:	b4fff861 	cbz	x1, 8b3c0 <HubCheckConnection+0xa0>
   8b4b8:	2a1603e1 	mov	w1, w22
   8b4bc:	aa1303e0 	mov	x0, x19
   8b4c0:	97fffe60 	bl	8ae40 <HubPortConnectionChanged.part.0>
   8b4c4:	39416be0 	ldrb	w0, [sp, #90]
   8b4c8:	360ff7e0 	tbz	w0, #1, 8b3c4 <HubCheckConnection+0xa4>
   8b4cc:	17ffffca 	b	8b3f4 <HubCheckConnection+0xd4>
   8b4d0:	b9400660 	ldr	w0, [x19, #4]
   8b4d4:	2a1703e2 	mov	w2, w23
   8b4d8:	52800003 	mov	w3, #0x0                   	// #0
   8b4dc:	52800261 	mov	w1, #0x13                  	// #19
   8b4e0:	97fff264 	bl	87e70 <HCDChangeHubPortFeature>
   8b4e4:	350005a0 	cbnz	w0, 8b598 <HubCheckConnection+0x278>
   8b4e8:	39416be0 	ldrb	w0, [sp, #90]
   8b4ec:	3627f760 	tbz	w0, #4, 8b3d8 <HubCheckConnection+0xb8>
   8b4f0:	b9400660 	ldr	w0, [x19, #4]
   8b4f4:	2a1703e2 	mov	w2, w23
   8b4f8:	52800003 	mov	w3, #0x0                   	// #0
   8b4fc:	52800281 	mov	w1, #0x14                  	// #20
   8b500:	97fff25c 	bl	87e70 <HCDChangeHubPortFeature>
   8b504:	34fff6a0 	cbz	w0, 8b3d8 <HubCheckConnection+0xb8>
   8b508:	aa1303e0 	mov	x0, x19
   8b50c:	97fff7ed 	bl	894c0 <UsbGetDescription>
   8b510:	2a1803e2 	mov	w2, w24
   8b514:	aa0003e1 	mov	x1, x0
   8b518:	b0000020 	adrp	x0, 90000 <__sflush_r+0x40>
   8b51c:	913ac000 	add	x0, x0, #0xeb0
   8b520:	97ffd98c 	bl	81b50 <printf>
   8b524:	a94363f7 	ldp	x23, x24, [sp, #48]
   8b528:	f94023f9 	ldr	x25, [sp, #64]
   8b52c:	17ffff91 	b	8b370 <HubCheckConnection+0x50>
   8b530:	31002c1f 	cmn	w0, #0xb
   8b534:	54fff520 	b.eq	8b3d8 <HubCheckConnection+0xb8>  // b.none
   8b538:	aa1303e0 	mov	x0, x19
   8b53c:	97fff7e1 	bl	894c0 <UsbGetDescription>
   8b540:	2a1803e2 	mov	w2, w24
   8b544:	aa0003e1 	mov	x1, x0
   8b548:	b0000020 	adrp	x0, 90000 <__sflush_r+0x40>
   8b54c:	9135c000 	add	x0, x0, #0xd70
   8b550:	97ffd980 	bl	81b50 <printf>
   8b554:	a94363f7 	ldp	x23, x24, [sp, #48]
   8b558:	f94023f9 	ldr	x25, [sp, #64]
   8b55c:	17ffff85 	b	8b370 <HubCheckConnection+0x50>
   8b560:	b9400660 	ldr	w0, [x19, #4]
   8b564:	2a1703e2 	mov	w2, w23
   8b568:	52800003 	mov	w3, #0x0                   	// #0
   8b56c:	52800041 	mov	w1, #0x2                   	// #2
   8b570:	97fff240 	bl	87e70 <HCDChangeHubPortFeature>
   8b574:	34fff2c0 	cbz	w0, 8b3cc <HubCheckConnection+0xac>
   8b578:	aa1303e0 	mov	x0, x19
   8b57c:	97fff7d1 	bl	894c0 <UsbGetDescription>
   8b580:	2a1803e2 	mov	w2, w24
   8b584:	aa0003e1 	mov	x1, x0
   8b588:	b0000020 	adrp	x0, 90000 <__sflush_r+0x40>
   8b58c:	91390000 	add	x0, x0, #0xe40
   8b590:	97ffd970 	bl	81b50 <printf>
   8b594:	17ffff8e 	b	8b3cc <HubCheckConnection+0xac>
   8b598:	aa1303e0 	mov	x0, x19
   8b59c:	97fff7c9 	bl	894c0 <UsbGetDescription>
   8b5a0:	2a1803e2 	mov	w2, w24
   8b5a4:	aa0003e1 	mov	x1, x0
   8b5a8:	b0000020 	adrp	x0, 90000 <__sflush_r+0x40>
   8b5ac:	9139e000 	add	x0, x0, #0xe78
   8b5b0:	97ffd968 	bl	81b50 <printf>
   8b5b4:	39416be0 	ldrb	w0, [sp, #90]
   8b5b8:	17ffffcd 	b	8b4ec <HubCheckConnection+0x1cc>
   8b5bc:	aa1303e0 	mov	x0, x19
   8b5c0:	97fff7c0 	bl	894c0 <UsbGetDescription>
   8b5c4:	2a1803e2 	mov	w2, w24
   8b5c8:	aa0003e1 	mov	x1, x0
   8b5cc:	b0000020 	adrp	x0, 90000 <__sflush_r+0x40>
   8b5d0:	9136a000 	add	x0, x0, #0xda8
   8b5d4:	97ffd95f 	bl	81b50 <printf>
   8b5d8:	17ffff8d 	b	8b40c <HubCheckConnection+0xec>
   8b5dc:	d503201f 	nop

000000000008b5e0 <UsbShowTree>:
   8b5e0:	a9bb7bfd 	stp	x29, x30, [sp, #-80]!
   8b5e4:	7100043f 	cmp	w1, #0x1
   8b5e8:	910003fd 	mov	x29, sp
   8b5ec:	a90153f3 	stp	x19, x20, [sp, #16]
   8b5f0:	a9025bf5 	stp	x21, x22, [sp, #32]
   8b5f4:	2a0103f6 	mov	w22, w1
   8b5f8:	aa0003f5 	mov	x21, x0
   8b5fc:	a90363f7 	stp	x23, x24, [sp, #48]
   8b600:	12001c57 	and	w23, w2, #0xff
   8b604:	a9046bf9 	stp	x25, x26, [sp, #64]
   8b608:	5400032d 	b.le	8b66c <UsbShowTree+0x8c>
   8b60c:	51000834 	sub	w20, w1, #0x2
   8b610:	90000053 	adrp	x19, 93000 <_impure_data+0x148>
   8b614:	91242273 	add	x19, x19, #0x908
   8b618:	d0000039 	adrp	x25, 91000 <__text_end__+0xc00>
   8b61c:	9108e339 	add	x25, x25, #0x238
   8b620:	91253260 	add	x0, x19, #0x94c
   8b624:	d0000038 	adrp	x24, 91000 <__text_end__+0xc00>
   8b628:	9108c318 	add	x24, x24, #0x230
   8b62c:	91252273 	add	x19, x19, #0x948
   8b630:	8b344814 	add	x20, x0, w20, uxtw #2
   8b634:	14000005 	b	8b648 <UsbShowTree+0x68>
   8b638:	91001273 	add	x19, x19, #0x4
   8b63c:	97ffd945 	bl	81b50 <printf>
   8b640:	eb14027f 	cmp	x19, x20
   8b644:	54000140 	b.eq	8b66c <UsbShowTree+0x8c>  // b.none
   8b648:	b9400262 	ldr	w2, [x19]
   8b64c:	aa1803e0 	mov	x0, x24
   8b650:	52801661 	mov	w1, #0xb3                  	// #179
   8b654:	34ffff22 	cbz	w2, 8b638 <UsbShowTree+0x58>
   8b658:	aa1903e0 	mov	x0, x25
   8b65c:	91001273 	add	x19, x19, #0x4
   8b660:	97ffd93c 	bl	81b50 <printf>
   8b664:	eb14027f 	cmp	x19, x20
   8b668:	54ffff01 	b.ne	8b648 <UsbShowTree+0x68>  // b.any
   8b66c:	f94002a5 	ldr	x5, [x21]
   8b670:	52800106 	mov	w6, #0x8                   	// #8
   8b674:	d36084a0 	ubfx	x0, x5, #32, #2
   8b678:	34000100 	cbz	w0, 8b698 <UsbShowTree+0xb8>
   8b67c:	7100041f 	cmp	w0, #0x1
   8b680:	52800206 	mov	w6, #0x10                  	// #16
   8b684:	540000a0 	b.eq	8b698 <UsbShowTree+0xb8>  // b.none
   8b688:	7100081f 	cmp	w0, #0x2
   8b68c:	52800806 	mov	w6, #0x40                  	// #64
   8b690:	52800400 	mov	w0, #0x20                  	// #32
   8b694:	1a8010c6 	csel	w6, w6, w0, ne	// ne = any
   8b698:	aa1503e0 	mov	x0, x21
   8b69c:	97fff789 	bl	894c0 <UsbGetDescription>
   8b6a0:	394016a3 	ldrb	w3, [x21, #5]
   8b6a4:	f0000021 	adrp	x1, 92000 <BitFont+0xbc0>
   8b6a8:	912ca021 	add	x1, x1, #0xb28
   8b6ac:	d3628ca5 	ubfx	x5, x5, #34, #2
   8b6b0:	9102a021 	add	x1, x1, #0xa8
   8b6b4:	51000467 	sub	w7, w3, #0x1
   8b6b8:	aa0003e2 	mov	x2, x0
   8b6bc:	12001ce0 	and	w0, w7, #0xff
   8b6c0:	394006a4 	ldrb	w4, [x21, #1]
   8b6c4:	71007c1f 	cmp	w0, #0x1f
   8b6c8:	f8657825 	ldr	x5, [x1, x5, lsl #3]
   8b6cc:	54000408 	b.hi	8b74c <UsbShowTree+0x16c>  // b.pmore
   8b6d0:	93767ce0 	sbfiz	x0, x7, #10, #32
   8b6d4:	b0000041 	adrp	x1, 94000 <HubTable+0x430>
   8b6d8:	910a8021 	add	x1, x1, #0x2a0
   8b6dc:	b0000027 	adrp	x7, 90000 <__sflush_r+0x40>
   8b6e0:	912520e7 	add	x7, x7, #0x948
   8b6e4:	8b000020 	add	x0, x1, x0
   8b6e8:	b943f001 	ldr	w1, [x0, #1008]
   8b6ec:	71000c3f 	cmp	w1, #0x3
   8b6f0:	54000e00 	b.eq	8b8b0 <UsbShowTree+0x2d0>  // b.none
   8b6f4:	2a1703e1 	mov	w1, w23
   8b6f8:	d0000020 	adrp	x0, 91000 <__text_end__+0xc00>
   8b6fc:	91090000 	add	x0, x0, #0x240
   8b700:	97ffd914 	bl	81b50 <printf>
   8b704:	394016a0 	ldrb	w0, [x21, #5]
   8b708:	51000400 	sub	w0, w0, #0x1
   8b70c:	12001c01 	and	w1, w0, #0xff
   8b710:	71007c3f 	cmp	w1, #0x1f
   8b714:	54000108 	b.hi	8b734 <UsbShowTree+0x154>  // b.pmore
   8b718:	93767c00 	sbfiz	x0, x0, #10, #32
   8b71c:	b0000041 	adrp	x1, 94000 <HubTable+0x430>
   8b720:	910a8021 	add	x1, x1, #0x2a0
   8b724:	8b000020 	add	x0, x1, x0
   8b728:	b943f001 	ldr	w1, [x0, #1008]
   8b72c:	7100083f 	cmp	w1, #0x2
   8b730:	54000140 	b.eq	8b758 <UsbShowTree+0x178>  // b.none
   8b734:	a94153f3 	ldp	x19, x20, [sp, #16]
   8b738:	a9425bf5 	ldp	x21, x22, [sp, #32]
   8b73c:	a94363f7 	ldp	x23, x24, [sp, #48]
   8b740:	a9446bf9 	ldp	x25, x26, [sp, #64]
   8b744:	a8c57bfd 	ldp	x29, x30, [sp], #80
   8b748:	d65f03c0 	ret
   8b74c:	b0000027 	adrp	x7, 90000 <__sflush_r+0x40>
   8b750:	912520e7 	add	x7, x7, #0x948
   8b754:	17ffffe8 	b	8b6f4 <UsbShowTree+0x114>
   8b758:	f941fc00 	ldr	x0, [x0, #1016]
   8b75c:	b4fffec0 	cbz	x0, 8b734 <UsbShowTree+0x154>
   8b760:	f941fea1 	ldr	x1, [x21, #1016]
   8b764:	b9400039 	ldr	w25, [x1]
   8b768:	7100033f 	cmp	w25, #0x0
   8b76c:	54fffe4d 	b.le	8b734 <UsbShowTree+0x154>
   8b770:	90000053 	adrp	x19, 93000 <_impure_data+0x148>
   8b774:	91242273 	add	x19, x19, #0x908
   8b778:	93407eda 	sxtw	x26, w22
   8b77c:	91252273 	add	x19, x19, #0x948
   8b780:	51000737 	sub	w23, w25, #0x1
   8b784:	110006d6 	add	w22, w22, #0x1
   8b788:	52800003 	mov	w3, #0x0                   	// #0
   8b78c:	52800034 	mov	w20, #0x1                   	// #1
   8b790:	6b17007f 	cmp	w3, w23
   8b794:	54000aea 	b.ge	8b8f0 <UsbShowTree+0x310>  // b.tcont
   8b798:	11000478 	add	w24, w3, #0x1
   8b79c:	8b38cc20 	add	x0, x1, w24, sxtw #3
   8b7a0:	f9400400 	ldr	x0, [x0, #8]
   8b7a4:	b5000920 	cbnz	x0, 8b8c8 <UsbShowTree+0x2e8>
   8b7a8:	6b17031f 	cmp	w24, w23
   8b7ac:	540006aa 	b.ge	8b880 <UsbShowTree+0x2a0>  // b.tcont
   8b7b0:	11000860 	add	w0, w3, #0x2
   8b7b4:	8b20cc22 	add	x2, x1, w0, sxtw #3
   8b7b8:	f9400442 	ldr	x2, [x2, #8]
   8b7bc:	b5000862 	cbnz	x2, 8b8c8 <UsbShowTree+0x2e8>
   8b7c0:	6b17001f 	cmp	w0, w23
   8b7c4:	540005ea 	b.ge	8b880 <UsbShowTree+0x2a0>  // b.tcont
   8b7c8:	11000c60 	add	w0, w3, #0x3
   8b7cc:	8b20cc22 	add	x2, x1, w0, sxtw #3
   8b7d0:	f9400442 	ldr	x2, [x2, #8]
   8b7d4:	b50007a2 	cbnz	x2, 8b8c8 <UsbShowTree+0x2e8>
   8b7d8:	6b17001f 	cmp	w0, w23
   8b7dc:	5400052a 	b.ge	8b880 <UsbShowTree+0x2a0>  // b.tcont
   8b7e0:	11001060 	add	w0, w3, #0x4
   8b7e4:	8b20cc22 	add	x2, x1, w0, sxtw #3
   8b7e8:	f9400442 	ldr	x2, [x2, #8]
   8b7ec:	b50006e2 	cbnz	x2, 8b8c8 <UsbShowTree+0x2e8>
   8b7f0:	6b17001f 	cmp	w0, w23
   8b7f4:	5400046a 	b.ge	8b880 <UsbShowTree+0x2a0>  // b.tcont
   8b7f8:	11001460 	add	w0, w3, #0x5
   8b7fc:	8b20cc22 	add	x2, x1, w0, sxtw #3
   8b800:	f9400442 	ldr	x2, [x2, #8]
   8b804:	b5000622 	cbnz	x2, 8b8c8 <UsbShowTree+0x2e8>
   8b808:	6b17001f 	cmp	w0, w23
   8b80c:	540003aa 	b.ge	8b880 <UsbShowTree+0x2a0>  // b.tcont
   8b810:	11001860 	add	w0, w3, #0x6
   8b814:	8b20cc22 	add	x2, x1, w0, sxtw #3
   8b818:	f9400442 	ldr	x2, [x2, #8]
   8b81c:	b5000562 	cbnz	x2, 8b8c8 <UsbShowTree+0x2e8>
   8b820:	6b17001f 	cmp	w0, w23
   8b824:	540002ea 	b.ge	8b880 <UsbShowTree+0x2a0>  // b.tcont
   8b828:	11001c60 	add	w0, w3, #0x7
   8b82c:	8b20cc22 	add	x2, x1, w0, sxtw #3
   8b830:	f9400442 	ldr	x2, [x2, #8]
   8b834:	b50004a2 	cbnz	x2, 8b8c8 <UsbShowTree+0x2e8>
   8b838:	6b17001f 	cmp	w0, w23
   8b83c:	5400022a 	b.ge	8b880 <UsbShowTree+0x2a0>  // b.tcont
   8b840:	11002060 	add	w0, w3, #0x8
   8b844:	8b20cc22 	add	x2, x1, w0, sxtw #3
   8b848:	f9400442 	ldr	x2, [x2, #8]
   8b84c:	b50003e2 	cbnz	x2, 8b8c8 <UsbShowTree+0x2e8>
   8b850:	6b17001f 	cmp	w0, w23
   8b854:	5400016a 	b.ge	8b880 <UsbShowTree+0x2a0>  // b.tcont
   8b858:	11002460 	add	w0, w3, #0x9
   8b85c:	8b20cc22 	add	x2, x1, w0, sxtw #3
   8b860:	f9400442 	ldr	x2, [x2, #8]
   8b864:	b5000322 	cbnz	x2, 8b8c8 <UsbShowTree+0x2e8>
   8b868:	6b17001f 	cmp	w0, w23
   8b86c:	540000aa 	b.ge	8b880 <UsbShowTree+0x2a0>  // b.tcont
   8b870:	11002860 	add	w0, w3, #0xa
   8b874:	8b20cc20 	add	x0, x1, w0, sxtw #3
   8b878:	f9400400 	ldr	x0, [x0, #8]
   8b87c:	b5000260 	cbnz	x0, 8b8c8 <UsbShowTree+0x2e8>
   8b880:	52801802 	mov	w2, #0xc0                  	// #192
   8b884:	8b23cc23 	add	x3, x1, w3, sxtw #3
   8b888:	f9400460 	ldr	x0, [x3, #8]
   8b88c:	b4000280 	cbz	x0, 8b8dc <UsbShowTree+0x2fc>
   8b890:	2a1603e1 	mov	w1, w22
   8b894:	97ffff53 	bl	8b5e0 <UsbShowTree>
   8b898:	b83a7a7f 	str	wzr, [x19, x26, lsl #2]
   8b89c:	2a1803e3 	mov	w3, w24
   8b8a0:	6b19031f 	cmp	w24, w25
   8b8a4:	54fff480 	b.eq	8b734 <UsbShowTree+0x154>  // b.none
   8b8a8:	f941fea1 	ldr	x1, [x21, #1016]
   8b8ac:	17ffffb9 	b	8b790 <UsbShowTree+0x1b0>
   8b8b0:	f941fc01 	ldr	x1, [x0, #1016]
   8b8b4:	d0000020 	adrp	x0, 91000 <__text_end__+0xc00>
   8b8b8:	91088000 	add	x0, x0, #0x220
   8b8bc:	f100003f 	cmp	x1, #0x0
   8b8c0:	9a871007 	csel	x7, x0, x7, ne	// ne = any
   8b8c4:	17ffff8c 	b	8b6f4 <UsbShowTree+0x114>
   8b8c8:	8b23cc23 	add	x3, x1, w3, sxtw #3
   8b8cc:	b83a7a74 	str	w20, [x19, x26, lsl #2]
   8b8d0:	52801862 	mov	w2, #0xc3                  	// #195
   8b8d4:	f9400460 	ldr	x0, [x3, #8]
   8b8d8:	b5fffdc0 	cbnz	x0, 8b890 <UsbShowTree+0x2b0>
   8b8dc:	b83a7a7f 	str	wzr, [x19, x26, lsl #2]
   8b8e0:	2a1803e3 	mov	w3, w24
   8b8e4:	6b18033f 	cmp	w25, w24
   8b8e8:	54fff541 	b.ne	8b790 <UsbShowTree+0x1b0>  // b.any
   8b8ec:	17ffff92 	b	8b734 <UsbShowTree+0x154>
   8b8f0:	11000478 	add	w24, w3, #0x1
   8b8f4:	52801802 	mov	w2, #0xc0                  	// #192
   8b8f8:	17ffffe3 	b	8b884 <UsbShowTree+0x2a4>
   8b8fc:	d503201f 	nop

000000000008b900 <HIDReadDescriptor>:
   8b900:	12003c63 	and	w3, w3, #0xffff
   8b904:	f100005f 	cmp	x2, #0x0
   8b908:	7a401864 	ccmp	w3, #0x0, #0x4, ne	// ne = any
   8b90c:	54000ea0 	b.eq	8bae0 <HIDReadDescriptor+0x1e0>  // b.none
   8b910:	12001c00 	and	w0, w0, #0xff
   8b914:	51000400 	sub	w0, w0, #0x1
   8b918:	12001c03 	and	w3, w0, #0xff
   8b91c:	71007c7f 	cmp	w3, #0x1f
   8b920:	54000e48 	b.hi	8bae8 <HIDReadDescriptor+0x1e8>  // b.pmore
   8b924:	a9b97bfd 	stp	x29, x30, [sp, #-112]!
   8b928:	93767c06 	sbfiz	x6, x0, #10, #32
   8b92c:	910003fd 	mov	x29, sp
   8b930:	a90363f7 	stp	x23, x24, [sp, #48]
   8b934:	b0000058 	adrp	x24, 94000 <HubTable+0x430>
   8b938:	910a8318 	add	x24, x24, #0x2a0
   8b93c:	8b060308 	add	x8, x24, x6
   8b940:	a9025bf5 	stp	x21, x22, [sp, #32]
   8b944:	93407c16 	sxtw	x22, w0
   8b948:	b943f100 	ldr	w0, [x8, #1008]
   8b94c:	34000d20 	cbz	w0, 8baf0 <HIDReadDescriptor+0x1f0>
   8b950:	71000c1f 	cmp	w0, #0x3
   8b954:	54000be1 	b.ne	8bad0 <HIDReadDescriptor+0x1d0>  // b.any
   8b958:	f941fd00 	ldr	x0, [x8, #1016]
   8b95c:	b4000ba0 	cbz	x0, 8bad0 <HIDReadDescriptor+0x1d0>
   8b960:	3940a003 	ldrb	w3, [x0, #40]
   8b964:	12001c21 	and	w1, w1, #0xff
   8b968:	6b01007f 	cmp	w3, w1
   8b96c:	54000b63 	b.cc	8bad8 <HIDReadDescriptor+0x1d8>  // b.lo, b.ul, b.last
   8b970:	52800123 	mov	w3, #0x9                   	// #9
   8b974:	8b210007 	add	x7, x0, w1, uxtb
   8b978:	a90153f3 	stp	x19, x20, [sp, #16]
   8b97c:	90000053 	adrp	x19, 93000 <_impure_data+0x148>
   8b980:	91242273 	add	x19, x19, #0x908
   8b984:	9ba30020 	umaddl	x0, w1, w3, x0
   8b988:	91001309 	add	x9, x24, #0x4
   8b98c:	117ffc65 	add	w5, w3, #0xfff, lsl #12
   8b990:	93407c35 	sxtw	x21, w1
   8b994:	b9400663 	ldr	w3, [x19, #4]
   8b998:	113fdca5 	add	w5, w5, #0xff7
   8b99c:	b866692b 	ldr	w11, [x9, x6]
   8b9a0:	528003e4 	mov	w4, #0x1f                  	// #31
   8b9a4:	39401c01 	ldrb	w1, [x0, #7]
   8b9a8:	5ac01069 	clz	w9, w3
   8b9ac:	39402006 	ldrb	w6, [x0, #8]
   8b9b0:	4b090080 	sub	w0, w4, w9
   8b9b4:	f90023f9 	str	x25, [sp, #64]
   8b9b8:	52800037 	mov	w23, #0x1                   	// #1
   8b9bc:	39015be6 	strb	w6, [sp, #86]
   8b9c0:	1ac022f7 	lsl	w23, w23, w0
   8b9c4:	394090e9 	ldrb	w9, [x7, #36]
   8b9c8:	0a370067 	bic	w7, w3, w23
   8b9cc:	b90063e5 	str	w5, [sp, #96]
   8b9d0:	5280d02a 	mov	w10, #0x681                 	// #1665
   8b9d4:	72a4400a 	movk	w10, #0x2200, lsl #16
   8b9d8:	b9005beb 	str	w11, [sp, #88]
   8b9dc:	39018be0 	strb	w0, [sp, #98]
   8b9e0:	910193e6 	add	x6, sp, #0x64
   8b9e4:	39015fe1 	strb	w1, [sp, #87]
   8b9e8:	9101a3e4 	add	x4, sp, #0x68
   8b9ec:	a94587e0 	ldp	x0, x1, [sp, #88]
   8b9f0:	52800145 	mov	w5, #0xa                   	// #10
   8b9f4:	39415bf4 	ldrb	w20, [sp, #86]
   8b9f8:	39415fe3 	ldrb	w3, [sp, #87]
   8b9fc:	39401519 	ldrb	w25, [x8, #5]
   8ba00:	12001c63 	and	w3, w3, #0xff
   8ba04:	53181e94 	ubfiz	w20, w20, #8, #8
   8ba08:	2a030294 	orr	w20, w20, w3
   8ba0c:	b9000667 	str	w7, [x19, #4]
   8ba10:	2a1403e3 	mov	w3, w20
   8ba14:	b9006bea 	str	w10, [sp, #104]
   8ba18:	7900dbe9 	strh	w9, [sp, #108]
   8ba1c:	7900dff4 	strh	w20, [sp, #110]
   8ba20:	97ffef3c 	bl	87710 <HCDSumbitControlMessage>
   8ba24:	b94067e1 	ldr	w1, [sp, #100]
   8ba28:	6b01029f 	cmp	w20, w1
   8ba2c:	54000401 	b.ne	8baac <HIDReadDescriptor+0x1ac>  // b.any
   8ba30:	b9400661 	ldr	w1, [x19, #4]
   8ba34:	2a0102e1 	orr	w1, w23, w1
   8ba38:	340003e0 	cbz	w0, 8bab4 <HIDReadDescriptor+0x1b4>
   8ba3c:	b9400665 	ldr	w5, [x19, #4]
   8ba40:	2a0003e4 	mov	w4, w0
   8ba44:	2a1903e3 	mov	w3, w25
   8ba48:	52800002 	mov	w2, #0x0                   	// #0
   8ba4c:	2a1700a5 	orr	w5, w5, w23
   8ba50:	52800441 	mov	w1, #0x22                  	// #34
   8ba54:	b0000020 	adrp	x0, 90000 <__sflush_r+0x40>
   8ba58:	91292000 	add	x0, x0, #0xa48
   8ba5c:	b9000665 	str	w5, [x19, #4]
   8ba60:	8b162b16 	add	x22, x24, x22, lsl #10
   8ba64:	97ffd83b 	bl	81b50 <printf>
   8ba68:	b9400661 	ldr	w1, [x19, #4]
   8ba6c:	b0000020 	adrp	x0, 90000 <__sflush_r+0x40>
   8ba70:	912a4000 	add	x0, x0, #0xa90
   8ba74:	394016c2 	ldrb	w2, [x22, #5]
   8ba78:	2a170021 	orr	w1, w1, w23
   8ba7c:	b9000661 	str	w1, [x19, #4]
   8ba80:	f941fec1 	ldr	x1, [x22, #1016]
   8ba84:	8b150021 	add	x1, x1, x21
   8ba88:	39409021 	ldrb	w1, [x1, #36]
   8ba8c:	97ffd831 	bl	81b50 <printf>
   8ba90:	a94153f3 	ldp	x19, x20, [sp, #16]
   8ba94:	12800060 	mov	w0, #0xfffffffc            	// #-4
   8ba98:	f94023f9 	ldr	x25, [sp, #64]
   8ba9c:	a9425bf5 	ldp	x21, x22, [sp, #32]
   8baa0:	a94363f7 	ldp	x23, x24, [sp, #48]
   8baa4:	a8c77bfd 	ldp	x29, x30, [sp], #112
   8baa8:	d65f03c0 	ret
   8baac:	12800120 	mov	w0, #0xfffffff6            	// #-10
   8bab0:	17ffffe3 	b	8ba3c <HIDReadDescriptor+0x13c>
   8bab4:	f94023f9 	ldr	x25, [sp, #64]
   8bab8:	b9000661 	str	w1, [x19, #4]
   8babc:	a94153f3 	ldp	x19, x20, [sp, #16]
   8bac0:	a9425bf5 	ldp	x21, x22, [sp, #32]
   8bac4:	a94363f7 	ldp	x23, x24, [sp, #48]
   8bac8:	a8c77bfd 	ldp	x29, x30, [sp], #112
   8bacc:	d65f03c0 	ret
   8bad0:	128001c0 	mov	w0, #0xfffffff1            	// #-15
   8bad4:	17fffff2 	b	8ba9c <HIDReadDescriptor+0x19c>
   8bad8:	128001a0 	mov	w0, #0xfffffff2            	// #-14
   8badc:	17fffff0 	b	8ba9c <HIDReadDescriptor+0x19c>
   8bae0:	12800020 	mov	w0, #0xfffffffe            	// #-2
   8bae4:	d65f03c0 	ret
   8bae8:	12800160 	mov	w0, #0xfffffff4            	// #-12
   8baec:	d65f03c0 	ret
   8baf0:	12800160 	mov	w0, #0xfffffff4            	// #-12
   8baf4:	17ffffea 	b	8ba9c <HIDReadDescriptor+0x19c>
   8baf8:	d503201f 	nop
   8bafc:	d503201f 	nop

000000000008bb00 <HIDReadReport>:
   8bb00:	d10243ff 	sub	sp, sp, #0x90
   8bb04:	f100007f 	cmp	x3, #0x0
   8bb08:	a9017bfd 	stp	x29, x30, [sp, #16]
   8bb0c:	910043fd 	add	x29, sp, #0x10
   8bb10:	a9056bf9 	stp	x25, x26, [sp, #80]
   8bb14:	90000047 	adrp	x7, 93000 <_impure_data+0x148>
   8bb18:	912420fa 	add	x26, x7, #0x908
   8bb1c:	a90673fb 	stp	x27, x28, [sp, #96]
   8bb20:	aa0303fb 	mov	x27, x3
   8bb24:	12003c9c 	and	w28, w4, #0xffff
   8bb28:	b9400746 	ldr	w6, [x26, #4]
   8bb2c:	7a401b84 	ccmp	w28, #0x0, #0x4, ne	// ne = any
   8bb30:	a90253f3 	stp	x19, x20, [sp, #32]
   8bb34:	528003f3 	mov	w19, #0x1f                  	// #31
   8bb38:	5ac010c3 	clz	w3, w6
   8bb3c:	4b030273 	sub	w19, w19, w3
   8bb40:	52800034 	mov	w20, #0x1                   	// #1
   8bb44:	b90073ff 	str	wzr, [sp, #112]
   8bb48:	1ad32294 	lsl	w20, w20, w19
   8bb4c:	0a3400c6 	bic	w6, w6, w20
   8bb50:	b9000746 	str	w6, [x26, #4]
   8bb54:	b90087ff 	str	wzr, [sp, #132]
   8bb58:	54000fe0 	b.eq	8bd54 <HIDReadReport+0x254>  // b.none
   8bb5c:	12001c00 	and	w0, w0, #0xff
   8bb60:	51000405 	sub	w5, w0, #0x1
   8bb64:	12001ca0 	and	w0, w5, #0xff
   8bb68:	71007c1f 	cmp	w0, #0x1f
   8bb6c:	54000f08 	b.hi	8bd4c <HIDReadReport+0x24c>  // b.pmore
   8bb70:	93767ca5 	sbfiz	x5, x5, #10, #32
   8bb74:	b0000046 	adrp	x6, 94000 <HubTable+0x430>
   8bb78:	910a80c6 	add	x6, x6, #0x2a0
   8bb7c:	8b0500c0 	add	x0, x6, x5
   8bb80:	b943f004 	ldr	w4, [x0, #1008]
   8bb84:	34000e44 	cbz	w4, 8bd4c <HIDReadReport+0x24c>
   8bb88:	71000c9f 	cmp	w4, #0x3
   8bb8c:	54000dc1 	b.ne	8bd44 <HIDReadReport+0x244>  // b.any
   8bb90:	f941fc03 	ldr	x3, [x0, #1016]
   8bb94:	b4000d83 	cbz	x3, 8bd44 <HIDReadReport+0x244>
   8bb98:	12001c21 	and	w1, w1, #0xff
   8bb9c:	910010c8 	add	x8, x6, #0x4
   8bba0:	a9035bf5 	stp	x21, x22, [sp, #48]
   8bba4:	12003c42 	and	w2, w2, #0xffff
   8bba8:	8b210061 	add	x1, x3, w1, uxtb
   8bbac:	a90463f7 	stp	x23, x24, [sp, #64]
   8bbb0:	52803423 	mov	w3, #0x1a1                 	// #417
   8bbb4:	39401416 	ldrb	w22, [x0, #5]
   8bbb8:	f86568d5 	ldr	x21, [x6, x5]
   8bbbc:	790113e3 	strh	w3, [sp, #136]
   8bbc0:	b8656905 	ldr	w5, [x8, x5]
   8bbc4:	39409021 	ldrb	w1, [x1, #36]
   8bbc8:	396420e0 	ldrb	w0, [x7, #2312]
   8bbcc:	d36086b8 	ubfx	x24, x21, #32, #2
   8bbd0:	b9007be5 	str	w5, [sp, #120]
   8bbd4:	d3628eb7 	ubfx	x23, x21, #34, #2
   8bbd8:	790117e2 	strh	w2, [sp, #138]
   8bbdc:	d372e2b9 	ubfx	x25, x21, #50, #7
   8bbe0:	79011be1 	strh	w1, [sp, #140]
   8bbe4:	6b16001f 	cmp	w0, w22
   8bbe8:	79011ffc 	strh	w28, [sp, #142]
   8bbec:	d379feb5 	lsr	x21, x21, #57
   8bbf0:	54000860 	b.eq	8bcfc <HIDReadReport+0x1fc>  // b.none
   8bbf4:	3901cbf3 	strb	w19, [sp, #114]
   8bbf8:	910223e2 	add	x2, sp, #0x88
   8bbfc:	f9403fe0 	ldr	x0, [sp, #120]
   8bc00:	52800103 	mov	w3, #0x8                   	// #8
   8bc04:	b94073e1 	ldr	w1, [sp, #112]
   8bc08:	32080021 	orr	w1, w1, #0x1000000
   8bc0c:	b90073e1 	str	w1, [sp, #112]
   8bc10:	12077821 	and	w1, w1, #0xfeffffff
   8bc14:	b90083e1 	str	w1, [sp, #128]
   8bc18:	f94043e1 	ldr	x1, [sp, #128]
   8bc1c:	97ffecfd 	bl	87010 <HCDChannelTransfer>
   8bc20:	350007a0 	cbnz	w0, 8bd14 <HIDReadReport+0x214>
   8bc24:	b94083e1 	ldr	w1, [sp, #128]
   8bc28:	2a1c03e3 	mov	w3, w28
   8bc2c:	f9403fe0 	ldr	x0, [sp, #120]
   8bc30:	32080021 	orr	w1, w1, #0x1000000
   8bc34:	b90083e1 	str	w1, [sp, #128]
   8bc38:	aa1b03e2 	mov	x2, x27
   8bc3c:	52800044 	mov	w4, #0x2                   	// #2
   8bc40:	f94043e1 	ldr	x1, [sp, #128]
   8bc44:	97ffecf3 	bl	87010 <HCDChannelTransfer>
   8bc48:	35000500 	cbnz	w0, 8bce8 <HIDReadReport+0x1e8>
   8bc4c:	f0000037 	adrp	x23, 92000 <BitFont+0xbc0>
   8bc50:	b94b02e1 	ldr	w1, [x23, #2816]
   8bc54:	937b7e73 	sbfiz	x19, x19, #5, #32
   8bc58:	5280a015 	mov	w21, #0x500                 	// #1280
   8bc5c:	72a01315 	movk	w21, #0x98, lsl #16
   8bc60:	0b150021 	add	w1, w1, w21
   8bc64:	8b130021 	add	x1, x1, x19
   8bc68:	b94083e5 	ldr	w5, [sp, #128]
   8bc6c:	f9403fe0 	ldr	x0, [sp, #120]
   8bc70:	120778a5 	and	w5, w5, #0xfeffffff
   8bc74:	b9401021 	ldr	w1, [x1, #16]
   8bc78:	aa1b03e2 	mov	x2, x27
   8bc7c:	b90083e5 	str	w5, [sp, #128]
   8bc80:	52800044 	mov	w4, #0x2                   	// #2
   8bc84:	52800003 	mov	w3, #0x0                   	// #0
   8bc88:	f94043e1 	ldr	x1, [sp, #128]
   8bc8c:	97ffece1 	bl	87010 <HCDChannelTransfer>
   8bc90:	35000220 	cbnz	w0, 8bcd4 <HIDReadReport+0x1d4>
   8bc94:	b94b02e0 	ldr	w0, [x23, #2816]
   8bc98:	0b150000 	add	w0, w0, w21
   8bc9c:	8b130000 	add	x0, x0, x19
   8bca0:	b9401000 	ldr	w0, [x0, #16]
   8bca4:	52800000 	mov	w0, #0x0                   	// #0
   8bca8:	b9400741 	ldr	w1, [x26, #4]
   8bcac:	a9435bf5 	ldp	x21, x22, [sp, #48]
   8bcb0:	2a140021 	orr	w1, w1, w20
   8bcb4:	a94463f7 	ldp	x23, x24, [sp, #64]
   8bcb8:	b9000741 	str	w1, [x26, #4]
   8bcbc:	a9417bfd 	ldp	x29, x30, [sp, #16]
   8bcc0:	a94253f3 	ldp	x19, x20, [sp, #32]
   8bcc4:	a9456bf9 	ldp	x25, x26, [sp, #80]
   8bcc8:	a94673fb 	ldp	x27, x28, [sp, #96]
   8bccc:	910243ff 	add	sp, sp, #0x90
   8bcd0:	d65f03c0 	ret
   8bcd4:	2a1603e1 	mov	w1, w22
   8bcd8:	b0000020 	adrp	x0, 90000 <__sflush_r+0x40>
   8bcdc:	911dc000 	add	x0, x0, #0x770
   8bce0:	97ffd79c 	bl	81b50 <printf>
   8bce4:	17fffff0 	b	8bca4 <HIDReadReport+0x1a4>
   8bce8:	2a1603e1 	mov	w1, w22
   8bcec:	b0000020 	adrp	x0, 90000 <__sflush_r+0x40>
   8bcf0:	911fc000 	add	x0, x0, #0x7f0
   8bcf4:	97ffd797 	bl	81b50 <printf>
   8bcf8:	17ffffeb 	b	8bca4 <HIDReadReport+0x1a4>
   8bcfc:	2a1c03e1 	mov	w1, w28
   8bd00:	aa1b03e0 	mov	x0, x27
   8bd04:	910213e3 	add	x3, sp, #0x84
   8bd08:	910223e2 	add	x2, sp, #0x88
   8bd0c:	97ffe7c1 	bl	85c10 <HcdProcessRootHubMessage>
   8bd10:	17ffffe6 	b	8bca8 <HIDReadReport+0x1a8>
   8bd14:	394223e3 	ldrb	w3, [sp, #136]
   8bd18:	2a1903e7 	mov	w7, w25
   8bd1c:	394227e2 	ldrb	w2, [sp, #137]
   8bd20:	2a1503e6 	mov	w6, w21
   8bd24:	b90003e0 	str	w0, [sp]
   8bd28:	2a1803e5 	mov	w5, w24
   8bd2c:	2a1703e4 	mov	w4, w23
   8bd30:	2a1603e1 	mov	w1, w22
   8bd34:	b0000020 	adrp	x0, 90000 <__sflush_r+0x40>
   8bd38:	911be000 	add	x0, x0, #0x6f8
   8bd3c:	97ffd785 	bl	81b50 <printf>
   8bd40:	17ffffd9 	b	8bca4 <HIDReadReport+0x1a4>
   8bd44:	128001c0 	mov	w0, #0xfffffff1            	// #-15
   8bd48:	17ffffdd 	b	8bcbc <HIDReadReport+0x1bc>
   8bd4c:	12800160 	mov	w0, #0xfffffff4            	// #-12
   8bd50:	17ffffdb 	b	8bcbc <HIDReadReport+0x1bc>
   8bd54:	12800020 	mov	w0, #0xfffffffe            	// #-2
   8bd58:	17ffffd9 	b	8bcbc <HIDReadReport+0x1bc>
   8bd5c:	d503201f 	nop

000000000008bd60 <HIDWriteReport>:
   8bd60:	d10243ff 	sub	sp, sp, #0x90
   8bd64:	f100007f 	cmp	x3, #0x0
   8bd68:	a9017bfd 	stp	x29, x30, [sp, #16]
   8bd6c:	910043fd 	add	x29, sp, #0x10
   8bd70:	a90463f7 	stp	x23, x24, [sp, #64]
   8bd74:	90000047 	adrp	x7, 93000 <_impure_data+0x148>
   8bd78:	912420f7 	add	x23, x7, #0x908
   8bd7c:	a90253f3 	stp	x19, x20, [sp, #32]
   8bd80:	aa0303f4 	mov	x20, x3
   8bd84:	528003f3 	mov	w19, #0x1f                  	// #31
   8bd88:	b94006e3 	ldr	w3, [x23, #4]
   8bd8c:	a90673fb 	stp	x27, x28, [sp, #96]
   8bd90:	12003c9c 	and	w28, w4, #0xffff
   8bd94:	5ac01064 	clz	w4, w3
   8bd98:	4b040273 	sub	w19, w19, w4
   8bd9c:	a9035bf5 	stp	x21, x22, [sp, #48]
   8bda0:	52800035 	mov	w21, #0x1                   	// #1
   8bda4:	1ad322b5 	lsl	w21, w21, w19
   8bda8:	0a350063 	bic	w3, w3, w21
   8bdac:	b90006e3 	str	w3, [x23, #4]
   8bdb0:	7a401b84 	ccmp	w28, #0x0, #0x4, ne	// ne = any
   8bdb4:	b90073ff 	str	wzr, [sp, #112]
   8bdb8:	b90087ff 	str	wzr, [sp, #132]
   8bdbc:	540011a0 	b.eq	8bff0 <HIDWriteReport+0x290>  // b.none
   8bdc0:	12001c00 	and	w0, w0, #0xff
   8bdc4:	51000405 	sub	w5, w0, #0x1
   8bdc8:	12001ca0 	and	w0, w5, #0xff
   8bdcc:	71007c1f 	cmp	w0, #0x1f
   8bdd0:	540010c8 	b.hi	8bfe8 <HIDWriteReport+0x288>  // b.pmore
   8bdd4:	93767ca5 	sbfiz	x5, x5, #10, #32
   8bdd8:	b0000046 	adrp	x6, 94000 <HubTable+0x430>
   8bddc:	910a80c6 	add	x6, x6, #0x2a0
   8bde0:	8b0500c0 	add	x0, x6, x5
   8bde4:	b943f004 	ldr	w4, [x0, #1008]
   8bde8:	34001004 	cbz	w4, 8bfe8 <HIDWriteReport+0x288>
   8bdec:	71000c9f 	cmp	w4, #0x3
   8bdf0:	54000f81 	b.ne	8bfe0 <HIDWriteReport+0x280>  // b.any
   8bdf4:	f941fc03 	ldr	x3, [x0, #1016]
   8bdf8:	b4000f43 	cbz	x3, 8bfe0 <HIDWriteReport+0x280>
   8bdfc:	12001c21 	and	w1, w1, #0xff
   8be00:	910010c8 	add	x8, x6, #0x4
   8be04:	a9056bf9 	stp	x25, x26, [sp, #80]
   8be08:	12003c42 	and	w2, w2, #0xffff
   8be0c:	8b210061 	add	x1, x3, w1, uxtb
   8be10:	f86568c6 	ldr	x6, [x6, x5]
   8be14:	52812423 	mov	w3, #0x921                 	// #2337
   8be18:	b8656905 	ldr	w5, [x8, x5]
   8be1c:	39409021 	ldrb	w1, [x1, #36]
   8be20:	39401418 	ldrb	w24, [x0, #5]
   8be24:	d36084da 	ubfx	x26, x6, #32, #2
   8be28:	396420e0 	ldrb	w0, [x7, #2312]
   8be2c:	d3628cd9 	ubfx	x25, x6, #34, #2
   8be30:	b9007be5 	str	w5, [sp, #120]
   8be34:	d372e0db 	ubfx	x27, x6, #50, #7
   8be38:	790113e3 	strh	w3, [sp, #136]
   8be3c:	6b18001f 	cmp	w0, w24
   8be40:	790117e2 	strh	w2, [sp, #138]
   8be44:	d379fcd6 	lsr	x22, x6, #57
   8be48:	79011be1 	strh	w1, [sp, #140]
   8be4c:	79011ffc 	strh	w28, [sp, #142]
   8be50:	54000880 	b.eq	8bf60 <HIDWriteReport+0x200>  // b.none
   8be54:	3901cbf3 	strb	w19, [sp, #114]
   8be58:	910223e2 	add	x2, sp, #0x88
   8be5c:	f9403fe0 	ldr	x0, [sp, #120]
   8be60:	52800103 	mov	w3, #0x8                   	// #8
   8be64:	b94073e1 	ldr	w1, [sp, #112]
   8be68:	b90083e1 	str	w1, [sp, #128]
   8be6c:	f94043e1 	ldr	x1, [sp, #128]
   8be70:	97ffec68 	bl	87010 <HCDChannelTransfer>
   8be74:	35000980 	cbnz	w0, 8bfa4 <HIDWriteReport+0x244>
   8be78:	a94787e0 	ldp	x0, x1, [sp, #120]
   8be7c:	2a1c03e3 	mov	w3, w28
   8be80:	aa1403e2 	mov	x2, x20
   8be84:	52800044 	mov	w4, #0x2                   	// #2
   8be88:	97ffec62 	bl	87010 <HCDChannelTransfer>
   8be8c:	350005a0 	cbnz	w0, 8bf40 <HIDWriteReport+0x1e0>
   8be90:	b94083e1 	ldr	w1, [sp, #128]
   8be94:	aa1403e2 	mov	x2, x20
   8be98:	f9403fe0 	ldr	x0, [sp, #120]
   8be9c:	32080021 	orr	w1, w1, #0x1000000
   8bea0:	b90083e1 	str	w1, [sp, #128]
   8bea4:	52800044 	mov	w4, #0x2                   	// #2
   8bea8:	52800003 	mov	w3, #0x0                   	// #0
   8beac:	f94043e1 	ldr	x1, [sp, #128]
   8beb0:	97ffec58 	bl	87010 <HCDChannelTransfer>
   8beb4:	35000260 	cbnz	w0, 8bf00 <HIDWriteReport+0x1a0>
   8beb8:	f0000021 	adrp	x1, 92000 <BitFont+0xbc0>
   8bebc:	b94b0022 	ldr	w2, [x1, #2816]
   8bec0:	52800403 	mov	w3, #0x20                  	// #32
   8bec4:	b94006e1 	ldr	w1, [x23, #4]
   8bec8:	11660042 	add	w2, w2, #0x980, lsl #12
   8becc:	11140042 	add	w2, w2, #0x500
   8bed0:	2a150021 	orr	w1, w1, w21
   8bed4:	a9456bf9 	ldp	x25, x26, [sp, #80]
   8bed8:	9b230a73 	smaddl	x19, w19, w3, x2
   8bedc:	b9401262 	ldr	w2, [x19, #16]
   8bee0:	b90006e1 	str	w1, [x23, #4]
   8bee4:	a9417bfd 	ldp	x29, x30, [sp, #16]
   8bee8:	a94253f3 	ldp	x19, x20, [sp, #32]
   8beec:	a9435bf5 	ldp	x21, x22, [sp, #48]
   8bef0:	a94463f7 	ldp	x23, x24, [sp, #64]
   8bef4:	a94673fb 	ldp	x27, x28, [sp, #96]
   8bef8:	910243ff 	add	sp, sp, #0x90
   8befc:	d65f03c0 	ret
   8bf00:	2a1803e1 	mov	w1, w24
   8bf04:	b0000020 	adrp	x0, 90000 <__sflush_r+0x40>
   8bf08:	911dc000 	add	x0, x0, #0x770
   8bf0c:	97ffd711 	bl	81b50 <printf>
   8bf10:	b94006e0 	ldr	w0, [x23, #4]
   8bf14:	2a150000 	orr	w0, w0, w21
   8bf18:	b90006e0 	str	w0, [x23, #4]
   8bf1c:	a9417bfd 	ldp	x29, x30, [sp, #16]
   8bf20:	12800000 	mov	w0, #0xffffffff            	// #-1
   8bf24:	a94253f3 	ldp	x19, x20, [sp, #32]
   8bf28:	a9435bf5 	ldp	x21, x22, [sp, #48]
   8bf2c:	a94463f7 	ldp	x23, x24, [sp, #64]
   8bf30:	a9456bf9 	ldp	x25, x26, [sp, #80]
   8bf34:	a94673fb 	ldp	x27, x28, [sp, #96]
   8bf38:	910243ff 	add	sp, sp, #0x90
   8bf3c:	d65f03c0 	ret
   8bf40:	2a1803e1 	mov	w1, w24
   8bf44:	b0000020 	adrp	x0, 90000 <__sflush_r+0x40>
   8bf48:	911fc000 	add	x0, x0, #0x7f0
   8bf4c:	97ffd701 	bl	81b50 <printf>
   8bf50:	b94006e0 	ldr	w0, [x23, #4]
   8bf54:	2a150000 	orr	w0, w0, w21
   8bf58:	b90006e0 	str	w0, [x23, #4]
   8bf5c:	17fffff0 	b	8bf1c <HIDWriteReport+0x1bc>
   8bf60:	2a1c03e1 	mov	w1, w28
   8bf64:	aa1403e0 	mov	x0, x20
   8bf68:	910213e3 	add	x3, sp, #0x84
   8bf6c:	910223e2 	add	x2, sp, #0x88
   8bf70:	97ffe728 	bl	85c10 <HcdProcessRootHubMessage>
   8bf74:	b94006e1 	ldr	w1, [x23, #4]
   8bf78:	2a150021 	orr	w1, w1, w21
   8bf7c:	b90006e1 	str	w1, [x23, #4]
   8bf80:	340003c0 	cbz	w0, 8bff8 <HIDWriteReport+0x298>
   8bf84:	a9417bfd 	ldp	x29, x30, [sp, #16]
   8bf88:	a94253f3 	ldp	x19, x20, [sp, #32]
   8bf8c:	a9435bf5 	ldp	x21, x22, [sp, #48]
   8bf90:	a94463f7 	ldp	x23, x24, [sp, #64]
   8bf94:	a9456bf9 	ldp	x25, x26, [sp, #80]
   8bf98:	a94673fb 	ldp	x27, x28, [sp, #96]
   8bf9c:	910243ff 	add	sp, sp, #0x90
   8bfa0:	d65f03c0 	ret
   8bfa4:	394223e3 	ldrb	w3, [sp, #136]
   8bfa8:	2a1b03e7 	mov	w7, w27
   8bfac:	394227e2 	ldrb	w2, [sp, #137]
   8bfb0:	2a1603e6 	mov	w6, w22
   8bfb4:	b90003e0 	str	w0, [sp]
   8bfb8:	2a1a03e5 	mov	w5, w26
   8bfbc:	2a1903e4 	mov	w4, w25
   8bfc0:	2a1803e1 	mov	w1, w24
   8bfc4:	b0000020 	adrp	x0, 90000 <__sflush_r+0x40>
   8bfc8:	911be000 	add	x0, x0, #0x6f8
   8bfcc:	97ffd6e1 	bl	81b50 <printf>
   8bfd0:	b94006e0 	ldr	w0, [x23, #4]
   8bfd4:	2a150000 	orr	w0, w0, w21
   8bfd8:	b90006e0 	str	w0, [x23, #4]
   8bfdc:	17ffffd0 	b	8bf1c <HIDWriteReport+0x1bc>
   8bfe0:	128001c0 	mov	w0, #0xfffffff1            	// #-15
   8bfe4:	17ffffc0 	b	8bee4 <HIDWriteReport+0x184>
   8bfe8:	12800160 	mov	w0, #0xfffffff4            	// #-12
   8bfec:	17ffffbe 	b	8bee4 <HIDWriteReport+0x184>
   8bff0:	12800020 	mov	w0, #0xfffffffe            	// #-2
   8bff4:	17ffffbc 	b	8bee4 <HIDWriteReport+0x184>
   8bff8:	b94087e0 	ldr	w0, [sp, #132]
   8bffc:	a9456bf9 	ldp	x25, x26, [sp, #80]
   8c000:	6b1c001f 	cmp	w0, w28
   8c004:	5a9f03e0 	csetm	w0, ne	// ne = any
   8c008:	17ffffb7 	b	8bee4 <HIDWriteReport+0x184>
   8c00c:	d503201f 	nop

000000000008c010 <HIDSetProtocol>:
   8c010:	d10203ff 	sub	sp, sp, #0x80
   8c014:	12001c00 	and	w0, w0, #0xff
   8c018:	51000400 	sub	w0, w0, #0x1
   8c01c:	12001c04 	and	w4, w0, #0xff
   8c020:	a9017bfd 	stp	x29, x30, [sp, #16]
   8c024:	910043fd 	add	x29, sp, #0x10
   8c028:	71007c9f 	cmp	w4, #0x1f
   8c02c:	a9035bf5 	stp	x21, x22, [sp, #48]
   8c030:	f0000027 	adrp	x7, 93000 <_impure_data+0x148>
   8c034:	912420f6 	add	x22, x7, #0x908
   8c038:	a90253f3 	stp	x19, x20, [sp, #32]
   8c03c:	528003f3 	mov	w19, #0x1f                  	// #31
   8c040:	52800034 	mov	w20, #0x1                   	// #1
   8c044:	b94006c3 	ldr	w3, [x22, #4]
   8c048:	b90063ff 	str	wzr, [sp, #96]
   8c04c:	5ac01065 	clz	w5, w3
   8c050:	4b050273 	sub	w19, w19, w5
   8c054:	1ad32294 	lsl	w20, w20, w19
   8c058:	0a340063 	bic	w3, w3, w20
   8c05c:	b90006c3 	str	w3, [x22, #4]
   8c060:	54000be8 	b.hi	8c1dc <HIDSetProtocol+0x1cc>  // b.pmore
   8c064:	93767c00 	sbfiz	x0, x0, #10, #32
   8c068:	90000043 	adrp	x3, 94000 <HubTable+0x430>
   8c06c:	910a8063 	add	x3, x3, #0x2a0
   8c070:	8b000065 	add	x5, x3, x0
   8c074:	b943f0a4 	ldr	w4, [x5, #1008]
   8c078:	34000b24 	cbz	w4, 8c1dc <HIDSetProtocol+0x1cc>
   8c07c:	71000c9f 	cmp	w4, #0x3
   8c080:	54000aa1 	b.ne	8c1d4 <HIDSetProtocol+0x1c4>  // b.any
   8c084:	f941fca6 	ldr	x6, [x5, #1016]
   8c088:	b4000a66 	cbz	x6, 8c1d4 <HIDSetProtocol+0x1c4>
   8c08c:	91001068 	add	x8, x3, #0x4
   8c090:	a90463f7 	stp	x23, x24, [sp, #64]
   8c094:	394014b7 	ldrb	w23, [x5, #5]
   8c098:	a9056bf9 	stp	x25, x26, [sp, #80]
   8c09c:	12001c21 	and	w1, w1, #0xff
   8c0a0:	b8606905 	ldr	w5, [x8, x0]
   8c0a4:	f8606866 	ldr	x6, [x3, x0]
   8c0a8:	12003c42 	and	w2, w2, #0xffff
   8c0ac:	396420e0 	ldrb	w0, [x7, #2312]
   8c0b0:	52816423 	mov	w3, #0xb21                 	// #2849
   8c0b4:	b9006be5 	str	w5, [sp, #104]
   8c0b8:	7900f3e3 	strh	w3, [sp, #120]
   8c0bc:	d36084d9 	ubfx	x25, x6, #32, #2
   8c0c0:	7900f7e2 	strh	w2, [sp, #122]
   8c0c4:	6b17001f 	cmp	w0, w23
   8c0c8:	7900fbe1 	strh	w1, [sp, #124]
   8c0cc:	d3628cd8 	ubfx	x24, x6, #34, #2
   8c0d0:	7900ffff 	strh	wzr, [sp, #126]
   8c0d4:	d372e0da 	ubfx	x26, x6, #50, #7
   8c0d8:	d379fcd5 	lsr	x21, x6, #57
   8c0dc:	54000580 	b.eq	8c18c <HIDSetProtocol+0x17c>  // b.none
   8c0e0:	12001e69 	and	w9, w19, #0xff
   8c0e4:	39018be9 	strb	w9, [sp, #98]
   8c0e8:	f94037e0 	ldr	x0, [sp, #104]
   8c0ec:	9101e3e2 	add	x2, sp, #0x78
   8c0f0:	b94063e1 	ldr	w1, [sp, #96]
   8c0f4:	52800103 	mov	w3, #0x8                   	// #8
   8c0f8:	b90073e1 	str	w1, [sp, #112]
   8c0fc:	f9403be1 	ldr	x1, [sp, #112]
   8c100:	97ffebc4 	bl	87010 <HCDChannelTransfer>
   8c104:	35000500 	cbnz	w0, 8c1a4 <HIDSetProtocol+0x194>
   8c108:	b94073e1 	ldr	w1, [sp, #112]
   8c10c:	52800044 	mov	w4, #0x2                   	// #2
   8c110:	f94037e0 	ldr	x0, [sp, #104]
   8c114:	32080021 	orr	w1, w1, #0x1000000
   8c118:	b90073e1 	str	w1, [sp, #112]
   8c11c:	52800003 	mov	w3, #0x0                   	// #0
   8c120:	d2800002 	mov	x2, #0x0                   	// #0
   8c124:	f9403be1 	ldr	x1, [sp, #112]
   8c128:	97ffebba 	bl	87010 <HCDChannelTransfer>
   8c12c:	35000260 	cbnz	w0, 8c178 <HIDSetProtocol+0x168>
   8c130:	d0000020 	adrp	x0, 92000 <BitFont+0xbc0>
   8c134:	b94b0000 	ldr	w0, [x0, #2816]
   8c138:	52800401 	mov	w1, #0x20                  	// #32
   8c13c:	11660000 	add	w0, w0, #0x980, lsl #12
   8c140:	11140000 	add	w0, w0, #0x500
   8c144:	9b210273 	smaddl	x19, w19, w1, x0
   8c148:	b9401260 	ldr	w0, [x19, #16]
   8c14c:	52800000 	mov	w0, #0x0                   	// #0
   8c150:	b94006c1 	ldr	w1, [x22, #4]
   8c154:	a94463f7 	ldp	x23, x24, [sp, #64]
   8c158:	2a140021 	orr	w1, w1, w20
   8c15c:	a9456bf9 	ldp	x25, x26, [sp, #80]
   8c160:	b90006c1 	str	w1, [x22, #4]
   8c164:	a9417bfd 	ldp	x29, x30, [sp, #16]
   8c168:	a94253f3 	ldp	x19, x20, [sp, #32]
   8c16c:	a9435bf5 	ldp	x21, x22, [sp, #48]
   8c170:	910203ff 	add	sp, sp, #0x80
   8c174:	d65f03c0 	ret
   8c178:	2a1703e1 	mov	w1, w23
   8c17c:	90000020 	adrp	x0, 90000 <__sflush_r+0x40>
   8c180:	911dc000 	add	x0, x0, #0x770
   8c184:	97ffd673 	bl	81b50 <printf>
   8c188:	17fffff1 	b	8c14c <HIDSetProtocol+0x13c>
   8c18c:	9101e3e2 	add	x2, sp, #0x78
   8c190:	d2800003 	mov	x3, #0x0                   	// #0
   8c194:	52800001 	mov	w1, #0x0                   	// #0
   8c198:	d2800000 	mov	x0, #0x0                   	// #0
   8c19c:	97ffe69d 	bl	85c10 <HcdProcessRootHubMessage>
   8c1a0:	17ffffec 	b	8c150 <HIDSetProtocol+0x140>
   8c1a4:	3941e3e3 	ldrb	w3, [sp, #120]
   8c1a8:	2a1a03e7 	mov	w7, w26
   8c1ac:	3941e7e2 	ldrb	w2, [sp, #121]
   8c1b0:	2a1503e6 	mov	w6, w21
   8c1b4:	b90003e0 	str	w0, [sp]
   8c1b8:	2a1903e5 	mov	w5, w25
   8c1bc:	2a1803e4 	mov	w4, w24
   8c1c0:	2a1703e1 	mov	w1, w23
   8c1c4:	90000020 	adrp	x0, 90000 <__sflush_r+0x40>
   8c1c8:	911be000 	add	x0, x0, #0x6f8
   8c1cc:	97ffd661 	bl	81b50 <printf>
   8c1d0:	17ffffdf 	b	8c14c <HIDSetProtocol+0x13c>
   8c1d4:	128001c0 	mov	w0, #0xfffffff1            	// #-15
   8c1d8:	17ffffe3 	b	8c164 <HIDSetProtocol+0x154>
   8c1dc:	12800160 	mov	w0, #0xfffffff4            	// #-12
   8c1e0:	17ffffe1 	b	8c164 <HIDSetProtocol+0x154>
	...

000000000008c200 <memset>:
   8c200:	d503245f 	bti	c
   8c204:	4e010c20 	dup	v0.16b, w1
   8c208:	8b020004 	add	x4, x0, x2
   8c20c:	f101805f 	cmp	x2, #0x60
   8c210:	54000388 	b.hi	8c280 <memset+0x80>  // b.pmore
   8c214:	f100405f 	cmp	x2, #0x10
   8c218:	540001e2 	b.cs	8c254 <memset+0x54>  // b.hs, b.nlast
   8c21c:	4e083c01 	mov	x1, v0.d[0]
   8c220:	36180082 	tbz	w2, #3, 8c230 <memset+0x30>
   8c224:	f9000001 	str	x1, [x0]
   8c228:	f81f8081 	stur	x1, [x4, #-8]
   8c22c:	d65f03c0 	ret
   8c230:	36100082 	tbz	w2, #2, 8c240 <memset+0x40>
   8c234:	b9000001 	str	w1, [x0]
   8c238:	b81fc081 	stur	w1, [x4, #-4]
   8c23c:	d65f03c0 	ret
   8c240:	b4000082 	cbz	x2, 8c250 <memset+0x50>
   8c244:	39000001 	strb	w1, [x0]
   8c248:	36080042 	tbz	w2, #1, 8c250 <memset+0x50>
   8c24c:	781fe081 	sturh	w1, [x4, #-2]
   8c250:	d65f03c0 	ret
   8c254:	3d800000 	str	q0, [x0]
   8c258:	373000c2 	tbnz	w2, #6, 8c270 <memset+0x70>
   8c25c:	3c9f0080 	stur	q0, [x4, #-16]
   8c260:	36280062 	tbz	w2, #5, 8c26c <memset+0x6c>
   8c264:	3d800400 	str	q0, [x0, #16]
   8c268:	3c9e0080 	stur	q0, [x4, #-32]
   8c26c:	d65f03c0 	ret
   8c270:	3d800400 	str	q0, [x0, #16]
   8c274:	ad010000 	stp	q0, q0, [x0, #32]
   8c278:	ad3f0080 	stp	q0, q0, [x4, #-32]
   8c27c:	d65f03c0 	ret
   8c280:	12001c21 	and	w1, w1, #0xff
   8c284:	927cec03 	and	x3, x0, #0xfffffffffffffff0
   8c288:	3d800000 	str	q0, [x0]
   8c28c:	f102805f 	cmp	x2, #0xa0
   8c290:	7a402820 	ccmp	w1, #0x0, #0x0, cs	// cs = hs, nlast
   8c294:	54000241 	b.ne	8c2dc <memset+0xdc>  // b.any
   8c298:	d53b00e5 	mrs	x5, dczid_el0
   8c29c:	924010a5 	and	x5, x5, #0x1f
   8c2a0:	f10010bf 	cmp	x5, #0x4
   8c2a4:	540001c1 	b.ne	8c2dc <memset+0xdc>  // b.any
   8c2a8:	3d800460 	str	q0, [x3, #16]
   8c2ac:	ad010060 	stp	q0, q0, [x3, #32]
   8c2b0:	927ae463 	and	x3, x3, #0xffffffffffffffc0
   8c2b4:	cb030082 	sub	x2, x4, x3
   8c2b8:	d1020042 	sub	x2, x2, #0x80
   8c2bc:	d503201f 	nop
   8c2c0:	91010063 	add	x3, x3, #0x40
   8c2c4:	d50b7423 	dc	zva, x3
   8c2c8:	f1010042 	subs	x2, x2, #0x40
   8c2cc:	54ffffa8 	b.hi	8c2c0 <memset+0xc0>  // b.pmore
   8c2d0:	ad3e0080 	stp	q0, q0, [x4, #-64]
   8c2d4:	ad3f0080 	stp	q0, q0, [x4, #-32]
   8c2d8:	d65f03c0 	ret
   8c2dc:	cb030082 	sub	x2, x4, x3
   8c2e0:	d1004063 	sub	x3, x3, #0x10
   8c2e4:	d1014042 	sub	x2, x2, #0x50
   8c2e8:	ad010060 	stp	q0, q0, [x3, #32]
   8c2ec:	ad820060 	stp	q0, q0, [x3, #64]!
   8c2f0:	f1010042 	subs	x2, x2, #0x40
   8c2f4:	54ffffa8 	b.hi	8c2e8 <memset+0xe8>  // b.pmore
   8c2f8:	ad3e0080 	stp	q0, q0, [x4, #-64]
   8c2fc:	ad3f0080 	stp	q0, q0, [x4, #-32]
   8c300:	d65f03c0 	ret
	...

000000000008c340 <strlen>:
   8c340:	d503245f 	bti	c
   8c344:	92402c04 	and	x4, x0, #0xfff
   8c348:	f13f809f 	cmp	x4, #0xfe0
   8c34c:	540006c8 	b.hi	8c424 <strlen+0xe4>  // b.pmore
   8c350:	a9400c02 	ldp	x2, x3, [x0]
   8c354:	b200c3e8 	mov	x8, #0x101010101010101     	// #72340172838076673
   8c358:	cb080044 	sub	x4, x2, x8
   8c35c:	b200d845 	orr	x5, x2, #0x7f7f7f7f7f7f7f7f
   8c360:	cb080066 	sub	x6, x3, x8
   8c364:	b200d867 	orr	x7, x3, #0x7f7f7f7f7f7f7f7f
   8c368:	ea250084 	bics	x4, x4, x5
   8c36c:	8a2700c5 	bic	x5, x6, x7
   8c370:	fa4008a0 	ccmp	x5, #0x0, #0x0, eq	// eq = none
   8c374:	54000100 	b.eq	8c394 <strlen+0x54>  // b.none
   8c378:	9a853084 	csel	x4, x4, x5, cc	// cc = lo, ul, last
   8c37c:	d2800100 	mov	x0, #0x8                   	// #8
   8c380:	dac00c84 	rev	x4, x4
   8c384:	9a8033e0 	csel	x0, xzr, x0, cc	// cc = lo, ul, last
   8c388:	dac01084 	clz	x4, x4
   8c38c:	8b440c00 	add	x0, x0, x4, lsr #3
   8c390:	d65f03c0 	ret
   8c394:	a9410c02 	ldp	x2, x3, [x0, #16]
   8c398:	cb080044 	sub	x4, x2, x8
   8c39c:	b200d845 	orr	x5, x2, #0x7f7f7f7f7f7f7f7f
   8c3a0:	cb080066 	sub	x6, x3, x8
   8c3a4:	b200d867 	orr	x7, x3, #0x7f7f7f7f7f7f7f7f
   8c3a8:	ea250084 	bics	x4, x4, x5
   8c3ac:	8a2700c5 	bic	x5, x6, x7
   8c3b0:	fa4008a0 	ccmp	x5, #0x0, #0x0, eq	// eq = none
   8c3b4:	54000140 	b.eq	8c3dc <strlen+0x9c>  // b.none
   8c3b8:	9a853084 	csel	x4, x4, x5, cc	// cc = lo, ul, last
   8c3bc:	d2800300 	mov	x0, #0x18                  	// #24
   8c3c0:	dac00c84 	rev	x4, x4
   8c3c4:	d2800206 	mov	x6, #0x10                  	// #16
   8c3c8:	dac01084 	clz	x4, x4
   8c3cc:	9a8030c0 	csel	x0, x6, x0, cc	// cc = lo, ul, last
   8c3d0:	8b440c00 	add	x0, x0, x4, lsr #3
   8c3d4:	d65f03c0 	ret
   8c3d8:	d503201f 	nop
   8c3dc:	927be801 	and	x1, x0, #0xffffffffffffffe0
   8c3e0:	adc10821 	ldp	q1, q2, [x1, #32]!
   8c3e4:	6e22ac20 	uminp	v0.16b, v1.16b, v2.16b
   8c3e8:	6e20ac00 	uminp	v0.16b, v0.16b, v0.16b
   8c3ec:	0e209800 	cmeq	v0.8b, v0.8b, #0
   8c3f0:	9e660003 	fmov	x3, d0
   8c3f4:	b4ffff63 	cbz	x3, 8c3e0 <strlen+0xa0>
   8c3f8:	4e209820 	cmeq	v0.16b, v1.16b, #0
   8c3fc:	cb000020 	sub	x0, x1, x0
   8c400:	35000063 	cbnz	w3, 8c40c <strlen+0xcc>
   8c404:	4e209840 	cmeq	v0.16b, v2.16b, #0
   8c408:	91004000 	add	x0, x0, #0x10
   8c40c:	0f0c8400 	shrn	v0.8b, v0.8h, #4
   8c410:	9e660003 	fmov	x3, d0
   8c414:	dac00063 	rbit	x3, x3
   8c418:	dac01062 	clz	x2, x3
   8c41c:	8b420800 	add	x0, x0, x2, lsr #2
   8c420:	d65f03c0 	ret
   8c424:	927be801 	and	x1, x0, #0xffffffffffffffe0
   8c428:	52818062 	mov	w2, #0xc03                 	// #3075
   8c42c:	72b80602 	movk	w2, #0xc030, lsl #16
   8c430:	4c40a021 	ld1	{v1.16b-v2.16b}, [x1]
   8c434:	4e040c40 	dup	v0.4s, w2
   8c438:	4e209821 	cmeq	v1.16b, v1.16b, #0
   8c43c:	4e209842 	cmeq	v2.16b, v2.16b, #0
   8c440:	4e201c21 	and	v1.16b, v1.16b, v0.16b
   8c444:	4e201c42 	and	v2.16b, v2.16b, v0.16b
   8c448:	4e22bc20 	addp	v0.16b, v1.16b, v2.16b
   8c44c:	4e20bc00 	addp	v0.16b, v0.16b, v0.16b
   8c450:	9e660003 	fmov	x3, d0
   8c454:	d37ff804 	lsl	x4, x0, #1
   8c458:	9ac42463 	lsr	x3, x3, x4
   8c45c:	b4fffc23 	cbz	x3, 8c3e0 <strlen+0xa0>
   8c460:	dac00063 	rbit	x3, x3
   8c464:	dac01060 	clz	x0, x3
   8c468:	d341fc00 	lsr	x0, x0, #1
   8c46c:	d65f03c0 	ret

000000000008c470 <wctob>:
   8c470:	3100041f 	cmn	w0, #0x1
   8c474:	54000320 	b.eq	8c4d8 <wctob+0x68>  // b.none
   8c478:	a9bd7bfd 	stp	x29, x30, [sp, #-48]!
   8c47c:	d2800102 	mov	x2, #0x8                   	// #8
   8c480:	52800001 	mov	w1, #0x0                   	// #0
   8c484:	910003fd 	mov	x29, sp
   8c488:	f9000bf3 	str	x19, [sp, #16]
   8c48c:	2a0003f3 	mov	w19, w0
   8c490:	9100a3e0 	add	x0, sp, #0x28
   8c494:	97ffff5b 	bl	8c200 <memset>
   8c498:	d0000020 	adrp	x0, 92000 <BitFont+0xbc0>
   8c49c:	d0000024 	adrp	x4, 92000 <BitFont+0xbc0>
   8c4a0:	9100a3e3 	add	x3, sp, #0x28
   8c4a4:	2a1303e2 	mov	w2, w19
   8c4a8:	f9475800 	ldr	x0, [x0, #3760]
   8c4ac:	910083e1 	add	x1, sp, #0x20
   8c4b0:	f946e084 	ldr	x4, [x4, #3520]
   8c4b4:	d63f0080 	blr	x4
   8c4b8:	7100041f 	cmp	w0, #0x1
   8c4bc:	540000a1 	b.ne	8c4d0 <wctob+0x60>  // b.any
   8c4c0:	394083e0 	ldrb	w0, [sp, #32]
   8c4c4:	f9400bf3 	ldr	x19, [sp, #16]
   8c4c8:	a8c37bfd 	ldp	x29, x30, [sp], #48
   8c4cc:	d65f03c0 	ret
   8c4d0:	12800000 	mov	w0, #0xffffffff            	// #-1
   8c4d4:	17fffffc 	b	8c4c4 <wctob+0x54>
   8c4d8:	12800000 	mov	w0, #0xffffffff            	// #-1
   8c4dc:	d65f03c0 	ret

000000000008c4e0 <currentlocale>:
   8c4e0:	a9bc7bfd 	stp	x29, x30, [sp, #-64]!
   8c4e4:	910003fd 	mov	x29, sp
   8c4e8:	a90153f3 	stp	x19, x20, [sp, #16]
   8c4ec:	d0000034 	adrp	x20, 92000 <BitFont+0xbc0>
   8c4f0:	91338294 	add	x20, x20, #0xce0
   8c4f4:	a9025bf5 	stp	x21, x22, [sp, #32]
   8c4f8:	d0000035 	adrp	x21, 92000 <BitFont+0xbc0>
   8c4fc:	913482b5 	add	x21, x21, #0xd20
   8c500:	f9001bf7 	str	x23, [sp, #48]
   8c504:	d0000037 	adrp	x23, 92000 <BitFont+0xbc0>
   8c508:	912fc2f7 	add	x23, x23, #0xbf0
   8c50c:	d0000036 	adrp	x22, 92000 <BitFont+0xbc0>
   8c510:	aa1503f3 	mov	x19, x21
   8c514:	913402c1 	add	x1, x22, #0xd00
   8c518:	91038294 	add	x20, x20, #0xe0
   8c51c:	913402d6 	add	x22, x22, #0xd00
   8c520:	aa1703e0 	mov	x0, x23
   8c524:	94000777 	bl	8e300 <strcpy>
   8c528:	aa1303e1 	mov	x1, x19
   8c52c:	aa1603e0 	mov	x0, x22
   8c530:	91008273 	add	x19, x19, #0x20
   8c534:	94000723 	bl	8e1c0 <strcmp>
   8c538:	35000120 	cbnz	w0, 8c55c <currentlocale+0x7c>
   8c53c:	eb14027f 	cmp	x19, x20
   8c540:	54ffff41 	b.ne	8c528 <currentlocale+0x48>  // b.any
   8c544:	a94153f3 	ldp	x19, x20, [sp, #16]
   8c548:	aa1703e0 	mov	x0, x23
   8c54c:	a9425bf5 	ldp	x21, x22, [sp, #32]
   8c550:	f9401bf7 	ldr	x23, [sp, #48]
   8c554:	a8c47bfd 	ldp	x29, x30, [sp], #64
   8c558:	d65f03c0 	ret
   8c55c:	b0000033 	adrp	x19, 91000 <__text_end__+0xc00>
   8c560:	910a4273 	add	x19, x19, #0x290
   8c564:	d503201f 	nop
   8c568:	aa1303e1 	mov	x1, x19
   8c56c:	aa1703e0 	mov	x0, x23
   8c570:	94000ca4 	bl	8f800 <strcat>
   8c574:	aa1503e1 	mov	x1, x21
   8c578:	aa1703e0 	mov	x0, x23
   8c57c:	910082b5 	add	x21, x21, #0x20
   8c580:	94000ca0 	bl	8f800 <strcat>
   8c584:	eb1402bf 	cmp	x21, x20
   8c588:	54ffff01 	b.ne	8c568 <currentlocale+0x88>  // b.any
   8c58c:	a94153f3 	ldp	x19, x20, [sp, #16]
   8c590:	aa1703e0 	mov	x0, x23
   8c594:	a9425bf5 	ldp	x21, x22, [sp, #32]
   8c598:	f9401bf7 	ldr	x23, [sp, #48]
   8c59c:	a8c47bfd 	ldp	x29, x30, [sp], #64
   8c5a0:	d65f03c0 	ret
	...

000000000008c5b0 <__loadlocale>:
   8c5b0:	a9b67bfd 	stp	x29, x30, [sp, #-160]!
   8c5b4:	910003fd 	mov	x29, sp
   8c5b8:	a90153f3 	stp	x19, x20, [sp, #16]
   8c5bc:	937b7c34 	sbfiz	x20, x1, #5, #32
   8c5c0:	8b140014 	add	x20, x0, x20
   8c5c4:	aa0203f3 	mov	x19, x2
   8c5c8:	a9025bf5 	stp	x21, x22, [sp, #32]
   8c5cc:	aa0003f6 	mov	x22, x0
   8c5d0:	aa0203e0 	mov	x0, x2
   8c5d4:	a90363f7 	stp	x23, x24, [sp, #48]
   8c5d8:	2a0103f7 	mov	w23, w1
   8c5dc:	aa1403e1 	mov	x1, x20
   8c5e0:	940006f8 	bl	8e1c0 <strcmp>
   8c5e4:	350000e0 	cbnz	w0, 8c600 <__loadlocale+0x50>
   8c5e8:	a9425bf5 	ldp	x21, x22, [sp, #32]
   8c5ec:	aa1403e0 	mov	x0, x20
   8c5f0:	a94153f3 	ldp	x19, x20, [sp, #16]
   8c5f4:	a94363f7 	ldp	x23, x24, [sp, #48]
   8c5f8:	a8ca7bfd 	ldp	x29, x30, [sp], #160
   8c5fc:	d65f03c0 	ret
   8c600:	aa1303e0 	mov	x0, x19
   8c604:	b0000021 	adrp	x1, 91000 <__text_end__+0xc00>
   8c608:	b0000035 	adrp	x21, 91000 <__text_end__+0xc00>
   8c60c:	910a6021 	add	x1, x1, #0x298
   8c610:	910a82b5 	add	x21, x21, #0x2a0
   8c614:	940006eb 	bl	8e1c0 <strcmp>
   8c618:	340008e0 	cbz	w0, 8c734 <__loadlocale+0x184>
   8c61c:	aa1503e1 	mov	x1, x21
   8c620:	aa1303e0 	mov	x0, x19
   8c624:	940006e7 	bl	8e1c0 <strcmp>
   8c628:	34000780 	cbz	w0, 8c718 <__loadlocale+0x168>
   8c62c:	39400260 	ldrb	w0, [x19]
   8c630:	71010c1f 	cmp	w0, #0x43
   8c634:	540008e0 	b.eq	8c750 <__loadlocale+0x1a0>  // b.none
   8c638:	51018400 	sub	w0, w0, #0x61
   8c63c:	12001c00 	and	w0, w0, #0xff
   8c640:	7100641f 	cmp	w0, #0x19
   8c644:	54000668 	b.hi	8c710 <__loadlocale+0x160>  // b.pmore
   8c648:	39400660 	ldrb	w0, [x19, #1]
   8c64c:	51018400 	sub	w0, w0, #0x61
   8c650:	12001c00 	and	w0, w0, #0xff
   8c654:	7100641f 	cmp	w0, #0x19
   8c658:	540005c8 	b.hi	8c710 <__loadlocale+0x160>  // b.pmore
   8c65c:	39400a60 	ldrb	w0, [x19, #2]
   8c660:	91000a78 	add	x24, x19, #0x2
   8c664:	51018401 	sub	w1, w0, #0x61
   8c668:	12001c21 	and	w1, w1, #0xff
   8c66c:	7100643f 	cmp	w1, #0x19
   8c670:	54000068 	b.hi	8c67c <__loadlocale+0xcc>  // b.pmore
   8c674:	39400e60 	ldrb	w0, [x19, #3]
   8c678:	91000e78 	add	x24, x19, #0x3
   8c67c:	71017c1f 	cmp	w0, #0x5f
   8c680:	54000900 	b.eq	8c7a0 <__loadlocale+0x1f0>  // b.none
   8c684:	7100b81f 	cmp	w0, #0x2e
   8c688:	54002f60 	b.eq	8cc74 <__loadlocale+0x6c4>  // b.none
   8c68c:	528017e1 	mov	w1, #0xbf                  	// #191
   8c690:	6a01001f 	tst	w0, w1
   8c694:	540003e1 	b.ne	8c710 <__loadlocale+0x160>  // b.any
   8c698:	910203f5 	add	x21, sp, #0x80
   8c69c:	b0000021 	adrp	x1, 91000 <__text_end__+0xc00>
   8c6a0:	aa1503e0 	mov	x0, x21
   8c6a4:	910ac021 	add	x1, x1, #0x2b0
   8c6a8:	a9046bf9 	stp	x25, x26, [sp, #64]
   8c6ac:	94000715 	bl	8e300 <strcpy>
   8c6b0:	39400300 	ldrb	w0, [x24]
   8c6b4:	7101001f 	cmp	w0, #0x40
   8c6b8:	54002e40 	b.eq	8cc80 <__loadlocale+0x6d0>  // b.none
   8c6bc:	52800018 	mov	w24, #0x0                   	// #0
   8c6c0:	52800019 	mov	w25, #0x0                   	// #0
   8c6c4:	5280001a 	mov	w26, #0x0                   	// #0
   8c6c8:	394203e1 	ldrb	w1, [sp, #128]
   8c6cc:	51010421 	sub	w1, w1, #0x41
   8c6d0:	7100d03f 	cmp	w1, #0x34
   8c6d4:	54000388 	b.hi	8c744 <__loadlocale+0x194>  // b.pmore
   8c6d8:	d0000020 	adrp	x0, 92000 <BitFont+0xbc0>
   8c6dc:	911b5000 	add	x0, x0, #0x6d4
   8c6e0:	a90573fb 	stp	x27, x28, [sp, #80]
   8c6e4:	78615800 	ldrh	w0, [x0, w1, uxtw #1]
   8c6e8:	10000061 	adr	x1, 8c6f4 <__loadlocale+0x144>
   8c6ec:	8b20a820 	add	x0, x1, w0, sxth #2
   8c6f0:	d61f0000 	br	x0
   8c6f4:	d10d4800 	sub	x0, x0, #0x352
   8c6f8:	d28234a1 	mov	x1, #0x11a5                	// #4517
   8c6fc:	f2a00021 	movk	x1, #0x1, lsl #16
   8c700:	9ac02420 	lsr	x0, x1, x0
   8c704:	37000c60 	tbnz	w0, #0, 8c890 <__loadlocale+0x2e0>
   8c708:	a9446bf9 	ldp	x25, x26, [sp, #64]
   8c70c:	a94573fb 	ldp	x27, x28, [sp, #80]
   8c710:	d2800014 	mov	x20, #0x0                   	// #0
   8c714:	17ffffb5 	b	8c5e8 <__loadlocale+0x38>
   8c718:	910203f5 	add	x21, sp, #0x80
   8c71c:	b0000021 	adrp	x1, 91000 <__text_end__+0xc00>
   8c720:	aa1503e0 	mov	x0, x21
   8c724:	910aa021 	add	x1, x1, #0x2a8
   8c728:	a9046bf9 	stp	x25, x26, [sp, #64]
   8c72c:	940006f5 	bl	8e300 <strcpy>
   8c730:	17ffffe3 	b	8c6bc <__loadlocale+0x10c>
   8c734:	aa1503e1 	mov	x1, x21
   8c738:	aa1303e0 	mov	x0, x19
   8c73c:	940006f1 	bl	8e300 <strcpy>
   8c740:	17ffffb7 	b	8c61c <__loadlocale+0x6c>
   8c744:	a9446bf9 	ldp	x25, x26, [sp, #64]
   8c748:	d2800014 	mov	x20, #0x0                   	// #0
   8c74c:	17ffffa7 	b	8c5e8 <__loadlocale+0x38>
   8c750:	39400660 	ldrb	w0, [x19, #1]
   8c754:	5100b400 	sub	w0, w0, #0x2d
   8c758:	12001c00 	and	w0, w0, #0xff
   8c75c:	7100041f 	cmp	w0, #0x1
   8c760:	54fffd88 	b.hi	8c710 <__loadlocale+0x160>  // b.pmore
   8c764:	91000a78 	add	x24, x19, #0x2
   8c768:	a9046bf9 	stp	x25, x26, [sp, #64]
   8c76c:	910203f5 	add	x21, sp, #0x80
   8c770:	aa1803e1 	mov	x1, x24
   8c774:	aa1503e0 	mov	x0, x21
   8c778:	940006e2 	bl	8e300 <strcpy>
   8c77c:	aa1503e0 	mov	x0, x21
   8c780:	52800801 	mov	w1, #0x40                  	// #64
   8c784:	9400040f 	bl	8d7c0 <strchr>
   8c788:	b4000040 	cbz	x0, 8c790 <__loadlocale+0x1e0>
   8c78c:	3900001f 	strb	wzr, [x0]
   8c790:	aa1503e0 	mov	x0, x21
   8c794:	97fffeeb 	bl	8c340 <strlen>
   8c798:	8b000318 	add	x24, x24, x0
   8c79c:	17ffffc5 	b	8c6b0 <__loadlocale+0x100>
   8c7a0:	39400700 	ldrb	w0, [x24, #1]
   8c7a4:	51010400 	sub	w0, w0, #0x41
   8c7a8:	12001c00 	and	w0, w0, #0xff
   8c7ac:	7100641f 	cmp	w0, #0x19
   8c7b0:	54fffb08 	b.hi	8c710 <__loadlocale+0x160>  // b.pmore
   8c7b4:	39400b00 	ldrb	w0, [x24, #2]
   8c7b8:	51010400 	sub	w0, w0, #0x41
   8c7bc:	12001c00 	and	w0, w0, #0xff
   8c7c0:	7100641f 	cmp	w0, #0x19
   8c7c4:	54fffa68 	b.hi	8c710 <__loadlocale+0x160>  // b.pmore
   8c7c8:	39400f00 	ldrb	w0, [x24, #3]
   8c7cc:	91000f18 	add	x24, x24, #0x3
   8c7d0:	17ffffad 	b	8c684 <__loadlocale+0xd4>
   8c7d4:	b000003b 	adrp	x27, 91000 <__text_end__+0xc00>
   8c7d8:	910ba37b 	add	x27, x27, #0x2e8
   8c7dc:	aa1b03e1 	mov	x1, x27
   8c7e0:	aa1503e0 	mov	x0, x21
   8c7e4:	94000beb 	bl	8f790 <strcasecmp>
   8c7e8:	340000c0 	cbz	w0, 8c800 <__loadlocale+0x250>
   8c7ec:	b0000021 	adrp	x1, 91000 <__text_end__+0xc00>
   8c7f0:	aa1503e0 	mov	x0, x21
   8c7f4:	910bc021 	add	x1, x1, #0x2f0
   8c7f8:	94000be6 	bl	8f790 <strcasecmp>
   8c7fc:	35fff860 	cbnz	w0, 8c708 <__loadlocale+0x158>
   8c800:	aa1b03e1 	mov	x1, x27
   8c804:	aa1503e0 	mov	x0, x21
   8c808:	940006be 	bl	8e300 <strcpy>
   8c80c:	d000001b 	adrp	x27, 8e000 <__sfp+0xa0>
   8c810:	b0000002 	adrp	x2, 8d000 <_setlocale_r+0x240>
   8c814:	913e437b 	add	x27, x27, #0xf90
   8c818:	91258042 	add	x2, x2, #0x960
   8c81c:	528000dc 	mov	w28, #0x6                   	// #6
   8c820:	71000aff 	cmp	w23, #0x2
   8c824:	54001fa0 	b.eq	8cc18 <__loadlocale+0x668>  // b.none
   8c828:	71001aff 	cmp	w23, #0x6
   8c82c:	54000081 	b.ne	8c83c <__loadlocale+0x28c>  // b.any
   8c830:	aa1503e1 	mov	x1, x21
   8c834:	91060ac0 	add	x0, x22, #0x182
   8c838:	940006b2 	bl	8e300 <strcpy>
   8c83c:	aa1303e1 	mov	x1, x19
   8c840:	aa1403e0 	mov	x0, x20
   8c844:	940006af 	bl	8e300 <strcpy>
   8c848:	aa0003f4 	mov	x20, x0
   8c84c:	a9425bf5 	ldp	x21, x22, [sp, #32]
   8c850:	aa1403e0 	mov	x0, x20
   8c854:	a94153f3 	ldp	x19, x20, [sp, #16]
   8c858:	a94363f7 	ldp	x23, x24, [sp, #48]
   8c85c:	a9446bf9 	ldp	x25, x26, [sp, #64]
   8c860:	a94573fb 	ldp	x27, x28, [sp, #80]
   8c864:	a8ca7bfd 	ldp	x29, x30, [sp], #160
   8c868:	d65f03c0 	ret
   8c86c:	b0000021 	adrp	x1, 91000 <__text_end__+0xc00>
   8c870:	aa1503e0 	mov	x0, x21
   8c874:	910e2021 	add	x1, x1, #0x388
   8c878:	94000bc6 	bl	8f790 <strcasecmp>
   8c87c:	35fff460 	cbnz	w0, 8c708 <__loadlocale+0x158>
   8c880:	b0000021 	adrp	x1, 91000 <__text_end__+0xc00>
   8c884:	aa1503e0 	mov	x0, x21
   8c888:	910e4021 	add	x1, x1, #0x390
   8c88c:	9400069d 	bl	8e300 <strcpy>
   8c890:	d000001b 	adrp	x27, 8e000 <__sfp+0xa0>
   8c894:	b0000002 	adrp	x2, 8d000 <_setlocale_r+0x240>
   8c898:	913d037b 	add	x27, x27, #0xf40
   8c89c:	91248042 	add	x2, x2, #0x920
   8c8a0:	5280003c 	mov	w28, #0x1                   	// #1
   8c8a4:	17ffffdf 	b	8c820 <__loadlocale+0x270>
   8c8a8:	b0000021 	adrp	x1, 91000 <__text_end__+0xc00>
   8c8ac:	aa1503e0 	mov	x0, x21
   8c8b0:	910d2021 	add	x1, x1, #0x348
   8c8b4:	d2800082 	mov	x2, #0x4                   	// #4
   8c8b8:	940003f6 	bl	8d890 <strncasecmp>
   8c8bc:	35fff260 	cbnz	w0, 8c708 <__loadlocale+0x158>
   8c8c0:	394213e0 	ldrb	w0, [sp, #132]
   8c8c4:	394217e1 	ldrb	w1, [sp, #133]
   8c8c8:	7100b41f 	cmp	w0, #0x2d
   8c8cc:	1a800020 	csel	w0, w1, w0, eq	// eq = none
   8c8d0:	51014800 	sub	w0, w0, #0x52
   8c8d4:	12001c00 	and	w0, w0, #0xff
   8c8d8:	71008c1f 	cmp	w0, #0x23
   8c8dc:	54fff168 	b.hi	8c708 <__loadlocale+0x158>  // b.pmore
   8c8e0:	d2800021 	mov	x1, #0x1                   	// #1
   8c8e4:	9ac02020 	lsl	x0, x1, x0
   8c8e8:	f21e001f 	tst	x0, #0x400000004
   8c8ec:	540020e1 	b.ne	8cd08 <__loadlocale+0x758>  // b.any
   8c8f0:	f21d001f 	tst	x0, #0x800000008
   8c8f4:	54002001 	b.ne	8ccf4 <__loadlocale+0x744>  // b.any
   8c8f8:	f200001f 	tst	x0, #0x100000001
   8c8fc:	54fff060 	b.eq	8c708 <__loadlocale+0x158>  // b.none
   8c900:	aa1503e0 	mov	x0, x21
   8c904:	b0000021 	adrp	x1, 91000 <__text_end__+0xc00>
   8c908:	910d4021 	add	x1, x1, #0x350
   8c90c:	9400067d 	bl	8e300 <strcpy>
   8c910:	17ffffe0 	b	8c890 <__loadlocale+0x2e0>
   8c914:	b000003b 	adrp	x27, 91000 <__text_end__+0xc00>
   8c918:	910be37b 	add	x27, x27, #0x2f8
   8c91c:	aa1b03e1 	mov	x1, x27
   8c920:	aa1503e0 	mov	x0, x21
   8c924:	94000b9b 	bl	8f790 <strcasecmp>
   8c928:	35ffef00 	cbnz	w0, 8c708 <__loadlocale+0x158>
   8c92c:	aa1b03e1 	mov	x1, x27
   8c930:	aa1503e0 	mov	x0, x21
   8c934:	94000673 	bl	8e300 <strcpy>
   8c938:	f000001b 	adrp	x27, 8f000 <__utf8_mbtowc+0x70>
   8c93c:	b0000002 	adrp	x2, 8d000 <_setlocale_r+0x240>
   8c940:	9111437b 	add	x27, x27, #0x450
   8c944:	912e4042 	add	x2, x2, #0xb90
   8c948:	5280011c 	mov	w28, #0x8                   	// #8
   8c94c:	17ffffb5 	b	8c820 <__loadlocale+0x270>
   8c950:	b0000021 	adrp	x1, 91000 <__text_end__+0xc00>
   8c954:	aa1503e0 	mov	x0, x21
   8c958:	910c8021 	add	x1, x1, #0x320
   8c95c:	d2800062 	mov	x2, #0x3                   	// #3
   8c960:	940003cc 	bl	8d890 <strncasecmp>
   8c964:	35ffed20 	cbnz	w0, 8c708 <__loadlocale+0x158>
   8c968:	39420fe0 	ldrb	w0, [sp, #131]
   8c96c:	b0000021 	adrp	x1, 91000 <__text_end__+0xc00>
   8c970:	d2800082 	mov	x2, #0x4                   	// #4
   8c974:	910ca021 	add	x1, x1, #0x328
   8c978:	7100b41f 	cmp	w0, #0x2d
   8c97c:	910283e0 	add	x0, sp, #0xa0
   8c980:	9a80141b 	cinc	x27, x0, eq	// eq = none
   8c984:	d100777b 	sub	x27, x27, #0x1d
   8c988:	aa1b03e0 	mov	x0, x27
   8c98c:	940003c1 	bl	8d890 <strncasecmp>
   8c990:	35ffebc0 	cbnz	w0, 8c708 <__loadlocale+0x158>
   8c994:	39401360 	ldrb	w0, [x27, #4]
   8c998:	9101e3e1 	add	x1, sp, #0x78
   8c99c:	52800142 	mov	w2, #0xa                   	// #10
   8c9a0:	7100b41f 	cmp	w0, #0x2d
   8c9a4:	9a9b1760 	cinc	x0, x27, eq	// eq = none
   8c9a8:	91001000 	add	x0, x0, #0x4
   8c9ac:	94000315 	bl	8d600 <strtol>
   8c9b0:	aa0003fb 	mov	x27, x0
   8c9b4:	d1000400 	sub	x0, x0, #0x1
   8c9b8:	f1003c1f 	cmp	x0, #0xf
   8c9bc:	fa4c9b64 	ccmp	x27, #0xc, #0x4, ls	// ls = plast
   8c9c0:	54ffea40 	b.eq	8c708 <__loadlocale+0x158>  // b.none
   8c9c4:	f9403fe0 	ldr	x0, [sp, #120]
   8c9c8:	39400000 	ldrb	w0, [x0]
   8c9cc:	35ffe9e0 	cbnz	w0, 8c708 <__loadlocale+0x158>
   8c9d0:	aa1503e0 	mov	x0, x21
   8c9d4:	b0000021 	adrp	x1, 91000 <__text_end__+0xc00>
   8c9d8:	910cc021 	add	x1, x1, #0x330
   8c9dc:	94000649 	bl	8e300 <strcpy>
   8c9e0:	910227e2 	add	x2, sp, #0x89
   8c9e4:	f1002b7f 	cmp	x27, #0xa
   8c9e8:	5400008d 	b.le	8c9f8 <__loadlocale+0x448>
   8c9ec:	91022be2 	add	x2, sp, #0x8a
   8c9f0:	52800620 	mov	w0, #0x31                  	// #49
   8c9f4:	390227e0 	strb	w0, [sp, #137]
   8c9f8:	b203e7e1 	mov	x1, #0x6666666666666666    	// #7378697629483820646
   8c9fc:	3900045f 	strb	wzr, [x2, #1]
   8ca00:	f28ccce1 	movk	x1, #0x6667
   8ca04:	9b417f61 	smulh	x1, x27, x1
   8ca08:	9342fc21 	asr	x1, x1, #2
   8ca0c:	cb9bfc21 	sub	x1, x1, x27, asr #63
   8ca10:	8b010821 	add	x1, x1, x1, lsl #2
   8ca14:	cb010760 	sub	x0, x27, x1, lsl #1
   8ca18:	1100c000 	add	w0, w0, #0x30
   8ca1c:	39000040 	strb	w0, [x2]
   8ca20:	17ffff9c 	b	8c890 <__loadlocale+0x2e0>
   8ca24:	b0000021 	adrp	x1, 91000 <__text_end__+0xc00>
   8ca28:	aa1503e0 	mov	x0, x21
   8ca2c:	910e6021 	add	x1, x1, #0x398
   8ca30:	d2800062 	mov	x2, #0x3                   	// #3
   8ca34:	94000397 	bl	8d890 <strncasecmp>
   8ca38:	35ffe680 	cbnz	w0, 8c708 <__loadlocale+0x158>
   8ca3c:	39420fe0 	ldrb	w0, [sp, #131]
   8ca40:	b0000021 	adrp	x1, 91000 <__text_end__+0xc00>
   8ca44:	910e8021 	add	x1, x1, #0x3a0
   8ca48:	7100b41f 	cmp	w0, #0x2d
   8ca4c:	910283e0 	add	x0, sp, #0xa0
   8ca50:	9a801400 	cinc	x0, x0, eq	// eq = none
   8ca54:	d1007400 	sub	x0, x0, #0x1d
   8ca58:	940005da 	bl	8e1c0 <strcmp>
   8ca5c:	35ffe560 	cbnz	w0, 8c708 <__loadlocale+0x158>
   8ca60:	aa1503e0 	mov	x0, x21
   8ca64:	b0000021 	adrp	x1, 91000 <__text_end__+0xc00>
   8ca68:	910ea021 	add	x1, x1, #0x3a8
   8ca6c:	94000625 	bl	8e300 <strcpy>
   8ca70:	17ffff88 	b	8c890 <__loadlocale+0x2e0>
   8ca74:	b000003b 	adrp	x27, 91000 <__text_end__+0xc00>
   8ca78:	910c637b 	add	x27, x27, #0x318
   8ca7c:	aa1b03e1 	mov	x1, x27
   8ca80:	aa1503e0 	mov	x0, x21
   8ca84:	94000b43 	bl	8f790 <strcasecmp>
   8ca88:	35ffe400 	cbnz	w0, 8c708 <__loadlocale+0x158>
   8ca8c:	aa1b03e1 	mov	x1, x27
   8ca90:	aa1503e0 	mov	x0, x21
   8ca94:	9400061b 	bl	8e300 <strcpy>
   8ca98:	f000001b 	adrp	x27, 8f000 <__utf8_mbtowc+0x70>
   8ca9c:	b0000002 	adrp	x2, 8d000 <_setlocale_r+0x240>
   8caa0:	9109437b 	add	x27, x27, #0x250
   8caa4:	91294042 	add	x2, x2, #0xa50
   8caa8:	5280005c 	mov	w28, #0x2                   	// #2
   8caac:	17ffff5d 	b	8c820 <__loadlocale+0x270>
   8cab0:	b0000021 	adrp	x1, 91000 <__text_end__+0xc00>
   8cab4:	aa1503e0 	mov	x0, x21
   8cab8:	910da021 	add	x1, x1, #0x368
   8cabc:	d2800102 	mov	x2, #0x8                   	// #8
   8cac0:	94000374 	bl	8d890 <strncasecmp>
   8cac4:	35ffe220 	cbnz	w0, 8c708 <__loadlocale+0x158>
   8cac8:	394223e0 	ldrb	w0, [sp, #136]
   8cacc:	b0000021 	adrp	x1, 91000 <__text_end__+0xc00>
   8cad0:	910de021 	add	x1, x1, #0x378
   8cad4:	7100b41f 	cmp	w0, #0x2d
   8cad8:	910283e0 	add	x0, sp, #0xa0
   8cadc:	9a801400 	cinc	x0, x0, eq	// eq = none
   8cae0:	d1006000 	sub	x0, x0, #0x18
   8cae4:	94000b2b 	bl	8f790 <strcasecmp>
   8cae8:	35ffe100 	cbnz	w0, 8c708 <__loadlocale+0x158>
   8caec:	aa1503e0 	mov	x0, x21
   8caf0:	b0000021 	adrp	x1, 91000 <__text_end__+0xc00>
   8caf4:	910e0021 	add	x1, x1, #0x380
   8caf8:	94000602 	bl	8e300 <strcpy>
   8cafc:	17ffff65 	b	8c890 <__loadlocale+0x2e0>
   8cb00:	b0000021 	adrp	x1, 91000 <__text_end__+0xc00>
   8cb04:	aa1503e0 	mov	x0, x21
   8cb08:	910c0021 	add	x1, x1, #0x300
   8cb0c:	d2800062 	mov	x2, #0x3                   	// #3
   8cb10:	94000360 	bl	8d890 <strncasecmp>
   8cb14:	35ffdfa0 	cbnz	w0, 8c708 <__loadlocale+0x158>
   8cb18:	39420fe0 	ldrb	w0, [sp, #131]
   8cb1c:	b0000021 	adrp	x1, 91000 <__text_end__+0xc00>
   8cb20:	910c2021 	add	x1, x1, #0x308
   8cb24:	7100b41f 	cmp	w0, #0x2d
   8cb28:	910283e0 	add	x0, sp, #0xa0
   8cb2c:	9a801400 	cinc	x0, x0, eq	// eq = none
   8cb30:	d1007400 	sub	x0, x0, #0x1d
   8cb34:	94000b17 	bl	8f790 <strcasecmp>
   8cb38:	35ffde80 	cbnz	w0, 8c708 <__loadlocale+0x158>
   8cb3c:	aa1503e0 	mov	x0, x21
   8cb40:	b0000021 	adrp	x1, 91000 <__text_end__+0xc00>
   8cb44:	910c4021 	add	x1, x1, #0x310
   8cb48:	940005ee 	bl	8e300 <strcpy>
   8cb4c:	f000001b 	adrp	x27, 8f000 <__utf8_mbtowc+0x70>
   8cb50:	b0000002 	adrp	x2, 8d000 <_setlocale_r+0x240>
   8cb54:	910c837b 	add	x27, x27, #0x320
   8cb58:	912b8042 	add	x2, x2, #0xae0
   8cb5c:	5280007c 	mov	w28, #0x3                   	// #3
   8cb60:	17ffff30 	b	8c820 <__loadlocale+0x270>
   8cb64:	394207e0 	ldrb	w0, [sp, #129]
   8cb68:	121a7800 	and	w0, w0, #0xffffffdf
   8cb6c:	12001c00 	and	w0, w0, #0xff
   8cb70:	7101401f 	cmp	w0, #0x50
   8cb74:	54ffdca1 	b.ne	8c708 <__loadlocale+0x158>  // b.any
   8cb78:	d2800042 	mov	x2, #0x2                   	// #2
   8cb7c:	aa1503e0 	mov	x0, x21
   8cb80:	b0000021 	adrp	x1, 91000 <__text_end__+0xc00>
   8cb84:	910d0021 	add	x1, x1, #0x340
   8cb88:	94000432 	bl	8dc50 <strncpy>
   8cb8c:	9101e3e1 	add	x1, sp, #0x78
   8cb90:	91020be0 	add	x0, sp, #0x82
   8cb94:	52800142 	mov	w2, #0xa                   	// #10
   8cb98:	9400029a 	bl	8d600 <strtol>
   8cb9c:	f9403fe1 	ldr	x1, [sp, #120]
   8cba0:	39400021 	ldrb	w1, [x1]
   8cba4:	35ffdb21 	cbnz	w1, 8c708 <__loadlocale+0x158>
   8cba8:	f10e901f 	cmp	x0, #0x3a4
   8cbac:	54fff760 	b.eq	8ca98 <__loadlocale+0x4e8>  // b.none
   8cbb0:	54000b6c 	b.gt	8cd1c <__loadlocale+0x76c>
   8cbb4:	f10d881f 	cmp	x0, #0x362
   8cbb8:	54000bec 	b.gt	8cd34 <__loadlocale+0x784>
   8cbbc:	f10d441f 	cmp	x0, #0x351
   8cbc0:	54ffd9ac 	b.gt	8c6f4 <__loadlocale+0x144>
   8cbc4:	f106d41f 	cmp	x0, #0x1b5
   8cbc8:	54ffe640 	b.eq	8c890 <__loadlocale+0x2e0>  // b.none
   8cbcc:	d10b4000 	sub	x0, x0, #0x2d0
   8cbd0:	f100dc1f 	cmp	x0, #0x37
   8cbd4:	54ffd9a8 	b.hi	8c708 <__loadlocale+0x158>  // b.pmore
   8cbd8:	d2800021 	mov	x1, #0x1                   	// #1
   8cbdc:	f2a00041 	movk	x1, #0x2, lsl #16
   8cbe0:	f2e01001 	movk	x1, #0x80, lsl #48
   8cbe4:	9ac02420 	lsr	x0, x1, x0
   8cbe8:	3707e540 	tbnz	w0, #0, 8c890 <__loadlocale+0x2e0>
   8cbec:	17fffec7 	b	8c708 <__loadlocale+0x158>
   8cbf0:	b000003b 	adrp	x27, 91000 <__text_end__+0xc00>
   8cbf4:	910aa37b 	add	x27, x27, #0x2a8
   8cbf8:	aa1b03e1 	mov	x1, x27
   8cbfc:	aa1503e0 	mov	x0, x21
   8cc00:	94000ae4 	bl	8f790 <strcasecmp>
   8cc04:	35ffd820 	cbnz	w0, 8c708 <__loadlocale+0x158>
   8cc08:	aa1b03e1 	mov	x1, x27
   8cc0c:	aa1503e0 	mov	x0, x21
   8cc10:	940005bc 	bl	8e300 <strcpy>
   8cc14:	17ffff1f 	b	8c890 <__loadlocale+0x2e0>
   8cc18:	aa1503e1 	mov	x1, x21
   8cc1c:	91058ac0 	add	x0, x22, #0x162
   8cc20:	f90037e2 	str	x2, [sp, #104]
   8cc24:	940005b7 	bl	8e300 <strcpy>
   8cc28:	f94037e2 	ldr	x2, [sp, #104]
   8cc2c:	a90e6ec2 	stp	x2, x27, [x22, #224]
   8cc30:	aa1503e1 	mov	x1, x21
   8cc34:	390582dc 	strb	w28, [x22, #352]
   8cc38:	aa1603e0 	mov	x0, x22
   8cc3c:	94000b11 	bl	8f880 <__set_ctype>
   8cc40:	35000138 	cbnz	w24, 8cc64 <__loadlocale+0x6b4>
   8cc44:	7100079f 	cmp	w28, #0x1
   8cc48:	52000339 	eor	w25, w25, #0x1
   8cc4c:	1a9fd7e0 	cset	w0, gt
   8cc50:	6a00033f 	tst	w25, w0
   8cc54:	54000080 	b.eq	8cc64 <__loadlocale+0x6b4>  // b.none
   8cc58:	394203e0 	ldrb	w0, [sp, #128]
   8cc5c:	7101541f 	cmp	w0, #0x55
   8cc60:	1a9f07f8 	cset	w24, ne	// ne = any
   8cc64:	7100035f 	cmp	w26, #0x0
   8cc68:	5a9f0318 	csinv	w24, w24, wzr, eq	// eq = none
   8cc6c:	b900f2d8 	str	w24, [x22, #240]
   8cc70:	17fffef3 	b	8c83c <__loadlocale+0x28c>
   8cc74:	91000718 	add	x24, x24, #0x1
   8cc78:	a9046bf9 	stp	x25, x26, [sp, #64]
   8cc7c:	17fffebc 	b	8c76c <__loadlocale+0x1bc>
   8cc80:	a90573fb 	stp	x27, x28, [sp, #80]
   8cc84:	9100071b 	add	x27, x24, #0x1
   8cc88:	aa1b03e0 	mov	x0, x27
   8cc8c:	b0000021 	adrp	x1, 91000 <__text_end__+0xc00>
   8cc90:	52800018 	mov	w24, #0x0                   	// #0
   8cc94:	910b0021 	add	x1, x1, #0x2c0
   8cc98:	5280003a 	mov	w26, #0x1                   	// #1
   8cc9c:	94000549 	bl	8e1c0 <strcmp>
   8cca0:	2a0003f9 	mov	w25, w0
   8cca4:	35000060 	cbnz	w0, 8ccb0 <__loadlocale+0x700>
   8cca8:	a94573fb 	ldp	x27, x28, [sp, #80]
   8ccac:	17fffe87 	b	8c6c8 <__loadlocale+0x118>
   8ccb0:	aa1b03e0 	mov	x0, x27
   8ccb4:	b0000021 	adrp	x1, 91000 <__text_end__+0xc00>
   8ccb8:	5280001a 	mov	w26, #0x0                   	// #0
   8ccbc:	910b4021 	add	x1, x1, #0x2d0
   8ccc0:	52800039 	mov	w25, #0x1                   	// #1
   8ccc4:	9400053f 	bl	8e1c0 <strcmp>
   8ccc8:	2a0003f8 	mov	w24, w0
   8cccc:	34fffee0 	cbz	w0, 8cca8 <__loadlocale+0x6f8>
   8ccd0:	aa1b03e0 	mov	x0, x27
   8ccd4:	b0000021 	adrp	x1, 91000 <__text_end__+0xc00>
   8ccd8:	910b8021 	add	x1, x1, #0x2e0
   8ccdc:	94000539 	bl	8e1c0 <strcmp>
   8cce0:	7100001f 	cmp	w0, #0x0
   8cce4:	52800019 	mov	w25, #0x0                   	// #0
   8cce8:	a94573fb 	ldp	x27, x28, [sp, #80]
   8ccec:	1a9f17f8 	cset	w24, eq	// eq = none
   8ccf0:	17fffe76 	b	8c6c8 <__loadlocale+0x118>
   8ccf4:	aa1503e0 	mov	x0, x21
   8ccf8:	b0000021 	adrp	x1, 91000 <__text_end__+0xc00>
   8ccfc:	910d6021 	add	x1, x1, #0x358
   8cd00:	94000580 	bl	8e300 <strcpy>
   8cd04:	17fffee3 	b	8c890 <__loadlocale+0x2e0>
   8cd08:	aa1503e0 	mov	x0, x21
   8cd0c:	b0000021 	adrp	x1, 91000 <__text_end__+0xc00>
   8cd10:	910d8021 	add	x1, x1, #0x360
   8cd14:	9400057b 	bl	8e300 <strcpy>
   8cd18:	17fffede 	b	8c890 <__loadlocale+0x2e0>
   8cd1c:	f111941f 	cmp	x0, #0x465
   8cd20:	54ffdb80 	b.eq	8c890 <__loadlocale+0x2e0>  // b.none
   8cd24:	d1138800 	sub	x0, x0, #0x4e2
   8cd28:	f100201f 	cmp	x0, #0x8
   8cd2c:	54ffdb29 	b.ls	8c890 <__loadlocale+0x2e0>  // b.plast
   8cd30:	17fffe76 	b	8c708 <__loadlocale+0x158>
   8cd34:	f10da81f 	cmp	x0, #0x36a
   8cd38:	54ffce81 	b.ne	8c708 <__loadlocale+0x158>  // b.any
   8cd3c:	17fffed5 	b	8c890 <__loadlocale+0x2e0>

000000000008cd40 <__get_locale_env>:
   8cd40:	a9be7bfd 	stp	x29, x30, [sp, #-32]!
   8cd44:	910003fd 	mov	x29, sp
   8cd48:	a90153f3 	stp	x19, x20, [sp, #16]
   8cd4c:	2a0103f4 	mov	w20, w1
   8cd50:	aa0003f3 	mov	x19, x0
   8cd54:	b0000021 	adrp	x1, 91000 <__text_end__+0xc00>
   8cd58:	910ec021 	add	x1, x1, #0x3b0
   8cd5c:	9400027d 	bl	8d750 <_getenv_r>
   8cd60:	b4000060 	cbz	x0, 8cd6c <__get_locale_env+0x2c>
   8cd64:	39400001 	ldrb	w1, [x0]
   8cd68:	35000241 	cbnz	w1, 8cdb0 <__get_locale_env+0x70>
   8cd6c:	d0000021 	adrp	x1, 92000 <BitFont+0xbc0>
   8cd70:	9123c021 	add	x1, x1, #0x8f0
   8cd74:	aa1303e0 	mov	x0, x19
   8cd78:	f874d821 	ldr	x1, [x1, w20, sxtw #3]
   8cd7c:	94000275 	bl	8d750 <_getenv_r>
   8cd80:	b4000060 	cbz	x0, 8cd8c <__get_locale_env+0x4c>
   8cd84:	39400001 	ldrb	w1, [x0]
   8cd88:	35000141 	cbnz	w1, 8cdb0 <__get_locale_env+0x70>
   8cd8c:	b0000021 	adrp	x1, 91000 <__text_end__+0xc00>
   8cd90:	aa1303e0 	mov	x0, x19
   8cd94:	910ee021 	add	x1, x1, #0x3b8
   8cd98:	9400026e 	bl	8d750 <_getenv_r>
   8cd9c:	b4000060 	cbz	x0, 8cda8 <__get_locale_env+0x68>
   8cda0:	39400001 	ldrb	w1, [x0]
   8cda4:	35000061 	cbnz	w1, 8cdb0 <__get_locale_env+0x70>
   8cda8:	d0000020 	adrp	x0, 92000 <BitFont+0xbc0>
   8cdac:	913a4000 	add	x0, x0, #0xe90
   8cdb0:	a94153f3 	ldp	x19, x20, [sp, #16]
   8cdb4:	a8c27bfd 	ldp	x29, x30, [sp], #32
   8cdb8:	d65f03c0 	ret
   8cdbc:	00000000 	udf	#0

000000000008cdc0 <_setlocale_r>:
   8cdc0:	a9ba7bfd 	stp	x29, x30, [sp, #-96]!
   8cdc4:	910003fd 	mov	x29, sp
   8cdc8:	a90153f3 	stp	x19, x20, [sp, #16]
   8cdcc:	a9025bf5 	stp	x21, x22, [sp, #32]
   8cdd0:	a90363f7 	stp	x23, x24, [sp, #48]
   8cdd4:	aa0003f7 	mov	x23, x0
   8cdd8:	7100183f 	cmp	w1, #0x6
   8cddc:	54000c28 	b.hi	8cf60 <_setlocale_r+0x1a0>  // b.pmore
   8cde0:	a9046bf9 	stp	x25, x26, [sp, #64]
   8cde4:	aa0203f9 	mov	x25, x2
   8cde8:	f9002bfb 	str	x27, [sp, #80]
   8cdec:	2a0103fb 	mov	w27, w1
   8cdf0:	b4001142 	cbz	x2, 8d018 <_setlocale_r+0x258>
   8cdf4:	d0000096 	adrp	x22, 9e000 <aligned_bufs+0x1d60>
   8cdf8:	d0000035 	adrp	x21, 92000 <BitFont+0xbc0>
   8cdfc:	910e82d6 	add	x22, x22, #0x3a0
   8ce00:	913402b5 	add	x21, x21, #0xd00
   8ce04:	d0000098 	adrp	x24, 9e000 <aligned_bufs+0x1d60>
   8ce08:	910e0318 	add	x24, x24, #0x380
   8ce0c:	aa1603f3 	mov	x19, x22
   8ce10:	aa1503f4 	mov	x20, x21
   8ce14:	9103831a 	add	x26, x24, #0xe0
   8ce18:	aa1403e1 	mov	x1, x20
   8ce1c:	aa1303e0 	mov	x0, x19
   8ce20:	91008273 	add	x19, x19, #0x20
   8ce24:	94000537 	bl	8e300 <strcpy>
   8ce28:	91008294 	add	x20, x20, #0x20
   8ce2c:	eb13035f 	cmp	x26, x19
   8ce30:	54ffff41 	b.ne	8ce18 <_setlocale_r+0x58>  // b.any
   8ce34:	39400320 	ldrb	w0, [x25]
   8ce38:	350005e0 	cbnz	w0, 8cef4 <_setlocale_r+0x134>
   8ce3c:	350010fb 	cbnz	w27, 8d058 <_setlocale_r+0x298>
   8ce40:	aa1603f8 	mov	x24, x22
   8ce44:	52800033 	mov	w19, #0x1                   	// #1
   8ce48:	2a1303e1 	mov	w1, w19
   8ce4c:	aa1703e0 	mov	x0, x23
   8ce50:	97ffffbc 	bl	8cd40 <__get_locale_env>
   8ce54:	aa0003f4 	mov	x20, x0
   8ce58:	97fffd3a 	bl	8c340 <strlen>
   8ce5c:	aa0003e2 	mov	x2, x0
   8ce60:	aa1403e1 	mov	x1, x20
   8ce64:	aa1803e0 	mov	x0, x24
   8ce68:	f1007c5f 	cmp	x2, #0x1f
   8ce6c:	54000768 	b.hi	8cf58 <_setlocale_r+0x198>  // b.pmore
   8ce70:	11000673 	add	w19, w19, #0x1
   8ce74:	94000523 	bl	8e300 <strcpy>
   8ce78:	91008318 	add	x24, x24, #0x20
   8ce7c:	71001e7f 	cmp	w19, #0x7
   8ce80:	54fffe41 	b.ne	8ce48 <_setlocale_r+0x88>  // b.any
   8ce84:	d000009a 	adrp	x26, 9e000 <aligned_bufs+0x1d60>
   8ce88:	910b035a 	add	x26, x26, #0x2c0
   8ce8c:	d0000039 	adrp	x25, 92000 <BitFont+0xbc0>
   8ce90:	aa1a03f8 	mov	x24, x26
   8ce94:	aa1603f4 	mov	x20, x22
   8ce98:	91338339 	add	x25, x25, #0xce0
   8ce9c:	52800033 	mov	w19, #0x1                   	// #1
   8cea0:	aa1503e1 	mov	x1, x21
   8cea4:	aa1803e0 	mov	x0, x24
   8cea8:	94000516 	bl	8e300 <strcpy>
   8ceac:	aa1403e2 	mov	x2, x20
   8ceb0:	2a1303e1 	mov	w1, w19
   8ceb4:	aa1903e0 	mov	x0, x25
   8ceb8:	97fffdbe 	bl	8c5b0 <__loadlocale>
   8cebc:	b4000e80 	cbz	x0, 8d08c <_setlocale_r+0x2cc>
   8cec0:	11000673 	add	w19, w19, #0x1
   8cec4:	91008318 	add	x24, x24, #0x20
   8cec8:	910082b5 	add	x21, x21, #0x20
   8cecc:	91008294 	add	x20, x20, #0x20
   8ced0:	71001e7f 	cmp	w19, #0x7
   8ced4:	54fffe61 	b.ne	8cea0 <_setlocale_r+0xe0>  // b.any
   8ced8:	a94153f3 	ldp	x19, x20, [sp, #16]
   8cedc:	a9425bf5 	ldp	x21, x22, [sp, #32]
   8cee0:	a94363f7 	ldp	x23, x24, [sp, #48]
   8cee4:	a9446bf9 	ldp	x25, x26, [sp, #64]
   8cee8:	f9402bfb 	ldr	x27, [sp, #80]
   8ceec:	a8c67bfd 	ldp	x29, x30, [sp], #96
   8cef0:	17fffd7c 	b	8c4e0 <currentlocale>
   8cef4:	340003fb 	cbz	w27, 8cf70 <_setlocale_r+0x1b0>
   8cef8:	aa1903e0 	mov	x0, x25
   8cefc:	97fffd11 	bl	8c340 <strlen>
   8cf00:	f1007c1f 	cmp	x0, #0x1f
   8cf04:	540002a8 	b.hi	8cf58 <_setlocale_r+0x198>  // b.pmore
   8cf08:	937b7f73 	sbfiz	x19, x27, #5, #32
   8cf0c:	aa1903e1 	mov	x1, x25
   8cf10:	8b130313 	add	x19, x24, x19
   8cf14:	aa1303e0 	mov	x0, x19
   8cf18:	940004fa 	bl	8e300 <strcpy>
   8cf1c:	aa1303e2 	mov	x2, x19
   8cf20:	2a1b03e1 	mov	w1, w27
   8cf24:	d0000020 	adrp	x0, 92000 <BitFont+0xbc0>
   8cf28:	91338000 	add	x0, x0, #0xce0
   8cf2c:	97fffda1 	bl	8c5b0 <__loadlocale>
   8cf30:	aa0003f3 	mov	x19, x0
   8cf34:	97fffd6b 	bl	8c4e0 <currentlocale>
   8cf38:	a9446bf9 	ldp	x25, x26, [sp, #64]
   8cf3c:	f9402bfb 	ldr	x27, [sp, #80]
   8cf40:	aa1303e0 	mov	x0, x19
   8cf44:	a94153f3 	ldp	x19, x20, [sp, #16]
   8cf48:	a9425bf5 	ldp	x21, x22, [sp, #32]
   8cf4c:	a94363f7 	ldp	x23, x24, [sp, #48]
   8cf50:	a8c67bfd 	ldp	x29, x30, [sp], #96
   8cf54:	d65f03c0 	ret
   8cf58:	a9446bf9 	ldp	x25, x26, [sp, #64]
   8cf5c:	f9402bfb 	ldr	x27, [sp, #80]
   8cf60:	528002d5 	mov	w21, #0x16                  	// #22
   8cf64:	d2800013 	mov	x19, #0x0                   	// #0
   8cf68:	b90002f5 	str	w21, [x23]
   8cf6c:	17fffff5 	b	8cf40 <_setlocale_r+0x180>
   8cf70:	aa1903e0 	mov	x0, x25
   8cf74:	528005e1 	mov	w1, #0x2f                  	// #47
   8cf78:	94000212 	bl	8d7c0 <strchr>
   8cf7c:	aa0003f3 	mov	x19, x0
   8cf80:	b5000060 	cbnz	x0, 8cf8c <_setlocale_r+0x1cc>
   8cf84:	14000061 	b	8d108 <_setlocale_r+0x348>
   8cf88:	91000673 	add	x19, x19, #0x1
   8cf8c:	39400660 	ldrb	w0, [x19, #1]
   8cf90:	7100bc1f 	cmp	w0, #0x2f
   8cf94:	54ffffa0 	b.eq	8cf88 <_setlocale_r+0x1c8>  // b.none
   8cf98:	34fffe00 	cbz	w0, 8cf58 <_setlocale_r+0x198>
   8cf9c:	aa1603fa 	mov	x26, x22
   8cfa0:	52800034 	mov	w20, #0x1                   	// #1
   8cfa4:	cb190262 	sub	x2, x19, x25
   8cfa8:	71007c5f 	cmp	w2, #0x1f
   8cfac:	54fffd6c 	b.gt	8cf58 <_setlocale_r+0x198>
   8cfb0:	11000442 	add	w2, w2, #0x1
   8cfb4:	aa1903e1 	mov	x1, x25
   8cfb8:	aa1a03e0 	mov	x0, x26
   8cfbc:	11000694 	add	w20, w20, #0x1
   8cfc0:	93407c42 	sxtw	x2, w2
   8cfc4:	940001eb 	bl	8d770 <strlcpy>
   8cfc8:	39400261 	ldrb	w1, [x19]
   8cfcc:	7100bc3f 	cmp	w1, #0x2f
   8cfd0:	540000a1 	b.ne	8cfe4 <_setlocale_r+0x224>  // b.any
   8cfd4:	d503201f 	nop
   8cfd8:	38401e61 	ldrb	w1, [x19, #1]!
   8cfdc:	7100bc3f 	cmp	w1, #0x2f
   8cfe0:	54ffffc0 	b.eq	8cfd8 <_setlocale_r+0x218>  // b.none
   8cfe4:	34000ac1 	cbz	w1, 8d13c <_setlocale_r+0x37c>
   8cfe8:	aa1303e3 	mov	x3, x19
   8cfec:	d503201f 	nop
   8cff0:	38401c61 	ldrb	w1, [x3, #1]!
   8cff4:	7100bc3f 	cmp	w1, #0x2f
   8cff8:	7a401824 	ccmp	w1, #0x0, #0x4, ne	// ne = any
   8cffc:	54ffffa1 	b.ne	8cff0 <_setlocale_r+0x230>  // b.any
   8d000:	9100835a 	add	x26, x26, #0x20
   8d004:	71001e9f 	cmp	w20, #0x7
   8d008:	54fff3e0 	b.eq	8ce84 <_setlocale_r+0xc4>  // b.none
   8d00c:	aa1303f9 	mov	x25, x19
   8d010:	aa0303f3 	mov	x19, x3
   8d014:	17ffffe4 	b	8cfa4 <_setlocale_r+0x1e4>
   8d018:	937b7c20 	sbfiz	x0, x1, #5, #32
   8d01c:	b0000021 	adrp	x1, 92000 <BitFont+0xbc0>
   8d020:	91338021 	add	x1, x1, #0xce0
   8d024:	7100037f 	cmp	w27, #0x0
   8d028:	8b010000 	add	x0, x0, x1
   8d02c:	b0000033 	adrp	x19, 92000 <BitFont+0xbc0>
   8d030:	912fc273 	add	x19, x19, #0xbf0
   8d034:	9a800273 	csel	x19, x19, x0, eq	// eq = none
   8d038:	a9425bf5 	ldp	x21, x22, [sp, #32]
   8d03c:	aa1303e0 	mov	x0, x19
   8d040:	a94153f3 	ldp	x19, x20, [sp, #16]
   8d044:	a94363f7 	ldp	x23, x24, [sp, #48]
   8d048:	a9446bf9 	ldp	x25, x26, [sp, #64]
   8d04c:	f9402bfb 	ldr	x27, [sp, #80]
   8d050:	a8c67bfd 	ldp	x29, x30, [sp], #96
   8d054:	d65f03c0 	ret
   8d058:	2a1b03e1 	mov	w1, w27
   8d05c:	aa1703e0 	mov	x0, x23
   8d060:	97ffff38 	bl	8cd40 <__get_locale_env>
   8d064:	aa0003f4 	mov	x20, x0
   8d068:	97fffcb6 	bl	8c340 <strlen>
   8d06c:	f1007c1f 	cmp	x0, #0x1f
   8d070:	54fff748 	b.hi	8cf58 <_setlocale_r+0x198>  // b.pmore
   8d074:	937b7f73 	sbfiz	x19, x27, #5, #32
   8d078:	aa1403e1 	mov	x1, x20
   8d07c:	8b130313 	add	x19, x24, x19
   8d080:	aa1303e0 	mov	x0, x19
   8d084:	9400049f 	bl	8e300 <strcpy>
   8d088:	17ffffa5 	b	8cf1c <_setlocale_r+0x15c>
   8d08c:	90000020 	adrp	x0, 91000 <__text_end__+0xc00>
   8d090:	b94002f5 	ldr	w21, [x23]
   8d094:	910a8018 	add	x24, x0, #0x2a0
   8d098:	52800034 	mov	w20, #0x1                   	// #1
   8d09c:	6b14027f 	cmp	w19, w20
   8d0a0:	540000e1 	b.ne	8d0bc <_setlocale_r+0x2fc>  // b.any
   8d0a4:	14000016 	b	8d0fc <_setlocale_r+0x33c>
   8d0a8:	11000694 	add	w20, w20, #0x1
   8d0ac:	910082d6 	add	x22, x22, #0x20
   8d0b0:	9100835a 	add	x26, x26, #0x20
   8d0b4:	6b13029f 	cmp	w20, w19
   8d0b8:	54000220 	b.eq	8d0fc <_setlocale_r+0x33c>  // b.none
   8d0bc:	aa1a03e1 	mov	x1, x26
   8d0c0:	aa1603e0 	mov	x0, x22
   8d0c4:	9400048f 	bl	8e300 <strcpy>
   8d0c8:	aa1603e2 	mov	x2, x22
   8d0cc:	2a1403e1 	mov	w1, w20
   8d0d0:	aa1903e0 	mov	x0, x25
   8d0d4:	97fffd37 	bl	8c5b0 <__loadlocale>
   8d0d8:	b5fffe80 	cbnz	x0, 8d0a8 <_setlocale_r+0x2e8>
   8d0dc:	aa1803e1 	mov	x1, x24
   8d0e0:	aa1603e0 	mov	x0, x22
   8d0e4:	94000487 	bl	8e300 <strcpy>
   8d0e8:	aa1603e2 	mov	x2, x22
   8d0ec:	2a1403e1 	mov	w1, w20
   8d0f0:	aa1903e0 	mov	x0, x25
   8d0f4:	97fffd2f 	bl	8c5b0 <__loadlocale>
   8d0f8:	17ffffec 	b	8d0a8 <_setlocale_r+0x2e8>
   8d0fc:	a9446bf9 	ldp	x25, x26, [sp, #64]
   8d100:	f9402bfb 	ldr	x27, [sp, #80]
   8d104:	17ffff98 	b	8cf64 <_setlocale_r+0x1a4>
   8d108:	aa1903e0 	mov	x0, x25
   8d10c:	97fffc8d 	bl	8c340 <strlen>
   8d110:	f1007c1f 	cmp	x0, #0x1f
   8d114:	54fff228 	b.hi	8cf58 <_setlocale_r+0x198>  // b.pmore
   8d118:	aa1603f3 	mov	x19, x22
   8d11c:	d503201f 	nop
   8d120:	aa1303e0 	mov	x0, x19
   8d124:	aa1903e1 	mov	x1, x25
   8d128:	91008273 	add	x19, x19, #0x20
   8d12c:	94000475 	bl	8e300 <strcpy>
   8d130:	eb13035f 	cmp	x26, x19
   8d134:	54ffff61 	b.ne	8d120 <_setlocale_r+0x360>  // b.any
   8d138:	17ffff53 	b	8ce84 <_setlocale_r+0xc4>
   8d13c:	71001e9f 	cmp	w20, #0x7
   8d140:	54ffea20 	b.eq	8ce84 <_setlocale_r+0xc4>  // b.none
   8d144:	937b7e93 	sbfiz	x19, x20, #5, #32
   8d148:	8b130313 	add	x19, x24, x19
   8d14c:	d503201f 	nop
   8d150:	d1008261 	sub	x1, x19, #0x20
   8d154:	aa1303e0 	mov	x0, x19
   8d158:	11000694 	add	w20, w20, #0x1
   8d15c:	94000469 	bl	8e300 <strcpy>
   8d160:	91008273 	add	x19, x19, #0x20
   8d164:	71001e9f 	cmp	w20, #0x7
   8d168:	54ffff41 	b.ne	8d150 <_setlocale_r+0x390>  // b.any
   8d16c:	17ffff46 	b	8ce84 <_setlocale_r+0xc4>

000000000008d170 <__locale_mb_cur_max>:
   8d170:	b0000020 	adrp	x0, 92000 <BitFont+0xbc0>
   8d174:	39790000 	ldrb	w0, [x0, #3648]
   8d178:	d65f03c0 	ret
   8d17c:	00000000 	udf	#0

000000000008d180 <setlocale>:
   8d180:	b0000023 	adrp	x3, 92000 <BitFont+0xbc0>
   8d184:	aa0103e2 	mov	x2, x1
   8d188:	2a0003e1 	mov	w1, w0
   8d18c:	f9475860 	ldr	x0, [x3, #3760]
   8d190:	17ffff0c 	b	8cdc0 <_setlocale_r>
	...

000000000008d1c0 <memcpy>:
   8d1c0:	d503245f 	bti	c
   8d1c4:	8b020024 	add	x4, x1, x2
   8d1c8:	8b020005 	add	x5, x0, x2
   8d1cc:	f102005f 	cmp	x2, #0x80
   8d1d0:	54000788 	b.hi	8d2c0 <memcpy+0x100>  // b.pmore
   8d1d4:	f100805f 	cmp	x2, #0x20
   8d1d8:	540003c8 	b.hi	8d250 <memcpy+0x90>  // b.pmore
   8d1dc:	f100405f 	cmp	x2, #0x10
   8d1e0:	540000c3 	b.cc	8d1f8 <memcpy+0x38>  // b.lo, b.ul, b.last
   8d1e4:	a9401c26 	ldp	x6, x7, [x1]
   8d1e8:	a97f348c 	ldp	x12, x13, [x4, #-16]
   8d1ec:	a9001c06 	stp	x6, x7, [x0]
   8d1f0:	a93f34ac 	stp	x12, x13, [x5, #-16]
   8d1f4:	d65f03c0 	ret
   8d1f8:	361800c2 	tbz	w2, #3, 8d210 <memcpy+0x50>
   8d1fc:	f9400026 	ldr	x6, [x1]
   8d200:	f85f8087 	ldur	x7, [x4, #-8]
   8d204:	f9000006 	str	x6, [x0]
   8d208:	f81f80a7 	stur	x7, [x5, #-8]
   8d20c:	d65f03c0 	ret
   8d210:	361000c2 	tbz	w2, #2, 8d228 <memcpy+0x68>
   8d214:	b9400026 	ldr	w6, [x1]
   8d218:	b85fc088 	ldur	w8, [x4, #-4]
   8d21c:	b9000006 	str	w6, [x0]
   8d220:	b81fc0a8 	stur	w8, [x5, #-4]
   8d224:	d65f03c0 	ret
   8d228:	b4000102 	cbz	x2, 8d248 <memcpy+0x88>
   8d22c:	d341fc4e 	lsr	x14, x2, #1
   8d230:	39400026 	ldrb	w6, [x1]
   8d234:	385ff08a 	ldurb	w10, [x4, #-1]
   8d238:	386e6828 	ldrb	w8, [x1, x14]
   8d23c:	39000006 	strb	w6, [x0]
   8d240:	382e6808 	strb	w8, [x0, x14]
   8d244:	381ff0aa 	sturb	w10, [x5, #-1]
   8d248:	d65f03c0 	ret
   8d24c:	d503201f 	nop
   8d250:	a9401c26 	ldp	x6, x7, [x1]
   8d254:	a9412428 	ldp	x8, x9, [x1, #16]
   8d258:	a97e2c8a 	ldp	x10, x11, [x4, #-32]
   8d25c:	a97f348c 	ldp	x12, x13, [x4, #-16]
   8d260:	f101005f 	cmp	x2, #0x40
   8d264:	540000e8 	b.hi	8d280 <memcpy+0xc0>  // b.pmore
   8d268:	a9001c06 	stp	x6, x7, [x0]
   8d26c:	a9012408 	stp	x8, x9, [x0, #16]
   8d270:	a93e2caa 	stp	x10, x11, [x5, #-32]
   8d274:	a93f34ac 	stp	x12, x13, [x5, #-16]
   8d278:	d65f03c0 	ret
   8d27c:	d503201f 	nop
   8d280:	a9423c2e 	ldp	x14, x15, [x1, #32]
   8d284:	a9434430 	ldp	x16, x17, [x1, #48]
   8d288:	f101805f 	cmp	x2, #0x60
   8d28c:	540000a9 	b.ls	8d2a0 <memcpy+0xe0>  // b.plast
   8d290:	a97c0c82 	ldp	x2, x3, [x4, #-64]
   8d294:	a97d1081 	ldp	x1, x4, [x4, #-48]
   8d298:	a93c0ca2 	stp	x2, x3, [x5, #-64]
   8d29c:	a93d10a1 	stp	x1, x4, [x5, #-48]
   8d2a0:	a9001c06 	stp	x6, x7, [x0]
   8d2a4:	a9012408 	stp	x8, x9, [x0, #16]
   8d2a8:	a9023c0e 	stp	x14, x15, [x0, #32]
   8d2ac:	a9034410 	stp	x16, x17, [x0, #48]
   8d2b0:	a93e2caa 	stp	x10, x11, [x5, #-32]
   8d2b4:	a93f34ac 	stp	x12, x13, [x5, #-16]
   8d2b8:	d65f03c0 	ret
   8d2bc:	d503201f 	nop
   8d2c0:	cb01000e 	sub	x14, x0, x1
   8d2c4:	b4fffc2e 	cbz	x14, 8d248 <memcpy+0x88>
   8d2c8:	eb0201df 	cmp	x14, x2
   8d2cc:	540004a3 	b.cc	8d360 <memcpy+0x1a0>  // b.lo, b.ul, b.last
   8d2d0:	a940342c 	ldp	x12, x13, [x1]
   8d2d4:	92400c0e 	and	x14, x0, #0xf
   8d2d8:	927cec03 	and	x3, x0, #0xfffffffffffffff0
   8d2dc:	cb0e0021 	sub	x1, x1, x14
   8d2e0:	8b0e0042 	add	x2, x2, x14
   8d2e4:	a9411c26 	ldp	x6, x7, [x1, #16]
   8d2e8:	a900340c 	stp	x12, x13, [x0]
   8d2ec:	a9422428 	ldp	x8, x9, [x1, #32]
   8d2f0:	a9432c2a 	ldp	x10, x11, [x1, #48]
   8d2f4:	a9c4342c 	ldp	x12, x13, [x1, #64]!
   8d2f8:	f1024042 	subs	x2, x2, #0x90
   8d2fc:	54000169 	b.ls	8d328 <memcpy+0x168>  // b.plast
   8d300:	a9011c66 	stp	x6, x7, [x3, #16]
   8d304:	a9411c26 	ldp	x6, x7, [x1, #16]
   8d308:	a9022468 	stp	x8, x9, [x3, #32]
   8d30c:	a9422428 	ldp	x8, x9, [x1, #32]
   8d310:	a9032c6a 	stp	x10, x11, [x3, #48]
   8d314:	a9432c2a 	ldp	x10, x11, [x1, #48]
   8d318:	a984346c 	stp	x12, x13, [x3, #64]!
   8d31c:	a9c4342c 	ldp	x12, x13, [x1, #64]!
   8d320:	f1010042 	subs	x2, x2, #0x40
   8d324:	54fffee8 	b.hi	8d300 <memcpy+0x140>  // b.pmore
   8d328:	a97c3c8e 	ldp	x14, x15, [x4, #-64]
   8d32c:	a9011c66 	stp	x6, x7, [x3, #16]
   8d330:	a97d1c86 	ldp	x6, x7, [x4, #-48]
   8d334:	a9022468 	stp	x8, x9, [x3, #32]
   8d338:	a97e2488 	ldp	x8, x9, [x4, #-32]
   8d33c:	a9032c6a 	stp	x10, x11, [x3, #48]
   8d340:	a97f2c8a 	ldp	x10, x11, [x4, #-16]
   8d344:	a904346c 	stp	x12, x13, [x3, #64]
   8d348:	a93c3cae 	stp	x14, x15, [x5, #-64]
   8d34c:	a93d1ca6 	stp	x6, x7, [x5, #-48]
   8d350:	a93e24a8 	stp	x8, x9, [x5, #-32]
   8d354:	a93f2caa 	stp	x10, x11, [x5, #-16]
   8d358:	d65f03c0 	ret
   8d35c:	d503201f 	nop
   8d360:	a97f348c 	ldp	x12, x13, [x4, #-16]
   8d364:	92400cae 	and	x14, x5, #0xf
   8d368:	cb0e0084 	sub	x4, x4, x14
   8d36c:	cb0e0042 	sub	x2, x2, x14
   8d370:	a97f1c86 	ldp	x6, x7, [x4, #-16]
   8d374:	a93f34ac 	stp	x12, x13, [x5, #-16]
   8d378:	a97e2488 	ldp	x8, x9, [x4, #-32]
   8d37c:	a97d2c8a 	ldp	x10, x11, [x4, #-48]
   8d380:	a9fc348c 	ldp	x12, x13, [x4, #-64]!
   8d384:	cb0e00a5 	sub	x5, x5, x14
   8d388:	f1020042 	subs	x2, x2, #0x80
   8d38c:	54000169 	b.ls	8d3b8 <memcpy+0x1f8>  // b.plast
   8d390:	a93f1ca6 	stp	x6, x7, [x5, #-16]
   8d394:	a97f1c86 	ldp	x6, x7, [x4, #-16]
   8d398:	a93e24a8 	stp	x8, x9, [x5, #-32]
   8d39c:	a97e2488 	ldp	x8, x9, [x4, #-32]
   8d3a0:	a93d2caa 	stp	x10, x11, [x5, #-48]
   8d3a4:	a97d2c8a 	ldp	x10, x11, [x4, #-48]
   8d3a8:	a9bc34ac 	stp	x12, x13, [x5, #-64]!
   8d3ac:	a9fc348c 	ldp	x12, x13, [x4, #-64]!
   8d3b0:	f1010042 	subs	x2, x2, #0x40
   8d3b4:	54fffee8 	b.hi	8d390 <memcpy+0x1d0>  // b.pmore
   8d3b8:	a9430c22 	ldp	x2, x3, [x1, #48]
   8d3bc:	a93f1ca6 	stp	x6, x7, [x5, #-16]
   8d3c0:	a9421c26 	ldp	x6, x7, [x1, #32]
   8d3c4:	a93e24a8 	stp	x8, x9, [x5, #-32]
   8d3c8:	a9412428 	ldp	x8, x9, [x1, #16]
   8d3cc:	a93d2caa 	stp	x10, x11, [x5, #-48]
   8d3d0:	a9402c2a 	ldp	x10, x11, [x1]
   8d3d4:	a93c34ac 	stp	x12, x13, [x5, #-64]
   8d3d8:	a9030c02 	stp	x2, x3, [x0, #48]
   8d3dc:	a9021c06 	stp	x6, x7, [x0, #32]
   8d3e0:	a9012408 	stp	x8, x9, [x0, #16]
   8d3e4:	a9002c0a 	stp	x10, x11, [x0]
   8d3e8:	d65f03c0 	ret
   8d3ec:	00000000 	udf	#0

000000000008d3f0 <_strtol_l.part.0>:
   8d3f0:	b0000027 	adrp	x7, 92000 <BitFont+0xbc0>
   8d3f4:	aa0003ec 	mov	x12, x0
   8d3f8:	aa0103e6 	mov	x6, x1
   8d3fc:	912784e7 	add	x7, x7, #0x9e1
   8d400:	aa0603e8 	mov	x8, x6
   8d404:	384014c5 	ldrb	w5, [x6], #1
   8d408:	386548e4 	ldrb	w4, [x7, w5, uxtw]
   8d40c:	371fffa4 	tbnz	w4, #3, 8d400 <_strtol_l.part.0+0x10>
   8d410:	7100b4bf 	cmp	w5, #0x2d
   8d414:	54000700 	b.eq	8d4f4 <_strtol_l.part.0+0x104>  // b.none
   8d418:	92f0000b 	mov	x11, #0x7fffffffffffffff    	// #9223372036854775807
   8d41c:	5280000d 	mov	w13, #0x0                   	// #0
   8d420:	7100acbf 	cmp	w5, #0x2b
   8d424:	54000620 	b.eq	8d4e8 <_strtol_l.part.0+0xf8>  // b.none
   8d428:	93407c6a 	sxtw	x10, w3
   8d42c:	721b787f 	tst	w3, #0xffffffef
   8d430:	540000c1 	b.ne	8d448 <_strtol_l.part.0+0x58>  // b.any
   8d434:	7100c0bf 	cmp	w5, #0x30
   8d438:	54000780 	b.eq	8d528 <_strtol_l.part.0+0x138>  // b.none
   8d43c:	35000963 	cbnz	w3, 8d568 <_strtol_l.part.0+0x178>
   8d440:	d280014a 	mov	x10, #0xa                   	// #10
   8d444:	2a0a03e3 	mov	w3, w10
   8d448:	9aca0968 	udiv	x8, x11, x10
   8d44c:	52800007 	mov	w7, #0x0                   	// #0
   8d450:	d2800000 	mov	x0, #0x0                   	// #0
   8d454:	1b0aad09 	msub	w9, w8, w10, w11
   8d458:	5100c0a4 	sub	w4, w5, #0x30
   8d45c:	7100249f 	cmp	w4, #0x9
   8d460:	540000a9 	b.ls	8d474 <_strtol_l.part.0+0x84>  // b.plast
   8d464:	510104a4 	sub	w4, w5, #0x41
   8d468:	7100649f 	cmp	w4, #0x19
   8d46c:	54000208 	b.hi	8d4ac <_strtol_l.part.0+0xbc>  // b.pmore
   8d470:	5100dca4 	sub	w4, w5, #0x37
   8d474:	6b04007f 	cmp	w3, w4
   8d478:	5400028d 	b.le	8d4c8 <_strtol_l.part.0+0xd8>
   8d47c:	710000ff 	cmp	w7, #0x0
   8d480:	12800007 	mov	w7, #0xffffffff            	// #-1
   8d484:	fa40a100 	ccmp	x8, x0, #0x0, ge	// ge = tcont
   8d488:	540000e3 	b.cc	8d4a4 <_strtol_l.part.0+0xb4>  // b.lo, b.ul, b.last
   8d48c:	eb00011f 	cmp	x8, x0
   8d490:	7a440120 	ccmp	w9, w4, #0x0, eq	// eq = none
   8d494:	5400008b 	b.lt	8d4a4 <_strtol_l.part.0+0xb4>  // b.tstop
   8d498:	93407c84 	sxtw	x4, w4
   8d49c:	52800027 	mov	w7, #0x1                   	// #1
   8d4a0:	9b0a1000 	madd	x0, x0, x10, x4
   8d4a4:	384014c5 	ldrb	w5, [x6], #1
   8d4a8:	17ffffec 	b	8d458 <_strtol_l.part.0+0x68>
   8d4ac:	510184a4 	sub	w4, w5, #0x61
   8d4b0:	7100649f 	cmp	w4, #0x19
   8d4b4:	540000a8 	b.hi	8d4c8 <_strtol_l.part.0+0xd8>  // b.pmore
   8d4b8:	51015ca4 	sub	w4, w5, #0x57
   8d4bc:	6b04007f 	cmp	w3, w4
   8d4c0:	54fffdec 	b.gt	8d47c <_strtol_l.part.0+0x8c>
   8d4c4:	d503201f 	nop
   8d4c8:	310004ff 	cmn	w7, #0x1
   8d4cc:	540001e0 	b.eq	8d508 <_strtol_l.part.0+0x118>  // b.none
   8d4d0:	710001bf 	cmp	w13, #0x0
   8d4d4:	da800400 	cneg	x0, x0, ne	// ne = any
   8d4d8:	b4000062 	cbz	x2, 8d4e4 <_strtol_l.part.0+0xf4>
   8d4dc:	35000387 	cbnz	w7, 8d54c <_strtol_l.part.0+0x15c>
   8d4e0:	f9000041 	str	x1, [x2]
   8d4e4:	d65f03c0 	ret
   8d4e8:	394000c5 	ldrb	w5, [x6]
   8d4ec:	91000906 	add	x6, x8, #0x2
   8d4f0:	17ffffce 	b	8d428 <_strtol_l.part.0+0x38>
   8d4f4:	394000c5 	ldrb	w5, [x6]
   8d4f8:	d2f0000b 	mov	x11, #0x8000000000000000    	// #-9223372036854775808
   8d4fc:	91000906 	add	x6, x8, #0x2
   8d500:	5280002d 	mov	w13, #0x1                   	// #1
   8d504:	17ffffc9 	b	8d428 <_strtol_l.part.0+0x38>
   8d508:	52800440 	mov	w0, #0x22                  	// #34
   8d50c:	b9000180 	str	w0, [x12]
   8d510:	aa0b03e0 	mov	x0, x11
   8d514:	b4fffe82 	cbz	x2, 8d4e4 <_strtol_l.part.0+0xf4>
   8d518:	d10004c1 	sub	x1, x6, #0x1
   8d51c:	aa0b03e0 	mov	x0, x11
   8d520:	f9000041 	str	x1, [x2]
   8d524:	17fffff0 	b	8d4e4 <_strtol_l.part.0+0xf4>
   8d528:	394000c0 	ldrb	w0, [x6]
   8d52c:	121a7800 	and	w0, w0, #0xffffffdf
   8d530:	12001c00 	and	w0, w0, #0xff
   8d534:	7101601f 	cmp	w0, #0x58
   8d538:	540000e0 	b.eq	8d554 <_strtol_l.part.0+0x164>  // b.none
   8d53c:	35000163 	cbnz	w3, 8d568 <_strtol_l.part.0+0x178>
   8d540:	d280010a 	mov	x10, #0x8                   	// #8
   8d544:	2a0a03e3 	mov	w3, w10
   8d548:	17ffffc0 	b	8d448 <_strtol_l.part.0+0x58>
   8d54c:	aa0003eb 	mov	x11, x0
   8d550:	17fffff2 	b	8d518 <_strtol_l.part.0+0x128>
   8d554:	394004c5 	ldrb	w5, [x6, #1]
   8d558:	d280020a 	mov	x10, #0x10                  	// #16
   8d55c:	910008c6 	add	x6, x6, #0x2
   8d560:	2a0a03e3 	mov	w3, w10
   8d564:	17ffffb9 	b	8d448 <_strtol_l.part.0+0x58>
   8d568:	d280020a 	mov	x10, #0x10                  	// #16
   8d56c:	2a0a03e3 	mov	w3, w10
   8d570:	17ffffb6 	b	8d448 <_strtol_l.part.0+0x58>
	...

000000000008d580 <_strtol_r>:
   8d580:	7100907f 	cmp	w3, #0x24
   8d584:	7a419864 	ccmp	w3, #0x1, #0x4, ls	// ls = plast
   8d588:	54000040 	b.eq	8d590 <_strtol_r+0x10>  // b.none
   8d58c:	17ffff99 	b	8d3f0 <_strtol_l.part.0>
   8d590:	a9bf7bfd 	stp	x29, x30, [sp, #-16]!
   8d594:	910003fd 	mov	x29, sp
   8d598:	9400084a 	bl	8f6c0 <__errno>
   8d59c:	528002c1 	mov	w1, #0x16                  	// #22
   8d5a0:	b9000001 	str	w1, [x0]
   8d5a4:	d2800000 	mov	x0, #0x0                   	// #0
   8d5a8:	a8c17bfd 	ldp	x29, x30, [sp], #16
   8d5ac:	d65f03c0 	ret

000000000008d5b0 <strtol_l>:
   8d5b0:	b0000024 	adrp	x4, 92000 <BitFont+0xbc0>
   8d5b4:	7100905f 	cmp	w2, #0x24
   8d5b8:	7a419844 	ccmp	w2, #0x1, #0x4, ls	// ls = plast
   8d5bc:	f9475884 	ldr	x4, [x4, #3760]
   8d5c0:	540000c0 	b.eq	8d5d8 <strtol_l+0x28>  // b.none
   8d5c4:	2a0203e3 	mov	w3, w2
   8d5c8:	aa0103e2 	mov	x2, x1
   8d5cc:	aa0003e1 	mov	x1, x0
   8d5d0:	aa0403e0 	mov	x0, x4
   8d5d4:	17ffff87 	b	8d3f0 <_strtol_l.part.0>
   8d5d8:	a9bf7bfd 	stp	x29, x30, [sp, #-16]!
   8d5dc:	910003fd 	mov	x29, sp
   8d5e0:	94000838 	bl	8f6c0 <__errno>
   8d5e4:	528002c1 	mov	w1, #0x16                  	// #22
   8d5e8:	b9000001 	str	w1, [x0]
   8d5ec:	d2800000 	mov	x0, #0x0                   	// #0
   8d5f0:	a8c17bfd 	ldp	x29, x30, [sp], #16
   8d5f4:	d65f03c0 	ret
	...

000000000008d600 <strtol>:
   8d600:	b0000024 	adrp	x4, 92000 <BitFont+0xbc0>
   8d604:	7100905f 	cmp	w2, #0x24
   8d608:	7a419844 	ccmp	w2, #0x1, #0x4, ls	// ls = plast
   8d60c:	f9475884 	ldr	x4, [x4, #3760]
   8d610:	540000c0 	b.eq	8d628 <strtol+0x28>  // b.none
   8d614:	2a0203e3 	mov	w3, w2
   8d618:	aa0103e2 	mov	x2, x1
   8d61c:	aa0003e1 	mov	x1, x0
   8d620:	aa0403e0 	mov	x0, x4
   8d624:	17ffff73 	b	8d3f0 <_strtol_l.part.0>
   8d628:	a9bf7bfd 	stp	x29, x30, [sp, #-16]!
   8d62c:	910003fd 	mov	x29, sp
   8d630:	94000824 	bl	8f6c0 <__errno>
   8d634:	528002c1 	mov	w1, #0x16                  	// #22
   8d638:	b9000001 	str	w1, [x0]
   8d63c:	d2800000 	mov	x0, #0x0                   	// #0
   8d640:	a8c17bfd 	ldp	x29, x30, [sp], #16
   8d644:	d65f03c0 	ret
	...

000000000008d650 <_findenv_r>:
   8d650:	a9bb7bfd 	stp	x29, x30, [sp, #-80]!
   8d654:	910003fd 	mov	x29, sp
   8d658:	a90363f7 	stp	x23, x24, [sp, #48]
   8d65c:	d0000038 	adrp	x24, 93000 <_impure_data+0x148>
   8d660:	aa0003f7 	mov	x23, x0
   8d664:	a90153f3 	stp	x19, x20, [sp, #16]
   8d668:	a9025bf5 	stp	x21, x22, [sp, #32]
   8d66c:	aa0103f5 	mov	x21, x1
   8d670:	aa0203f6 	mov	x22, x2
   8d674:	940008af 	bl	8f930 <__env_lock>
   8d678:	f9443b14 	ldr	x20, [x24, #2160]
   8d67c:	b40003f4 	cbz	x20, 8d6f8 <_findenv_r+0xa8>
   8d680:	394002a3 	ldrb	w3, [x21]
   8d684:	aa1503f3 	mov	x19, x21
   8d688:	7100f47f 	cmp	w3, #0x3d
   8d68c:	7a401864 	ccmp	w3, #0x0, #0x4, ne	// ne = any
   8d690:	540000c0 	b.eq	8d6a8 <_findenv_r+0x58>  // b.none
   8d694:	d503201f 	nop
   8d698:	38401e63 	ldrb	w3, [x19, #1]!
   8d69c:	7100f47f 	cmp	w3, #0x3d
   8d6a0:	7a401864 	ccmp	w3, #0x0, #0x4, ne	// ne = any
   8d6a4:	54ffffa1 	b.ne	8d698 <_findenv_r+0x48>  // b.any
   8d6a8:	7100f47f 	cmp	w3, #0x3d
   8d6ac:	54000260 	b.eq	8d6f8 <_findenv_r+0xa8>  // b.none
   8d6b0:	f9400280 	ldr	x0, [x20]
   8d6b4:	cb150273 	sub	x19, x19, x21
   8d6b8:	b4000200 	cbz	x0, 8d6f8 <_findenv_r+0xa8>
   8d6bc:	93407e73 	sxtw	x19, w19
   8d6c0:	f90023f9 	str	x25, [sp, #64]
   8d6c4:	d503201f 	nop
   8d6c8:	aa1303e2 	mov	x2, x19
   8d6cc:	aa1503e1 	mov	x1, x21
   8d6d0:	9400035c 	bl	8e440 <strncmp>
   8d6d4:	350000c0 	cbnz	w0, 8d6ec <_findenv_r+0x9c>
   8d6d8:	f9400280 	ldr	x0, [x20]
   8d6dc:	8b130019 	add	x25, x0, x19
   8d6e0:	38736800 	ldrb	w0, [x0, x19]
   8d6e4:	7100f41f 	cmp	w0, #0x3d
   8d6e8:	54000180 	b.eq	8d718 <_findenv_r+0xc8>  // b.none
   8d6ec:	f8408e80 	ldr	x0, [x20, #8]!
   8d6f0:	b5fffec0 	cbnz	x0, 8d6c8 <_findenv_r+0x78>
   8d6f4:	f94023f9 	ldr	x25, [sp, #64]
   8d6f8:	aa1703e0 	mov	x0, x23
   8d6fc:	94000891 	bl	8f940 <__env_unlock>
   8d700:	a94153f3 	ldp	x19, x20, [sp, #16]
   8d704:	d2800000 	mov	x0, #0x0                   	// #0
   8d708:	a9425bf5 	ldp	x21, x22, [sp, #32]
   8d70c:	a94363f7 	ldp	x23, x24, [sp, #48]
   8d710:	a8c57bfd 	ldp	x29, x30, [sp], #80
   8d714:	d65f03c0 	ret
   8d718:	f9443b01 	ldr	x1, [x24, #2160]
   8d71c:	aa1703e0 	mov	x0, x23
   8d720:	cb010281 	sub	x1, x20, x1
   8d724:	9343fc21 	asr	x1, x1, #3
   8d728:	b90002c1 	str	w1, [x22]
   8d72c:	94000885 	bl	8f940 <__env_unlock>
   8d730:	a94153f3 	ldp	x19, x20, [sp, #16]
   8d734:	91000720 	add	x0, x25, #0x1
   8d738:	a9425bf5 	ldp	x21, x22, [sp, #32]
   8d73c:	a94363f7 	ldp	x23, x24, [sp, #48]
   8d740:	f94023f9 	ldr	x25, [sp, #64]
   8d744:	a8c57bfd 	ldp	x29, x30, [sp], #80
   8d748:	d65f03c0 	ret
   8d74c:	00000000 	udf	#0

000000000008d750 <_getenv_r>:
   8d750:	a9be7bfd 	stp	x29, x30, [sp, #-32]!
   8d754:	910003fd 	mov	x29, sp
   8d758:	910073e2 	add	x2, sp, #0x1c
   8d75c:	97ffffbd 	bl	8d650 <_findenv_r>
   8d760:	a8c27bfd 	ldp	x29, x30, [sp], #32
   8d764:	d65f03c0 	ret
	...

000000000008d770 <strlcpy>:
   8d770:	aa0103e3 	mov	x3, x1
   8d774:	b50000a2 	cbnz	x2, 8d788 <strlcpy+0x18>
   8d778:	14000008 	b	8d798 <strlcpy+0x28>
   8d77c:	38401464 	ldrb	w4, [x3], #1
   8d780:	38001404 	strb	w4, [x0], #1
   8d784:	340000e4 	cbz	w4, 8d7a0 <strlcpy+0x30>
   8d788:	f1000442 	subs	x2, x2, #0x1
   8d78c:	54ffff81 	b.ne	8d77c <strlcpy+0xc>  // b.any
   8d790:	3900001f 	strb	wzr, [x0]
   8d794:	d503201f 	nop
   8d798:	38401460 	ldrb	w0, [x3], #1
   8d79c:	35ffffe0 	cbnz	w0, 8d798 <strlcpy+0x28>
   8d7a0:	cb010060 	sub	x0, x3, x1
   8d7a4:	d1000400 	sub	x0, x0, #0x1
   8d7a8:	d65f03c0 	ret
	...

000000000008d7c0 <strchr>:
   8d7c0:	d503245f 	bti	c
   8d7c4:	52818064 	mov	w4, #0xc03                 	// #3075
   8d7c8:	72b80604 	movk	w4, #0xc030, lsl #16
   8d7cc:	4e010c20 	dup	v0.16b, w1
   8d7d0:	927be802 	and	x2, x0, #0xffffffffffffffe0
   8d7d4:	4e040c90 	dup	v16.4s, w4
   8d7d8:	f2401003 	ands	x3, x0, #0x1f
   8d7dc:	4eb08607 	add	v7.4s, v16.4s, v16.4s
   8d7e0:	54000280 	b.eq	8d830 <strchr+0x70>  // b.none
   8d7e4:	4cdfa041 	ld1	{v1.16b-v2.16b}, [x2], #32
   8d7e8:	cb0303e3 	neg	x3, x3
   8d7ec:	4e209823 	cmeq	v3.16b, v1.16b, #0
   8d7f0:	6e208c25 	cmeq	v5.16b, v1.16b, v0.16b
   8d7f4:	4e209844 	cmeq	v4.16b, v2.16b, #0
   8d7f8:	6e208c46 	cmeq	v6.16b, v2.16b, v0.16b
   8d7fc:	6ee71ca3 	bif	v3.16b, v5.16b, v7.16b
   8d800:	6ee71cc4 	bif	v4.16b, v6.16b, v7.16b
   8d804:	4e301c71 	and	v17.16b, v3.16b, v16.16b
   8d808:	4e301c92 	and	v18.16b, v4.16b, v16.16b
   8d80c:	d37ff863 	lsl	x3, x3, #1
   8d810:	4e32be31 	addp	v17.16b, v17.16b, v18.16b
   8d814:	92800005 	mov	x5, #0xffffffffffffffff    	// #-1
   8d818:	4e32be31 	addp	v17.16b, v17.16b, v18.16b
   8d81c:	9ac324a3 	lsr	x3, x5, x3
   8d820:	4e083e25 	mov	x5, v17.d[0]
   8d824:	8a2300a3 	bic	x3, x5, x3
   8d828:	b5000243 	cbnz	x3, 8d870 <strchr+0xb0>
   8d82c:	d503201f 	nop
   8d830:	4cdfa041 	ld1	{v1.16b-v2.16b}, [x2], #32
   8d834:	6e208c25 	cmeq	v5.16b, v1.16b, v0.16b
   8d838:	6e208c46 	cmeq	v6.16b, v2.16b, v0.16b
   8d83c:	6e213ca3 	cmhs	v3.16b, v5.16b, v1.16b
   8d840:	6e223cc4 	cmhs	v4.16b, v6.16b, v2.16b
   8d844:	4ea41c71 	orr	v17.16b, v3.16b, v4.16b
   8d848:	6e31a631 	umaxp	v17.16b, v17.16b, v17.16b
   8d84c:	4e083e23 	mov	x3, v17.d[0]
   8d850:	b4ffff03 	cbz	x3, 8d830 <strchr+0x70>
   8d854:	6ee71ca3 	bif	v3.16b, v5.16b, v7.16b
   8d858:	6ee71cc4 	bif	v4.16b, v6.16b, v7.16b
   8d85c:	4e301c71 	and	v17.16b, v3.16b, v16.16b
   8d860:	4e301c92 	and	v18.16b, v4.16b, v16.16b
   8d864:	4e32be31 	addp	v17.16b, v17.16b, v18.16b
   8d868:	4e32be31 	addp	v17.16b, v17.16b, v18.16b
   8d86c:	4e083e23 	mov	x3, v17.d[0]
   8d870:	dac00063 	rbit	x3, x3
   8d874:	d1008042 	sub	x2, x2, #0x20
   8d878:	dac01063 	clz	x3, x3
   8d87c:	f240007f 	tst	x3, #0x1
   8d880:	8b430440 	add	x0, x2, x3, lsr #1
   8d884:	9a9f0000 	csel	x0, x0, xzr, eq	// eq = none
   8d888:	d65f03c0 	ret
   8d88c:	00000000 	udf	#0

000000000008d890 <strncasecmp>:
   8d890:	aa0003e9 	mov	x9, x0
   8d894:	b4000342 	cbz	x2, 8d8fc <strncasecmp+0x6c>
   8d898:	b0000027 	adrp	x7, 92000 <BitFont+0xbc0>
   8d89c:	d2800004 	mov	x4, #0x0                   	// #0
   8d8a0:	912784e7 	add	x7, x7, #0x9e1
   8d8a4:	14000006 	b	8d8bc <strncasecmp+0x2c>
   8d8a8:	6b000063 	subs	w3, w3, w0
   8d8ac:	540002c1 	b.ne	8d904 <strncasecmp+0x74>  // b.any
   8d8b0:	34000240 	cbz	w0, 8d8f8 <strncasecmp+0x68>
   8d8b4:	eb04005f 	cmp	x2, x4
   8d8b8:	54000220 	b.eq	8d8fc <strncasecmp+0x6c>  // b.none
   8d8bc:	38646923 	ldrb	w3, [x9, x4]
   8d8c0:	38646820 	ldrb	w0, [x1, x4]
   8d8c4:	91000484 	add	x4, x4, #0x1
   8d8c8:	11008068 	add	w8, w3, #0x20
   8d8cc:	386348e6 	ldrb	w6, [x7, w3, uxtw]
   8d8d0:	386048e5 	ldrb	w5, [x7, w0, uxtw]
   8d8d4:	120004c6 	and	w6, w6, #0x3
   8d8d8:	710004df 	cmp	w6, #0x1
   8d8dc:	120004a5 	and	w5, w5, #0x3
   8d8e0:	1a830103 	csel	w3, w8, w3, eq	// eq = none
   8d8e4:	710004bf 	cmp	w5, #0x1
   8d8e8:	54fffe01 	b.ne	8d8a8 <strncasecmp+0x18>  // b.any
   8d8ec:	11008000 	add	w0, w0, #0x20
   8d8f0:	6b000060 	subs	w0, w3, w0
   8d8f4:	54fffe00 	b.eq	8d8b4 <strncasecmp+0x24>  // b.none
   8d8f8:	d65f03c0 	ret
   8d8fc:	52800000 	mov	w0, #0x0                   	// #0
   8d900:	d65f03c0 	ret
   8d904:	2a0303e0 	mov	w0, w3
   8d908:	d65f03c0 	ret
   8d90c:	00000000 	udf	#0

000000000008d910 <_wctomb_r>:
   8d910:	b0000024 	adrp	x4, 92000 <BitFont+0xbc0>
   8d914:	f946e084 	ldr	x4, [x4, #3520]
   8d918:	aa0403f0 	mov	x16, x4
   8d91c:	d61f0200 	br	x16

000000000008d920 <__ascii_wctomb>:
   8d920:	aa0003e3 	mov	x3, x0
   8d924:	b4000141 	cbz	x1, 8d94c <__ascii_wctomb+0x2c>
   8d928:	7103fc5f 	cmp	w2, #0xff
   8d92c:	54000088 	b.hi	8d93c <__ascii_wctomb+0x1c>  // b.pmore
   8d930:	52800020 	mov	w0, #0x1                   	// #1
   8d934:	39000022 	strb	w2, [x1]
   8d938:	d65f03c0 	ret
   8d93c:	52801141 	mov	w1, #0x8a                  	// #138
   8d940:	12800000 	mov	w0, #0xffffffff            	// #-1
   8d944:	b9000061 	str	w1, [x3]
   8d948:	d65f03c0 	ret
   8d94c:	52800000 	mov	w0, #0x0                   	// #0
   8d950:	d65f03c0 	ret
	...

000000000008d960 <__utf8_wctomb>:
   8d960:	aa0003e3 	mov	x3, x0
   8d964:	b40004e1 	cbz	x1, 8da00 <__utf8_wctomb+0xa0>
   8d968:	7101fc5f 	cmp	w2, #0x7f
   8d96c:	54000349 	b.ls	8d9d4 <__utf8_wctomb+0x74>  // b.plast
   8d970:	51020040 	sub	w0, w2, #0x80
   8d974:	711dfc1f 	cmp	w0, #0x77f
   8d978:	54000349 	b.ls	8d9e0 <__utf8_wctomb+0x80>  // b.plast
   8d97c:	51200044 	sub	w4, w2, #0x800
   8d980:	529effe0 	mov	w0, #0xf7ff                	// #63487
   8d984:	6b00009f 	cmp	w4, w0
   8d988:	54000409 	b.ls	8da08 <__utf8_wctomb+0xa8>  // b.plast
   8d98c:	51404044 	sub	w4, w2, #0x10, lsl #12
   8d990:	12bffe00 	mov	w0, #0xfffff               	// #1048575
   8d994:	6b00009f 	cmp	w4, w0
   8d998:	540004e8 	b.hi	8da34 <__utf8_wctomb+0xd4>  // b.pmore
   8d99c:	53127c45 	lsr	w5, w2, #18
   8d9a0:	d34c4444 	ubfx	x4, x2, #12, #6
   8d9a4:	d3462c43 	ubfx	x3, x2, #6, #6
   8d9a8:	12001442 	and	w2, w2, #0x3f
   8d9ac:	321c6ca5 	orr	w5, w5, #0xfffffff0
   8d9b0:	32196084 	orr	w4, w4, #0xffffff80
   8d9b4:	32196063 	orr	w3, w3, #0xffffff80
   8d9b8:	32196042 	orr	w2, w2, #0xffffff80
   8d9bc:	52800080 	mov	w0, #0x4                   	// #4
   8d9c0:	39000025 	strb	w5, [x1]
   8d9c4:	39000424 	strb	w4, [x1, #1]
   8d9c8:	39000823 	strb	w3, [x1, #2]
   8d9cc:	39000c22 	strb	w2, [x1, #3]
   8d9d0:	d65f03c0 	ret
   8d9d4:	52800020 	mov	w0, #0x1                   	// #1
   8d9d8:	39000022 	strb	w2, [x1]
   8d9dc:	d65f03c0 	ret
   8d9e0:	53067c43 	lsr	w3, w2, #6
   8d9e4:	12001442 	and	w2, w2, #0x3f
   8d9e8:	321a6463 	orr	w3, w3, #0xffffffc0
   8d9ec:	32196042 	orr	w2, w2, #0xffffff80
   8d9f0:	52800040 	mov	w0, #0x2                   	// #2
   8d9f4:	39000023 	strb	w3, [x1]
   8d9f8:	39000422 	strb	w2, [x1, #1]
   8d9fc:	d65f03c0 	ret
   8da00:	52800000 	mov	w0, #0x0                   	// #0
   8da04:	d65f03c0 	ret
   8da08:	530c7c44 	lsr	w4, w2, #12
   8da0c:	d3462c43 	ubfx	x3, x2, #6, #6
   8da10:	12001442 	and	w2, w2, #0x3f
   8da14:	321b6884 	orr	w4, w4, #0xffffffe0
   8da18:	32196063 	orr	w3, w3, #0xffffff80
   8da1c:	32196042 	orr	w2, w2, #0xffffff80
   8da20:	52800060 	mov	w0, #0x3                   	// #3
   8da24:	39000024 	strb	w4, [x1]
   8da28:	39000423 	strb	w3, [x1, #1]
   8da2c:	39000822 	strb	w2, [x1, #2]
   8da30:	d65f03c0 	ret
   8da34:	52801141 	mov	w1, #0x8a                  	// #138
   8da38:	12800000 	mov	w0, #0xffffffff            	// #-1
   8da3c:	b9000061 	str	w1, [x3]
   8da40:	d65f03c0 	ret
	...

000000000008da50 <__sjis_wctomb>:
   8da50:	aa0003e5 	mov	x5, x0
   8da54:	12001c44 	and	w4, w2, #0xff
   8da58:	d3483c43 	ubfx	x3, x2, #8, #8
   8da5c:	b4000301 	cbz	x1, 8dabc <__sjis_wctomb+0x6c>
   8da60:	34000283 	cbz	w3, 8dab0 <__sjis_wctomb+0x60>
   8da64:	1101fc60 	add	w0, w3, #0x7f
   8da68:	11008063 	add	w3, w3, #0x20
   8da6c:	12001c00 	and	w0, w0, #0xff
   8da70:	12001c63 	and	w3, w3, #0xff
   8da74:	7100781f 	cmp	w0, #0x1e
   8da78:	7a4f8860 	ccmp	w3, #0xf, #0x0, hi	// hi = pmore
   8da7c:	54000248 	b.hi	8dac4 <__sjis_wctomb+0x74>  // b.pmore
   8da80:	51010080 	sub	w0, w4, #0x40
   8da84:	51020084 	sub	w4, w4, #0x80
   8da88:	12001c00 	and	w0, w0, #0xff
   8da8c:	12001c84 	and	w4, w4, #0xff
   8da90:	7100f81f 	cmp	w0, #0x3e
   8da94:	52800f80 	mov	w0, #0x7c                  	// #124
   8da98:	7a408080 	ccmp	w4, w0, #0x0, hi	// hi = pmore
   8da9c:	54000148 	b.hi	8dac4 <__sjis_wctomb+0x74>  // b.pmore
   8daa0:	5ac00442 	rev16	w2, w2
   8daa4:	52800040 	mov	w0, #0x2                   	// #2
   8daa8:	79000022 	strh	w2, [x1]
   8daac:	d65f03c0 	ret
   8dab0:	52800020 	mov	w0, #0x1                   	// #1
   8dab4:	39000024 	strb	w4, [x1]
   8dab8:	d65f03c0 	ret
   8dabc:	52800000 	mov	w0, #0x0                   	// #0
   8dac0:	d65f03c0 	ret
   8dac4:	52801141 	mov	w1, #0x8a                  	// #138
   8dac8:	12800000 	mov	w0, #0xffffffff            	// #-1
   8dacc:	b90000a1 	str	w1, [x5]
   8dad0:	d65f03c0 	ret
	...

000000000008dae0 <__eucjp_wctomb>:
   8dae0:	aa0003e4 	mov	x4, x0
   8dae4:	12001c43 	and	w3, w2, #0xff
   8dae8:	d3483c45 	ubfx	x5, x2, #8, #8
   8daec:	b40003a1 	cbz	x1, 8db60 <__eucjp_wctomb+0x80>
   8daf0:	34000325 	cbz	w5, 8db54 <__eucjp_wctomb+0x74>
   8daf4:	11017ca0 	add	w0, w5, #0x5f
   8daf8:	1101c8a6 	add	w6, w5, #0x72
   8dafc:	12001c00 	and	w0, w0, #0xff
   8db00:	12001cc6 	and	w6, w6, #0xff
   8db04:	7101741f 	cmp	w0, #0x5d
   8db08:	7a4188c0 	ccmp	w6, #0x1, #0x0, hi	// hi = pmore
   8db0c:	54000368 	b.hi	8db78 <__eucjp_wctomb+0x98>  // b.pmore
   8db10:	11017c66 	add	w6, w3, #0x5f
   8db14:	12001cc6 	and	w6, w6, #0xff
   8db18:	710174df 	cmp	w6, #0x5d
   8db1c:	54000269 	b.ls	8db68 <__eucjp_wctomb+0x88>  // b.plast
   8db20:	7101741f 	cmp	w0, #0x5d
   8db24:	540002a8 	b.hi	8db78 <__eucjp_wctomb+0x98>  // b.pmore
   8db28:	32190063 	orr	w3, w3, #0x80
   8db2c:	11017c60 	add	w0, w3, #0x5f
   8db30:	12001c00 	and	w0, w0, #0xff
   8db34:	7101741f 	cmp	w0, #0x5d
   8db38:	54000208 	b.hi	8db78 <__eucjp_wctomb+0x98>  // b.pmore
   8db3c:	12800e02 	mov	w2, #0xffffff8f            	// #-113
   8db40:	52800060 	mov	w0, #0x3                   	// #3
   8db44:	39000022 	strb	w2, [x1]
   8db48:	39000425 	strb	w5, [x1, #1]
   8db4c:	39000823 	strb	w3, [x1, #2]
   8db50:	d65f03c0 	ret
   8db54:	52800020 	mov	w0, #0x1                   	// #1
   8db58:	39000023 	strb	w3, [x1]
   8db5c:	d65f03c0 	ret
   8db60:	52800000 	mov	w0, #0x0                   	// #0
   8db64:	d65f03c0 	ret
   8db68:	5ac00442 	rev16	w2, w2
   8db6c:	52800040 	mov	w0, #0x2                   	// #2
   8db70:	79000022 	strh	w2, [x1]
   8db74:	d65f03c0 	ret
   8db78:	52801141 	mov	w1, #0x8a                  	// #138
   8db7c:	12800000 	mov	w0, #0xffffffff            	// #-1
   8db80:	b9000081 	str	w1, [x4]
   8db84:	d65f03c0 	ret
	...

000000000008db90 <__jis_wctomb>:
   8db90:	aa0003e6 	mov	x6, x0
   8db94:	12001c45 	and	w5, w2, #0xff
   8db98:	d3483c44 	ubfx	x4, x2, #8, #8
   8db9c:	b40004c1 	cbz	x1, 8dc34 <__jis_wctomb+0xa4>
   8dba0:	34000304 	cbz	w4, 8dc00 <__jis_wctomb+0x70>
   8dba4:	51008484 	sub	w4, w4, #0x21
   8dba8:	12001c84 	and	w4, w4, #0xff
   8dbac:	7101749f 	cmp	w4, #0x5d
   8dbb0:	54000468 	b.hi	8dc3c <__jis_wctomb+0xac>  // b.pmore
   8dbb4:	510084a5 	sub	w5, w5, #0x21
   8dbb8:	12001ca5 	and	w5, w5, #0xff
   8dbbc:	710174bf 	cmp	w5, #0x5d
   8dbc0:	540003e8 	b.hi	8dc3c <__jis_wctomb+0xac>  // b.pmore
   8dbc4:	b9400064 	ldr	w4, [x3]
   8dbc8:	52800040 	mov	w0, #0x2                   	// #2
   8dbcc:	35000144 	cbnz	w4, 8dbf4 <__jis_wctomb+0x64>
   8dbd0:	aa0103e4 	mov	x4, x1
   8dbd4:	52800020 	mov	w0, #0x1                   	// #1
   8dbd8:	b9000060 	str	w0, [x3]
   8dbdc:	52848365 	mov	w5, #0x241b                	// #9243
   8dbe0:	52800843 	mov	w3, #0x42                  	// #66
   8dbe4:	528000a0 	mov	w0, #0x5                   	// #5
   8dbe8:	78003485 	strh	w5, [x4], #3
   8dbec:	39000823 	strb	w3, [x1, #2]
   8dbf0:	aa0403e1 	mov	x1, x4
   8dbf4:	5ac00442 	rev16	w2, w2
   8dbf8:	79000022 	strh	w2, [x1]
   8dbfc:	d65f03c0 	ret
   8dc00:	b9400062 	ldr	w2, [x3]
   8dc04:	52800020 	mov	w0, #0x1                   	// #1
   8dc08:	34000122 	cbz	w2, 8dc2c <__jis_wctomb+0x9c>
   8dc0c:	aa0103e2 	mov	x2, x1
   8dc10:	b900007f 	str	wzr, [x3]
   8dc14:	52850364 	mov	w4, #0x281b                	// #10267
   8dc18:	52800843 	mov	w3, #0x42                  	// #66
   8dc1c:	52800080 	mov	w0, #0x4                   	// #4
   8dc20:	78003444 	strh	w4, [x2], #3
   8dc24:	39000823 	strb	w3, [x1, #2]
   8dc28:	aa0203e1 	mov	x1, x2
   8dc2c:	39000025 	strb	w5, [x1]
   8dc30:	d65f03c0 	ret
   8dc34:	52800020 	mov	w0, #0x1                   	// #1
   8dc38:	d65f03c0 	ret
   8dc3c:	52801141 	mov	w1, #0x8a                  	// #138
   8dc40:	12800000 	mov	w0, #0xffffffff            	// #-1
   8dc44:	b90000c1 	str	w1, [x6]
   8dc48:	d65f03c0 	ret
   8dc4c:	00000000 	udf	#0

000000000008dc50 <strncpy>:
   8dc50:	aa000023 	orr	x3, x1, x0
   8dc54:	aa0003e4 	mov	x4, x0
   8dc58:	f240087f 	tst	x3, #0x7
   8dc5c:	fa470840 	ccmp	x2, #0x7, #0x0, eq	// eq = none
   8dc60:	54000109 	b.ls	8dc80 <strncpy+0x30>  // b.plast
   8dc64:	14000011 	b	8dca8 <strncpy+0x58>
   8dc68:	38401425 	ldrb	w5, [x1], #1
   8dc6c:	d1000446 	sub	x6, x2, #0x1
   8dc70:	38001465 	strb	w5, [x3], #1
   8dc74:	340000c5 	cbz	w5, 8dc8c <strncpy+0x3c>
   8dc78:	aa0303e4 	mov	x4, x3
   8dc7c:	aa0603e2 	mov	x2, x6
   8dc80:	aa0403e3 	mov	x3, x4
   8dc84:	b5ffff22 	cbnz	x2, 8dc68 <strncpy+0x18>
   8dc88:	d65f03c0 	ret
   8dc8c:	8b020084 	add	x4, x4, x2
   8dc90:	b4ffffc6 	cbz	x6, 8dc88 <strncpy+0x38>
   8dc94:	d503201f 	nop
   8dc98:	3800147f 	strb	wzr, [x3], #1
   8dc9c:	eb04007f 	cmp	x3, x4
   8dca0:	54ffffc1 	b.ne	8dc98 <strncpy+0x48>  // b.any
   8dca4:	d65f03c0 	ret
   8dca8:	b207dbe6 	mov	x6, #0xfefefefefefefefe    	// #-72340172838076674
   8dcac:	f29fdfe6 	movk	x6, #0xfeff
   8dcb0:	14000006 	b	8dcc8 <strncpy+0x78>
   8dcb4:	d1002042 	sub	x2, x2, #0x8
   8dcb8:	f8008485 	str	x5, [x4], #8
   8dcbc:	91002021 	add	x1, x1, #0x8
   8dcc0:	f1001c5f 	cmp	x2, #0x7
   8dcc4:	54fffde9 	b.ls	8dc80 <strncpy+0x30>  // b.plast
   8dcc8:	f9400025 	ldr	x5, [x1]
   8dccc:	8b0600a3 	add	x3, x5, x6
   8dcd0:	8a250063 	bic	x3, x3, x5
   8dcd4:	f201c07f 	tst	x3, #0x8080808080808080
   8dcd8:	54fffee0 	b.eq	8dcb4 <strncpy+0x64>  // b.none
   8dcdc:	17ffffe9 	b	8dc80 <strncpy+0x30>

000000000008dce0 <stdio_exit_handler>:
   8dce0:	d0000022 	adrp	x2, 93000 <_impure_data+0x148>
   8dce4:	d0000001 	adrp	x1, 8f000 <__utf8_mbtowc+0x70>
   8dce8:	9100c042 	add	x2, x2, #0x30
   8dcec:	9139c021 	add	x1, x1, #0xe70
   8dcf0:	b0000020 	adrp	x0, 92000 <BitFont+0xbc0>
   8dcf4:	913ae000 	add	x0, x0, #0xeb8
   8dcf8:	14000676 	b	8f6d0 <_fwalk_sglue>
   8dcfc:	00000000 	udf	#0

000000000008dd00 <cleanup_stdio>:
   8dd00:	a9be7bfd 	stp	x29, x30, [sp, #-32]!
   8dd04:	b0000082 	adrp	x2, 9e000 <aligned_bufs+0x1d60>
   8dd08:	9111a042 	add	x2, x2, #0x468
   8dd0c:	910003fd 	mov	x29, sp
   8dd10:	f9400401 	ldr	x1, [x0, #8]
   8dd14:	f9000bf3 	str	x19, [sp, #16]
   8dd18:	aa0003f3 	mov	x19, x0
   8dd1c:	eb02003f 	cmp	x1, x2
   8dd20:	54000040 	b.eq	8dd28 <cleanup_stdio+0x28>  // b.none
   8dd24:	94000853 	bl	8fe70 <_fclose_r>
   8dd28:	f9400a61 	ldr	x1, [x19, #16]
   8dd2c:	b0000080 	adrp	x0, 9e000 <aligned_bufs+0x1d60>
   8dd30:	91148000 	add	x0, x0, #0x520
   8dd34:	eb00003f 	cmp	x1, x0
   8dd38:	54000060 	b.eq	8dd44 <cleanup_stdio+0x44>  // b.none
   8dd3c:	aa1303e0 	mov	x0, x19
   8dd40:	9400084c 	bl	8fe70 <_fclose_r>
   8dd44:	f9400e61 	ldr	x1, [x19, #24]
   8dd48:	b0000080 	adrp	x0, 9e000 <aligned_bufs+0x1d60>
   8dd4c:	91176000 	add	x0, x0, #0x5d8
   8dd50:	eb00003f 	cmp	x1, x0
   8dd54:	540000a0 	b.eq	8dd68 <cleanup_stdio+0x68>  // b.none
   8dd58:	aa1303e0 	mov	x0, x19
   8dd5c:	f9400bf3 	ldr	x19, [sp, #16]
   8dd60:	a8c27bfd 	ldp	x29, x30, [sp], #32
   8dd64:	14000843 	b	8fe70 <_fclose_r>
   8dd68:	f9400bf3 	ldr	x19, [sp, #16]
   8dd6c:	a8c27bfd 	ldp	x29, x30, [sp], #32
   8dd70:	d65f03c0 	ret
	...

000000000008dd80 <__fp_lock>:
   8dd80:	b940b020 	ldr	w0, [x1, #176]
   8dd84:	37000060 	tbnz	w0, #0, 8dd90 <__fp_lock+0x10>
   8dd88:	79402020 	ldrh	w0, [x1, #16]
   8dd8c:	36480060 	tbz	w0, #9, 8dd98 <__fp_lock+0x18>
   8dd90:	52800000 	mov	w0, #0x0                   	// #0
   8dd94:	d65f03c0 	ret
   8dd98:	a9bf7bfd 	stp	x29, x30, [sp, #-16]!
   8dd9c:	910003fd 	mov	x29, sp
   8dda0:	f9405020 	ldr	x0, [x1, #160]
   8dda4:	940006cf 	bl	8f8e0 <__retarget_lock_acquire_recursive>
   8dda8:	52800000 	mov	w0, #0x0                   	// #0
   8ddac:	a8c17bfd 	ldp	x29, x30, [sp], #16
   8ddb0:	d65f03c0 	ret
	...

000000000008ddc0 <__fp_unlock>:
   8ddc0:	b940b020 	ldr	w0, [x1, #176]
   8ddc4:	37000060 	tbnz	w0, #0, 8ddd0 <__fp_unlock+0x10>
   8ddc8:	79402020 	ldrh	w0, [x1, #16]
   8ddcc:	36480060 	tbz	w0, #9, 8ddd8 <__fp_unlock+0x18>
   8ddd0:	52800000 	mov	w0, #0x0                   	// #0
   8ddd4:	d65f03c0 	ret
   8ddd8:	a9bf7bfd 	stp	x29, x30, [sp, #-16]!
   8dddc:	910003fd 	mov	x29, sp
   8dde0:	f9405020 	ldr	x0, [x1, #160]
   8dde4:	940006cf 	bl	8f920 <__retarget_lock_release_recursive>
   8dde8:	52800000 	mov	w0, #0x0                   	// #0
   8ddec:	a8c17bfd 	ldp	x29, x30, [sp], #16
   8ddf0:	d65f03c0 	ret
	...

000000000008de00 <global_stdio_init.part.0>:
   8de00:	a9bc7bfd 	stp	x29, x30, [sp, #-64]!
   8de04:	b0000080 	adrp	x0, 9e000 <aligned_bufs+0x1d60>
   8de08:	b0000082 	adrp	x2, 9e000 <aligned_bufs+0x1d60>
   8de0c:	910003fd 	mov	x29, sp
   8de10:	a90153f3 	stp	x19, x20, [sp, #16]
   8de14:	9111a013 	add	x19, x0, #0x468
   8de18:	52800083 	mov	w3, #0x4                   	// #4
   8de1c:	90000001 	adrp	x1, 8d000 <_setlocale_r+0x240>
   8de20:	91338021 	add	x1, x1, #0xce0
   8de24:	f9034841 	str	x1, [x2, #1680]
   8de28:	d2800102 	mov	x2, #0x8                   	// #8
   8de2c:	52800001 	mov	w1, #0x0                   	// #0
   8de30:	a9025bf5 	stp	x21, x22, [sp, #32]
   8de34:	b0000014 	adrp	x20, 8e000 <__sfp+0xa0>
   8de38:	f9001bf7 	str	x23, [sp, #48]
   8de3c:	911c8294 	add	x20, x20, #0x720
   8de40:	f902341f 	str	xzr, [x0, #1128]
   8de44:	b0000080 	adrp	x0, 9e000 <aligned_bufs+0x1d60>
   8de48:	91144000 	add	x0, x0, #0x510
   8de4c:	f900067f 	str	xzr, [x19, #8]
   8de50:	b9001263 	str	w3, [x19, #16]
   8de54:	b0000016 	adrp	x22, 8e000 <__sfp+0xa0>
   8de58:	f9000e7f 	str	xzr, [x19, #24]
   8de5c:	911982d6 	add	x22, x22, #0x660
   8de60:	b900227f 	str	wzr, [x19, #32]
   8de64:	b0000015 	adrp	x21, 8e000 <__sfp+0xa0>
   8de68:	b9002a7f 	str	wzr, [x19, #40]
   8de6c:	911b42b5 	add	x21, x21, #0x6d0
   8de70:	b900b27f 	str	wzr, [x19, #176]
   8de74:	97fff8e3 	bl	8c200 <memset>
   8de78:	b0000017 	adrp	x23, 8e000 <__sfp+0xa0>
   8de7c:	b0000080 	adrp	x0, 9e000 <aligned_bufs+0x1d60>
   8de80:	911802f7 	add	x23, x23, #0x600
   8de84:	91142000 	add	x0, x0, #0x508
   8de88:	a9035e73 	stp	x19, x23, [x19, #48]
   8de8c:	a9045676 	stp	x22, x21, [x19, #64]
   8de90:	f9002a74 	str	x20, [x19, #80]
   8de94:	94000683 	bl	8f8a0 <__retarget_lock_init_recursive>
   8de98:	52800123 	mov	w3, #0x9                   	// #9
   8de9c:	d2800102 	mov	x2, #0x8                   	// #8
   8dea0:	72a00023 	movk	w3, #0x1, lsl #16
   8dea4:	52800001 	mov	w1, #0x0                   	// #0
   8dea8:	b0000080 	adrp	x0, 9e000 <aligned_bufs+0x1d60>
   8deac:	91172000 	add	x0, x0, #0x5c8
   8deb0:	f9005e7f 	str	xzr, [x19, #184]
   8deb4:	f900627f 	str	xzr, [x19, #192]
   8deb8:	b900ca63 	str	w3, [x19, #200]
   8debc:	f9006a7f 	str	xzr, [x19, #208]
   8dec0:	b900da7f 	str	wzr, [x19, #216]
   8dec4:	b900e27f 	str	wzr, [x19, #224]
   8dec8:	b9016a7f 	str	wzr, [x19, #360]
   8decc:	97fff8cd 	bl	8c200 <memset>
   8ded0:	b0000081 	adrp	x1, 9e000 <aligned_bufs+0x1d60>
   8ded4:	91148021 	add	x1, x1, #0x520
   8ded8:	b0000080 	adrp	x0, 9e000 <aligned_bufs+0x1d60>
   8dedc:	91170000 	add	x0, x0, #0x5c0
   8dee0:	a90ede61 	stp	x1, x23, [x19, #232]
   8dee4:	a90fd676 	stp	x22, x21, [x19, #248]
   8dee8:	f9008674 	str	x20, [x19, #264]
   8deec:	9400066d 	bl	8f8a0 <__retarget_lock_init_recursive>
   8def0:	52800243 	mov	w3, #0x12                  	// #18
   8def4:	d2800102 	mov	x2, #0x8                   	// #8
   8def8:	72a00043 	movk	w3, #0x2, lsl #16
   8defc:	52800001 	mov	w1, #0x0                   	// #0
   8df00:	b0000080 	adrp	x0, 9e000 <aligned_bufs+0x1d60>
   8df04:	911a0000 	add	x0, x0, #0x680
   8df08:	f900ba7f 	str	xzr, [x19, #368]
   8df0c:	f900be7f 	str	xzr, [x19, #376]
   8df10:	b9018263 	str	w3, [x19, #384]
   8df14:	f900c67f 	str	xzr, [x19, #392]
   8df18:	b901927f 	str	wzr, [x19, #400]
   8df1c:	b9019a7f 	str	wzr, [x19, #408]
   8df20:	b902227f 	str	wzr, [x19, #544]
   8df24:	97fff8b7 	bl	8c200 <memset>
   8df28:	b0000081 	adrp	x1, 9e000 <aligned_bufs+0x1d60>
   8df2c:	91176021 	add	x1, x1, #0x5d8
   8df30:	a91a5e61 	stp	x1, x23, [x19, #416]
   8df34:	b0000080 	adrp	x0, 9e000 <aligned_bufs+0x1d60>
   8df38:	9119e000 	add	x0, x0, #0x678
   8df3c:	a91b5676 	stp	x22, x21, [x19, #432]
   8df40:	f900e274 	str	x20, [x19, #448]
   8df44:	a94153f3 	ldp	x19, x20, [sp, #16]
   8df48:	a9425bf5 	ldp	x21, x22, [sp, #32]
   8df4c:	f9401bf7 	ldr	x23, [sp, #48]
   8df50:	a8c47bfd 	ldp	x29, x30, [sp], #64
   8df54:	14000653 	b	8f8a0 <__retarget_lock_init_recursive>
	...

000000000008df60 <__sfp>:
   8df60:	a9bc7bfd 	stp	x29, x30, [sp, #-64]!
   8df64:	910003fd 	mov	x29, sp
   8df68:	a9025bf5 	stp	x21, x22, [sp, #32]
   8df6c:	b0000095 	adrp	x21, 9e000 <aligned_bufs+0x1d60>
   8df70:	911c42b5 	add	x21, x21, #0x710
   8df74:	aa0003f6 	mov	x22, x0
   8df78:	aa1503e0 	mov	x0, x21
   8df7c:	a90153f3 	stp	x19, x20, [sp, #16]
   8df80:	f9001bf7 	str	x23, [sp, #48]
   8df84:	94000657 	bl	8f8e0 <__retarget_lock_acquire_recursive>
   8df88:	b0000080 	adrp	x0, 9e000 <aligned_bufs+0x1d60>
   8df8c:	f9434800 	ldr	x0, [x0, #1680]
   8df90:	b40007a0 	cbz	x0, 8e084 <__sfp+0x124>
   8df94:	d0000034 	adrp	x20, 93000 <_impure_data+0x148>
   8df98:	9100c294 	add	x20, x20, #0x30
   8df9c:	52801717 	mov	w23, #0xb8                  	// #184
   8dfa0:	b9400a82 	ldr	w2, [x20, #8]
   8dfa4:	f9400a93 	ldr	x19, [x20, #16]
   8dfa8:	7100005f 	cmp	w2, #0x0
   8dfac:	5400044d 	b.le	8e034 <__sfp+0xd4>
   8dfb0:	9bb74c42 	umaddl	x2, w2, w23, x19
   8dfb4:	14000004 	b	8dfc4 <__sfp+0x64>
   8dfb8:	9102e273 	add	x19, x19, #0xb8
   8dfbc:	eb13005f 	cmp	x2, x19
   8dfc0:	540003a0 	b.eq	8e034 <__sfp+0xd4>  // b.none
   8dfc4:	79c02261 	ldrsh	w1, [x19, #16]
   8dfc8:	35ffff81 	cbnz	w1, 8dfb8 <__sfp+0x58>
   8dfcc:	129fffc0 	mov	w0, #0xffff0001            	// #-65535
   8dfd0:	b9001260 	str	w0, [x19, #16]
   8dfd4:	b900b27f 	str	wzr, [x19, #176]
   8dfd8:	91028260 	add	x0, x19, #0xa0
   8dfdc:	94000631 	bl	8f8a0 <__retarget_lock_init_recursive>
   8dfe0:	aa1503e0 	mov	x0, x21
   8dfe4:	9400064f 	bl	8f920 <__retarget_lock_release_recursive>
   8dfe8:	f900027f 	str	xzr, [x19]
   8dfec:	9102a260 	add	x0, x19, #0xa8
   8dff0:	f900067f 	str	xzr, [x19, #8]
   8dff4:	d2800102 	mov	x2, #0x8                   	// #8
   8dff8:	f9000e7f 	str	xzr, [x19, #24]
   8dffc:	52800001 	mov	w1, #0x0                   	// #0
   8e000:	b900227f 	str	wzr, [x19, #32]
   8e004:	b9002a7f 	str	wzr, [x19, #40]
   8e008:	97fff87e 	bl	8c200 <memset>
   8e00c:	f9002e7f 	str	xzr, [x19, #88]
   8e010:	b900627f 	str	wzr, [x19, #96]
   8e014:	f9003e7f 	str	xzr, [x19, #120]
   8e018:	b900827f 	str	wzr, [x19, #128]
   8e01c:	a9425bf5 	ldp	x21, x22, [sp, #32]
   8e020:	aa1303e0 	mov	x0, x19
   8e024:	a94153f3 	ldp	x19, x20, [sp, #16]
   8e028:	f9401bf7 	ldr	x23, [sp, #48]
   8e02c:	a8c47bfd 	ldp	x29, x30, [sp], #64
   8e030:	d65f03c0 	ret
   8e034:	f9400293 	ldr	x19, [x20]
   8e038:	b4000073 	cbz	x19, 8e044 <__sfp+0xe4>
   8e03c:	aa1303f4 	mov	x20, x19
   8e040:	17ffffd8 	b	8dfa0 <__sfp+0x40>
   8e044:	aa1603e0 	mov	x0, x22
   8e048:	d2805f01 	mov	x1, #0x2f8                 	// #760
   8e04c:	940001b9 	bl	8e730 <_malloc_r>
   8e050:	aa0003f3 	mov	x19, x0
   8e054:	b40001c0 	cbz	x0, 8e08c <__sfp+0x12c>
   8e058:	91006000 	add	x0, x0, #0x18
   8e05c:	52800081 	mov	w1, #0x4                   	// #4
   8e060:	f900027f 	str	xzr, [x19]
   8e064:	d2805c02 	mov	x2, #0x2e0                 	// #736
   8e068:	b9000a61 	str	w1, [x19, #8]
   8e06c:	52800001 	mov	w1, #0x0                   	// #0
   8e070:	f9000a60 	str	x0, [x19, #16]
   8e074:	97fff863 	bl	8c200 <memset>
   8e078:	f9000293 	str	x19, [x20]
   8e07c:	aa1303f4 	mov	x20, x19
   8e080:	17ffffc8 	b	8dfa0 <__sfp+0x40>
   8e084:	97ffff5f 	bl	8de00 <global_stdio_init.part.0>
   8e088:	17ffffc3 	b	8df94 <__sfp+0x34>
   8e08c:	f900029f 	str	xzr, [x20]
   8e090:	aa1503e0 	mov	x0, x21
   8e094:	94000623 	bl	8f920 <__retarget_lock_release_recursive>
   8e098:	52800180 	mov	w0, #0xc                   	// #12
   8e09c:	b90002c0 	str	w0, [x22]
   8e0a0:	17ffffdf 	b	8e01c <__sfp+0xbc>
	...

000000000008e0b0 <__sinit>:
   8e0b0:	a9be7bfd 	stp	x29, x30, [sp, #-32]!
   8e0b4:	910003fd 	mov	x29, sp
   8e0b8:	a90153f3 	stp	x19, x20, [sp, #16]
   8e0bc:	aa0003f4 	mov	x20, x0
   8e0c0:	90000093 	adrp	x19, 9e000 <aligned_bufs+0x1d60>
   8e0c4:	911c4273 	add	x19, x19, #0x710
   8e0c8:	aa1303e0 	mov	x0, x19
   8e0cc:	94000605 	bl	8f8e0 <__retarget_lock_acquire_recursive>
   8e0d0:	f9402680 	ldr	x0, [x20, #72]
   8e0d4:	b50000e0 	cbnz	x0, 8e0f0 <__sinit+0x40>
   8e0d8:	90000081 	adrp	x1, 9e000 <aligned_bufs+0x1d60>
   8e0dc:	f0ffffe0 	adrp	x0, 8d000 <_setlocale_r+0x240>
   8e0e0:	91340000 	add	x0, x0, #0xd00
   8e0e4:	f9002680 	str	x0, [x20, #72]
   8e0e8:	f9434820 	ldr	x0, [x1, #1680]
   8e0ec:	b40000a0 	cbz	x0, 8e100 <__sinit+0x50>
   8e0f0:	aa1303e0 	mov	x0, x19
   8e0f4:	a94153f3 	ldp	x19, x20, [sp, #16]
   8e0f8:	a8c27bfd 	ldp	x29, x30, [sp], #32
   8e0fc:	14000609 	b	8f920 <__retarget_lock_release_recursive>
   8e100:	97ffff40 	bl	8de00 <global_stdio_init.part.0>
   8e104:	aa1303e0 	mov	x0, x19
   8e108:	a94153f3 	ldp	x19, x20, [sp, #16]
   8e10c:	a8c27bfd 	ldp	x29, x30, [sp], #32
   8e110:	14000604 	b	8f920 <__retarget_lock_release_recursive>
	...

000000000008e120 <__sfp_lock_acquire>:
   8e120:	90000080 	adrp	x0, 9e000 <aligned_bufs+0x1d60>
   8e124:	911c4000 	add	x0, x0, #0x710
   8e128:	140005ee 	b	8f8e0 <__retarget_lock_acquire_recursive>
   8e12c:	00000000 	udf	#0

000000000008e130 <__sfp_lock_release>:
   8e130:	90000080 	adrp	x0, 9e000 <aligned_bufs+0x1d60>
   8e134:	911c4000 	add	x0, x0, #0x710
   8e138:	140005fa 	b	8f920 <__retarget_lock_release_recursive>
   8e13c:	00000000 	udf	#0

000000000008e140 <__fp_lock_all>:
   8e140:	a9bf7bfd 	stp	x29, x30, [sp, #-16]!
   8e144:	90000080 	adrp	x0, 9e000 <aligned_bufs+0x1d60>
   8e148:	911c4000 	add	x0, x0, #0x710
   8e14c:	910003fd 	mov	x29, sp
   8e150:	940005e4 	bl	8f8e0 <__retarget_lock_acquire_recursive>
   8e154:	a8c17bfd 	ldp	x29, x30, [sp], #16
   8e158:	b0000022 	adrp	x2, 93000 <_impure_data+0x148>
   8e15c:	f0ffffe1 	adrp	x1, 8d000 <_setlocale_r+0x240>
   8e160:	9100c042 	add	x2, x2, #0x30
   8e164:	91360021 	add	x1, x1, #0xd80
   8e168:	d2800000 	mov	x0, #0x0                   	// #0
   8e16c:	14000559 	b	8f6d0 <_fwalk_sglue>

000000000008e170 <__fp_unlock_all>:
   8e170:	a9bf7bfd 	stp	x29, x30, [sp, #-16]!
   8e174:	b0000022 	adrp	x2, 93000 <_impure_data+0x148>
   8e178:	f0ffffe1 	adrp	x1, 8d000 <_setlocale_r+0x240>
   8e17c:	910003fd 	mov	x29, sp
   8e180:	9100c042 	add	x2, x2, #0x30
   8e184:	91370021 	add	x1, x1, #0xdc0
   8e188:	d2800000 	mov	x0, #0x0                   	// #0
   8e18c:	94000551 	bl	8f6d0 <_fwalk_sglue>
   8e190:	a8c17bfd 	ldp	x29, x30, [sp], #16
   8e194:	90000080 	adrp	x0, 9e000 <aligned_bufs+0x1d60>
   8e198:	911c4000 	add	x0, x0, #0x710
   8e19c:	140005e1 	b	8f920 <__retarget_lock_release_recursive>
	...

000000000008e1c0 <strcmp>:
   8e1c0:	d503245f 	bti	c
   8e1c4:	cb00002a 	sub	x10, x1, x0
   8e1c8:	b200c3e8 	mov	x8, #0x101010101010101     	// #72340172838076673
   8e1cc:	92400806 	and	x6, x0, #0x7
   8e1d0:	f240095f 	tst	x10, #0x7
   8e1d4:	54000401 	b.ne	8e254 <strcmp+0x94>  // b.any
   8e1d8:	b50002c6 	cbnz	x6, 8e230 <strcmp+0x70>
   8e1dc:	d503201f 	nop
   8e1e0:	f86a6803 	ldr	x3, [x0, x10]
   8e1e4:	f8408402 	ldr	x2, [x0], #8
   8e1e8:	cb080044 	sub	x4, x2, x8
   8e1ec:	b200d846 	orr	x6, x2, #0x7f7f7f7f7f7f7f7f
   8e1f0:	ea260084 	bics	x4, x4, x6
   8e1f4:	fa430040 	ccmp	x2, x3, #0x0, eq	// eq = none
   8e1f8:	54ffff40 	b.eq	8e1e0 <strcmp+0x20>  // b.none
   8e1fc:	ca030045 	eor	x5, x2, x3
   8e200:	aa0400a6 	orr	x6, x5, x4
   8e204:	dac00cc6 	rev	x6, x6
   8e208:	dac00c42 	rev	x2, x2
   8e20c:	dac00c63 	rev	x3, x3
   8e210:	dac010c9 	clz	x9, x6
   8e214:	9ac92042 	lsl	x2, x2, x9
   8e218:	9ac92063 	lsl	x3, x3, x9
   8e21c:	d378fc42 	lsr	x2, x2, #56
   8e220:	cb43e040 	sub	x0, x2, x3, lsr #56
   8e224:	d65f03c0 	ret
   8e228:	d503201f 	nop
   8e22c:	d503201f 	nop
   8e230:	927df000 	and	x0, x0, #0xfffffffffffffff8
   8e234:	f86a6803 	ldr	x3, [x0, x10]
   8e238:	f8408402 	ldr	x2, [x0], #8
   8e23c:	cb010fe9 	neg	x9, x1, lsl #3
   8e240:	92800006 	mov	x6, #0xffffffffffffffff    	// #-1
   8e244:	9ac924c6 	lsr	x6, x6, x9
   8e248:	aa060042 	orr	x2, x2, x6
   8e24c:	aa060063 	orr	x3, x3, x6
   8e250:	17ffffe6 	b	8e1e8 <strcmp+0x28>
   8e254:	b4000106 	cbz	x6, 8e274 <strcmp+0xb4>
   8e258:	38401402 	ldrb	w2, [x0], #1
   8e25c:	38401423 	ldrb	w3, [x1], #1
   8e260:	7100005f 	cmp	w2, #0x0
   8e264:	7a431040 	ccmp	w2, w3, #0x0, ne	// ne = any
   8e268:	54000421 	b.ne	8e2ec <strcmp+0x12c>  // b.any
   8e26c:	f240081f 	tst	x0, #0x7
   8e270:	54ffff41 	b.ne	8e258 <strcmp+0x98>  // b.any
   8e274:	cb010fe9 	neg	x9, x1, lsl #3
   8e278:	927df021 	and	x1, x1, #0xfffffffffffffff8
   8e27c:	f8408427 	ldr	x7, [x1], #8
   8e280:	9ac92506 	lsr	x6, x8, x9
   8e284:	aa0600e7 	orr	x7, x7, x6
   8e288:	cb0800e4 	sub	x4, x7, x8
   8e28c:	b200d8e6 	orr	x6, x7, #0x7f7f7f7f7f7f7f7f
   8e290:	ea260084 	bics	x4, x4, x6
   8e294:	540001e1 	b.ne	8e2d0 <strcmp+0x110>  // b.any
   8e298:	cb000025 	sub	x5, x1, x0
   8e29c:	d503201f 	nop
   8e2a0:	f8656807 	ldr	x7, [x0, x5]
   8e2a4:	f86a6803 	ldr	x3, [x0, x10]
   8e2a8:	cb0800e4 	sub	x4, x7, x8
   8e2ac:	b200d8e6 	orr	x6, x7, #0x7f7f7f7f7f7f7f7f
   8e2b0:	f8408402 	ldr	x2, [x0], #8
   8e2b4:	ea260084 	bics	x4, x4, x6
   8e2b8:	fa430040 	ccmp	x2, x3, #0x0, eq	// eq = none
   8e2bc:	54ffff20 	b.eq	8e2a0 <strcmp+0xe0>  // b.none
   8e2c0:	9ac92086 	lsl	x6, x4, x9
   8e2c4:	ca030045 	eor	x5, x2, x3
   8e2c8:	aa0600a6 	orr	x6, x5, x6
   8e2cc:	b5fff9c6 	cbnz	x6, 8e204 <strcmp+0x44>
   8e2d0:	f9400002 	ldr	x2, [x0]
   8e2d4:	cb0903e9 	neg	x9, x9
   8e2d8:	9ac924e3 	lsr	x3, x7, x9
   8e2dc:	9ac92484 	lsr	x4, x4, x9
   8e2e0:	ca030045 	eor	x5, x2, x3
   8e2e4:	aa0400a6 	orr	x6, x5, x4
   8e2e8:	17ffffc7 	b	8e204 <strcmp+0x44>
   8e2ec:	cb030040 	sub	x0, x2, x3
   8e2f0:	d65f03c0 	ret
	...

000000000008e300 <strcpy>:
   8e300:	d503245f 	bti	c
   8e304:	927cec22 	and	x2, x1, #0xfffffffffffffff0
   8e308:	4c407040 	ld1	{v0.16b}, [x2]
   8e30c:	4e209801 	cmeq	v1.16b, v0.16b, #0
   8e310:	d37ef425 	lsl	x5, x1, #2
   8e314:	0f0c8422 	shrn	v2.8b, v1.8h, #4
   8e318:	9e660044 	fmov	x4, d2
   8e31c:	9ac52484 	lsr	x4, x4, x5
   8e320:	b5000224 	cbnz	x4, 8e364 <strcpy+0x64>
   8e324:	3cc10c40 	ldr	q0, [x2, #16]!
   8e328:	4e209801 	cmeq	v1.16b, v0.16b, #0
   8e32c:	0f0c8422 	shrn	v2.8b, v1.8h, #4
   8e330:	9e660044 	fmov	x4, d2
   8e334:	b4000464 	cbz	x4, 8e3c0 <strcpy+0xc0>
   8e338:	dac00084 	rbit	x4, x4
   8e33c:	cb010045 	sub	x5, x2, x1
   8e340:	dac01084 	clz	x4, x4
   8e344:	8b4408a4 	add	x4, x5, x4, lsr #2
   8e348:	36200144 	tbz	w4, #4, 8e370 <strcpy+0x70>
   8e34c:	d1003c85 	sub	x5, x4, #0xf
   8e350:	3dc00020 	ldr	q0, [x1]
   8e354:	3ce56821 	ldr	q1, [x1, x5]
   8e358:	3d800000 	str	q0, [x0]
   8e35c:	3ca56801 	str	q1, [x0, x5]
   8e360:	d65f03c0 	ret
   8e364:	dac00084 	rbit	x4, x4
   8e368:	dac01084 	clz	x4, x4
   8e36c:	d342fc84 	lsr	x4, x4, #2
   8e370:	36180104 	tbz	w4, #3, 8e390 <strcpy+0x90>
   8e374:	d1001c85 	sub	x5, x4, #0x7
   8e378:	f9400026 	ldr	x6, [x1]
   8e37c:	f8656827 	ldr	x7, [x1, x5]
   8e380:	f9000006 	str	x6, [x0]
   8e384:	f8256807 	str	x7, [x0, x5]
   8e388:	d65f03c0 	ret
   8e38c:	d503201f 	nop
   8e390:	f1000c85 	subs	x5, x4, #0x3
   8e394:	540000c3 	b.cc	8e3ac <strcpy+0xac>  // b.lo, b.ul, b.last
   8e398:	b9400026 	ldr	w6, [x1]
   8e39c:	b8656827 	ldr	w7, [x1, x5]
   8e3a0:	b9000006 	str	w6, [x0]
   8e3a4:	b8256807 	str	w7, [x0, x5]
   8e3a8:	d65f03c0 	ret
   8e3ac:	b4000064 	cbz	x4, 8e3b8 <strcpy+0xb8>
   8e3b0:	79400026 	ldrh	w6, [x1]
   8e3b4:	79000006 	strh	w6, [x0]
   8e3b8:	3824681f 	strb	wzr, [x0, x4]
   8e3bc:	d65f03c0 	ret
   8e3c0:	cb000025 	sub	x5, x1, x0
   8e3c4:	3dc00021 	ldr	q1, [x1]
   8e3c8:	cb050043 	sub	x3, x2, x5
   8e3cc:	3d800001 	str	q1, [x0]
   8e3d0:	3c820460 	str	q0, [x3], #32
   8e3d4:	3dc00440 	ldr	q0, [x2, #16]
   8e3d8:	4e209801 	cmeq	v1.16b, v0.16b, #0
   8e3dc:	6e21a422 	umaxp	v2.16b, v1.16b, v1.16b
   8e3e0:	9e660044 	fmov	x4, d2
   8e3e4:	b5000104 	cbnz	x4, 8e404 <strcpy+0x104>
   8e3e8:	3c9f0060 	stur	q0, [x3, #-16]
   8e3ec:	3cc20c40 	ldr	q0, [x2, #32]!
   8e3f0:	4e209801 	cmeq	v1.16b, v0.16b, #0
   8e3f4:	6e21a422 	umaxp	v2.16b, v1.16b, v1.16b
   8e3f8:	9e660044 	fmov	x4, d2
   8e3fc:	b4fffea4 	cbz	x4, 8e3d0 <strcpy+0xd0>
   8e400:	91004063 	add	x3, x3, #0x10
   8e404:	0f0c8422 	shrn	v2.8b, v1.8h, #4
   8e408:	9e660044 	fmov	x4, d2
   8e40c:	d1007c63 	sub	x3, x3, #0x1f
   8e410:	dac00084 	rbit	x4, x4
   8e414:	dac01084 	clz	x4, x4
   8e418:	d342fc84 	lsr	x4, x4, #2
   8e41c:	8b040063 	add	x3, x3, x4
   8e420:	3ce56860 	ldr	q0, [x3, x5]
   8e424:	3d800060 	str	q0, [x3]
   8e428:	d65f03c0 	ret
	...

000000000008e440 <strncmp>:
   8e440:	d503245f 	bti	c
   8e444:	b4000d42 	cbz	x2, 8e5ec <strncmp+0x1ac>
   8e448:	ca010008 	eor	x8, x0, x1
   8e44c:	b200c3eb 	mov	x11, #0x101010101010101     	// #72340172838076673
   8e450:	f240091f 	tst	x8, #0x7
   8e454:	9240080d 	and	x13, x0, #0x7
   8e458:	540004c1 	b.ne	8e4f0 <strncmp+0xb0>  // b.any
   8e45c:	b500030d 	cbnz	x13, 8e4bc <strncmp+0x7c>
   8e460:	f8408403 	ldr	x3, [x0], #8
   8e464:	f8408424 	ldr	x4, [x1], #8
   8e468:	f1002042 	subs	x2, x2, #0x8
   8e46c:	cb0b0068 	sub	x8, x3, x11
   8e470:	b200d869 	orr	x9, x3, #0x7f7f7f7f7f7f7f7f
   8e474:	ca040066 	eor	x6, x3, x4
   8e478:	da9f80ce 	csinv	x14, x6, xzr, hi	// hi = pmore
   8e47c:	ea290105 	bics	x5, x8, x9
   8e480:	fa4009c0 	ccmp	x14, #0x0, #0x0, eq	// eq = none
   8e484:	54fffee0 	b.eq	8e460 <strncmp+0x20>  // b.none
   8e488:	aa0500c7 	orr	x7, x6, x5
   8e48c:	91002042 	add	x2, x2, #0x8
   8e490:	dac00ce7 	rev	x7, x7
   8e494:	dac00c63 	rev	x3, x3
   8e498:	dac010ec 	clz	x12, x7
   8e49c:	dac00c84 	rev	x4, x4
   8e4a0:	9acc2063 	lsl	x3, x3, x12
   8e4a4:	eb4c0c5f 	cmp	x2, x12, lsr #3
   8e4a8:	9acc2084 	lsl	x4, x4, x12
   8e4ac:	d378fc63 	lsr	x3, x3, #56
   8e4b0:	cb44e060 	sub	x0, x3, x4, lsr #56
   8e4b4:	9a9f8000 	csel	x0, x0, xzr, hi	// hi = pmore
   8e4b8:	d65f03c0 	ret
   8e4bc:	927df000 	and	x0, x0, #0xfffffffffffffff8
   8e4c0:	927df021 	and	x1, x1, #0xfffffffffffffff8
   8e4c4:	f8408403 	ldr	x3, [x0], #8
   8e4c8:	cb0d0fea 	neg	x10, x13, lsl #3
   8e4cc:	f8408424 	ldr	x4, [x1], #8
   8e4d0:	92800009 	mov	x9, #0xffffffffffffffff    	// #-1
   8e4d4:	9aca2529 	lsr	x9, x9, x10
   8e4d8:	ab0d0042 	adds	x2, x2, x13
   8e4dc:	da9f3042 	csinv	x2, x2, xzr, cc	// cc = lo, ul, last
   8e4e0:	aa090063 	orr	x3, x3, x9
   8e4e4:	aa090084 	orr	x4, x4, x9
   8e4e8:	17ffffe0 	b	8e468 <strncmp+0x28>
   8e4ec:	d503201f 	nop
   8e4f0:	f100405f 	cmp	x2, #0x10
   8e4f4:	54000122 	b.cs	8e518 <strncmp+0xd8>  // b.hs, b.nlast
   8e4f8:	38401403 	ldrb	w3, [x0], #1
   8e4fc:	38401424 	ldrb	w4, [x1], #1
   8e500:	f1000442 	subs	x2, x2, #0x1
   8e504:	7a418860 	ccmp	w3, #0x1, #0x0, hi	// hi = pmore
   8e508:	7a442060 	ccmp	w3, w4, #0x0, cs	// cs = hs, nlast
   8e50c:	54ffff60 	b.eq	8e4f8 <strncmp+0xb8>  // b.none
   8e510:	cb040060 	sub	x0, x3, x4
   8e514:	d65f03c0 	ret
   8e518:	b400016d 	cbz	x13, 8e544 <strncmp+0x104>
   8e51c:	cb0d03ed 	neg	x13, x13
   8e520:	924009ad 	and	x13, x13, #0x7
   8e524:	cb0d0042 	sub	x2, x2, x13
   8e528:	38401403 	ldrb	w3, [x0], #1
   8e52c:	38401424 	ldrb	w4, [x1], #1
   8e530:	7100047f 	cmp	w3, #0x1
   8e534:	7a442060 	ccmp	w3, w4, #0x0, cs	// cs = hs, nlast
   8e538:	54fffec1 	b.ne	8e510 <strncmp+0xd0>  // b.any
   8e53c:	f10005ad 	subs	x13, x13, #0x1
   8e540:	54ffff48 	b.hi	8e528 <strncmp+0xe8>  // b.pmore
   8e544:	d37df02c 	lsl	x12, x1, #3
   8e548:	927cec21 	and	x1, x1, #0xfffffffffffffff0
   8e54c:	9280000d 	mov	x13, #0xffffffffffffffff    	// #-1
   8e550:	cb0c03ef 	neg	x15, x12
   8e554:	f8408403 	ldr	x3, [x0], #8
   8e558:	a8c12428 	ldp	x8, x9, [x1], #16
   8e55c:	9acf21ad 	lsl	x13, x13, x15
   8e560:	924015ef 	and	x15, x15, #0x3f
   8e564:	373001ac 	tbnz	w12, #6, 8e598 <strncmp+0x158>
   8e568:	9acc2504 	lsr	x4, x8, x12
   8e56c:	9acf2128 	lsl	x8, x9, x15
   8e570:	f1002042 	subs	x2, x2, #0x8
   8e574:	aa080084 	orr	x4, x4, x8
   8e578:	cb0b0065 	sub	x5, x3, x11
   8e57c:	ca040066 	eor	x6, x3, x4
   8e580:	b200d86a 	orr	x10, x3, #0x7f7f7f7f7f7f7f7f
   8e584:	da9f80ce 	csinv	x14, x6, xzr, hi	// hi = pmore
   8e588:	8a2a00a5 	bic	x5, x5, x10
   8e58c:	aa0501ca 	orr	x10, x14, x5
   8e590:	b5fff7ca 	cbnz	x10, 8e488 <strncmp+0x48>
   8e594:	f8408403 	ldr	x3, [x0], #8
   8e598:	9acc2524 	lsr	x4, x9, x12
   8e59c:	cb0b0065 	sub	x5, x3, x11
   8e5a0:	b200d86a 	orr	x10, x3, #0x7f7f7f7f7f7f7f7f
   8e5a4:	ca030086 	eor	x6, x4, x3
   8e5a8:	8a2a00a5 	bic	x5, x5, x10
   8e5ac:	eb4f0c5f 	cmp	x2, x15, lsr #3
   8e5b0:	aa0500c7 	orr	x7, x6, x5
   8e5b4:	8a2d00e7 	bic	x7, x7, x13
   8e5b8:	da9f80ea 	csinv	x10, x7, xzr, hi	// hi = pmore
   8e5bc:	b5fff6aa 	cbnz	x10, 8e490 <strncmp+0x50>
   8e5c0:	a8c12428 	ldp	x8, x9, [x1], #16
   8e5c4:	f100205f 	cmp	x2, #0x8
   8e5c8:	9acf2104 	lsl	x4, x8, x15
   8e5cc:	ca030086 	eor	x6, x4, x3
   8e5d0:	aa0500c7 	orr	x7, x6, x5
   8e5d4:	8a0d00e7 	and	x7, x7, x13
   8e5d8:	da9f80ea 	csinv	x10, x7, xzr, hi	// hi = pmore
   8e5dc:	b5fff5aa 	cbnz	x10, 8e490 <strncmp+0x50>
   8e5e0:	f8408403 	ldr	x3, [x0], #8
   8e5e4:	d1002042 	sub	x2, x2, #0x8
   8e5e8:	17ffffe0 	b	8e568 <strncmp+0x128>
   8e5ec:	d2800000 	mov	x0, #0x0                   	// #0
   8e5f0:	d65f03c0 	ret
	...

000000000008e600 <__sread>:
   8e600:	a9be7bfd 	stp	x29, x30, [sp, #-32]!
   8e604:	93407c63 	sxtw	x3, w3
   8e608:	910003fd 	mov	x29, sp
   8e60c:	f9000bf3 	str	x19, [sp, #16]
   8e610:	aa0103f3 	mov	x19, x1
   8e614:	79c02421 	ldrsh	w1, [x1, #18]
   8e618:	94000762 	bl	903a0 <_read_r>
   8e61c:	b7f800e0 	tbnz	x0, #63, 8e638 <__sread+0x38>
   8e620:	f9404a61 	ldr	x1, [x19, #144]
   8e624:	8b000021 	add	x1, x1, x0
   8e628:	f9004a61 	str	x1, [x19, #144]
   8e62c:	f9400bf3 	ldr	x19, [sp, #16]
   8e630:	a8c27bfd 	ldp	x29, x30, [sp], #32
   8e634:	d65f03c0 	ret
   8e638:	79402261 	ldrh	w1, [x19, #16]
   8e63c:	12137821 	and	w1, w1, #0xffffefff
   8e640:	79002261 	strh	w1, [x19, #16]
   8e644:	f9400bf3 	ldr	x19, [sp, #16]
   8e648:	a8c27bfd 	ldp	x29, x30, [sp], #32
   8e64c:	d65f03c0 	ret

000000000008e650 <__seofread>:
   8e650:	52800000 	mov	w0, #0x0                   	// #0
   8e654:	d65f03c0 	ret
	...

000000000008e660 <__swrite>:
   8e660:	a9bd7bfd 	stp	x29, x30, [sp, #-48]!
   8e664:	910003fd 	mov	x29, sp
   8e668:	79c02024 	ldrsh	w4, [x1, #16]
   8e66c:	a90153f3 	stp	x19, x20, [sp, #16]
   8e670:	aa0103f3 	mov	x19, x1
   8e674:	aa0003f4 	mov	x20, x0
   8e678:	a9025bf5 	stp	x21, x22, [sp, #32]
   8e67c:	aa0203f5 	mov	x21, x2
   8e680:	2a0303f6 	mov	w22, w3
   8e684:	37400184 	tbnz	w4, #8, 8e6b4 <__swrite+0x54>
   8e688:	79c02661 	ldrsh	w1, [x19, #18]
   8e68c:	12137884 	and	w4, w4, #0xffffefff
   8e690:	79002264 	strh	w4, [x19, #16]
   8e694:	93407ec3 	sxtw	x3, w22
   8e698:	aa1503e2 	mov	x2, x21
   8e69c:	aa1403e0 	mov	x0, x20
   8e6a0:	940003f0 	bl	8f660 <_write_r>
   8e6a4:	a94153f3 	ldp	x19, x20, [sp, #16]
   8e6a8:	a9425bf5 	ldp	x21, x22, [sp, #32]
   8e6ac:	a8c37bfd 	ldp	x29, x30, [sp], #48
   8e6b0:	d65f03c0 	ret
   8e6b4:	79c02421 	ldrsh	w1, [x1, #18]
   8e6b8:	52800043 	mov	w3, #0x2                   	// #2
   8e6bc:	d2800002 	mov	x2, #0x0                   	// #0
   8e6c0:	94000720 	bl	90340 <_lseek_r>
   8e6c4:	79c02264 	ldrsh	w4, [x19, #16]
   8e6c8:	17fffff0 	b	8e688 <__swrite+0x28>
   8e6cc:	00000000 	udf	#0

000000000008e6d0 <__sseek>:
   8e6d0:	a9be7bfd 	stp	x29, x30, [sp, #-32]!
   8e6d4:	910003fd 	mov	x29, sp
   8e6d8:	f9000bf3 	str	x19, [sp, #16]
   8e6dc:	aa0103f3 	mov	x19, x1
   8e6e0:	79c02421 	ldrsh	w1, [x1, #18]
   8e6e4:	94000717 	bl	90340 <_lseek_r>
   8e6e8:	79c02261 	ldrsh	w1, [x19, #16]
   8e6ec:	b100041f 	cmn	x0, #0x1
   8e6f0:	540000e0 	b.eq	8e70c <__sseek+0x3c>  // b.none
   8e6f4:	32140021 	orr	w1, w1, #0x1000
   8e6f8:	79002261 	strh	w1, [x19, #16]
   8e6fc:	f9004a60 	str	x0, [x19, #144]
   8e700:	f9400bf3 	ldr	x19, [sp, #16]
   8e704:	a8c27bfd 	ldp	x29, x30, [sp], #32
   8e708:	d65f03c0 	ret
   8e70c:	12137821 	and	w1, w1, #0xffffefff
   8e710:	79002261 	strh	w1, [x19, #16]
   8e714:	f9400bf3 	ldr	x19, [sp, #16]
   8e718:	a8c27bfd 	ldp	x29, x30, [sp], #32
   8e71c:	d65f03c0 	ret

000000000008e720 <__sclose>:
   8e720:	79c02421 	ldrsh	w1, [x1, #18]
   8e724:	1400058b 	b	8fd50 <_close_r>
	...

000000000008e730 <_malloc_r>:
   8e730:	a9ba7bfd 	stp	x29, x30, [sp, #-96]!
   8e734:	910003fd 	mov	x29, sp
   8e738:	a90153f3 	stp	x19, x20, [sp, #16]
   8e73c:	91005c34 	add	x20, x1, #0x17
   8e740:	a9025bf5 	stp	x21, x22, [sp, #32]
   8e744:	aa0003f5 	mov	x21, x0
   8e748:	f100ba9f 	cmp	x20, #0x2e
   8e74c:	54000ca8 	b.hi	8e8e0 <_malloc_r+0x1b0>  // b.pmore
   8e750:	f100803f 	cmp	x1, #0x20
   8e754:	54001988 	b.hi	8ea84 <_malloc_r+0x354>  // b.pmore
   8e758:	94000406 	bl	8f770 <__malloc_lock>
   8e75c:	d2800414 	mov	x20, #0x20                  	// #32
   8e760:	d2800a01 	mov	x1, #0x50                  	// #80
   8e764:	52800080 	mov	w0, #0x4                   	// #4
   8e768:	b0000036 	adrp	x22, 93000 <_impure_data+0x148>
   8e76c:	910182d6 	add	x22, x22, #0x60
   8e770:	8b0102c1 	add	x1, x22, x1
   8e774:	11000800 	add	w0, w0, #0x2
   8e778:	d1004021 	sub	x1, x1, #0x10
   8e77c:	f9400c33 	ldr	x19, [x1, #24]
   8e780:	eb01027f 	cmp	x19, x1
   8e784:	54001dc1 	b.ne	8eb3c <_malloc_r+0x40c>  // b.any
   8e788:	f94012d3 	ldr	x19, [x22, #32]
   8e78c:	b0000026 	adrp	x6, 93000 <_impure_data+0x148>
   8e790:	9101c0c6 	add	x6, x6, #0x70
   8e794:	eb06027f 	cmp	x19, x6
   8e798:	54000f60 	b.eq	8e984 <_malloc_r+0x254>  // b.none
   8e79c:	f9400661 	ldr	x1, [x19, #8]
   8e7a0:	927ef421 	and	x1, x1, #0xfffffffffffffffc
   8e7a4:	cb140022 	sub	x2, x1, x20
   8e7a8:	f1007c5f 	cmp	x2, #0x1f
   8e7ac:	540027ac 	b.gt	8eca0 <_malloc_r+0x570>
   8e7b0:	a9021ac6 	stp	x6, x6, [x22, #32]
   8e7b4:	b6f81782 	tbz	x2, #63, 8eaa4 <_malloc_r+0x374>
   8e7b8:	f94006c5 	ldr	x5, [x22, #8]
   8e7bc:	f107fc3f 	cmp	x1, #0x1ff
   8e7c0:	54001ec8 	b.hi	8eb98 <_malloc_r+0x468>  // b.pmore
   8e7c4:	d343fc22 	lsr	x2, x1, #3
   8e7c8:	d2800023 	mov	x3, #0x1                   	// #1
   8e7cc:	11000441 	add	w1, w2, #0x1
   8e7d0:	13027c42 	asr	w2, w2, #2
   8e7d4:	531f7821 	lsl	w1, w1, #1
   8e7d8:	9ac22062 	lsl	x2, x3, x2
   8e7dc:	aa0200a5 	orr	x5, x5, x2
   8e7e0:	8b21cec1 	add	x1, x22, w1, sxtw #3
   8e7e4:	f85f0422 	ldr	x2, [x1], #-16
   8e7e8:	f90006c5 	str	x5, [x22, #8]
   8e7ec:	a9010662 	stp	x2, x1, [x19, #16]
   8e7f0:	f9000833 	str	x19, [x1, #16]
   8e7f4:	f9000c53 	str	x19, [x2, #24]
   8e7f8:	13027c01 	asr	w1, w0, #2
   8e7fc:	d2800024 	mov	x4, #0x1                   	// #1
   8e800:	9ac12084 	lsl	x4, x4, x1
   8e804:	eb05009f 	cmp	x4, x5
   8e808:	54000ca8 	b.hi	8e99c <_malloc_r+0x26c>  // b.pmore
   8e80c:	ea05009f 	tst	x4, x5
   8e810:	540000c1 	b.ne	8e828 <_malloc_r+0xf8>  // b.any
   8e814:	121e7400 	and	w0, w0, #0xfffffffc
   8e818:	d37ff884 	lsl	x4, x4, #1
   8e81c:	11001000 	add	w0, w0, #0x4
   8e820:	ea05009f 	tst	x4, x5
   8e824:	54ffffa0 	b.eq	8e818 <_malloc_r+0xe8>  // b.none
   8e828:	928001e9 	mov	x9, #0xfffffffffffffff0    	// #-16
   8e82c:	11000407 	add	w7, w0, #0x1
   8e830:	2a0003e8 	mov	w8, w0
   8e834:	531f78e7 	lsl	w7, w7, #1
   8e838:	8b27cd27 	add	x7, x9, w7, sxtw #3
   8e83c:	8b0702c7 	add	x7, x22, x7
   8e840:	aa0703e5 	mov	x5, x7
   8e844:	f9400ca1 	ldr	x1, [x5, #24]
   8e848:	14000009 	b	8e86c <_malloc_r+0x13c>
   8e84c:	f9400422 	ldr	x2, [x1, #8]
   8e850:	aa0103f3 	mov	x19, x1
   8e854:	f9400c21 	ldr	x1, [x1, #24]
   8e858:	927ef442 	and	x2, x2, #0xfffffffffffffffc
   8e85c:	cb140043 	sub	x3, x2, x20
   8e860:	f1007c7f 	cmp	x3, #0x1f
   8e864:	54001e2c 	b.gt	8ec28 <_malloc_r+0x4f8>
   8e868:	b6f81fe3 	tbz	x3, #63, 8ec64 <_malloc_r+0x534>
   8e86c:	eb0100bf 	cmp	x5, x1
   8e870:	54fffee1 	b.ne	8e84c <_malloc_r+0x11c>  // b.any
   8e874:	7100f91f 	cmp	w8, #0x3e
   8e878:	5400242d 	b.le	8ecfc <_malloc_r+0x5cc>
   8e87c:	910040a5 	add	x5, x5, #0x10
   8e880:	11000508 	add	w8, w8, #0x1
   8e884:	f240051f 	tst	x8, #0x3
   8e888:	54fffde1 	b.ne	8e844 <_malloc_r+0x114>  // b.any
   8e88c:	14000005 	b	8e8a0 <_malloc_r+0x170>
   8e890:	f85f04e1 	ldr	x1, [x7], #-16
   8e894:	51000400 	sub	w0, w0, #0x1
   8e898:	eb07003f 	cmp	x1, x7
   8e89c:	54003401 	b.ne	8ef1c <_malloc_r+0x7ec>  // b.any
   8e8a0:	f240041f 	tst	x0, #0x3
   8e8a4:	54ffff61 	b.ne	8e890 <_malloc_r+0x160>  // b.any
   8e8a8:	f94006c0 	ldr	x0, [x22, #8]
   8e8ac:	8a240000 	bic	x0, x0, x4
   8e8b0:	f90006c0 	str	x0, [x22, #8]
   8e8b4:	d37ff884 	lsl	x4, x4, #1
   8e8b8:	d1000481 	sub	x1, x4, #0x1
   8e8bc:	eb00003f 	cmp	x1, x0
   8e8c0:	54000083 	b.cc	8e8d0 <_malloc_r+0x1a0>  // b.lo, b.ul, b.last
   8e8c4:	14000036 	b	8e99c <_malloc_r+0x26c>
   8e8c8:	d37ff884 	lsl	x4, x4, #1
   8e8cc:	11001108 	add	w8, w8, #0x4
   8e8d0:	ea00009f 	tst	x4, x0
   8e8d4:	54ffffa0 	b.eq	8e8c8 <_malloc_r+0x198>  // b.none
   8e8d8:	2a0803e0 	mov	w0, w8
   8e8dc:	17ffffd4 	b	8e82c <_malloc_r+0xfc>
   8e8e0:	927cee94 	and	x20, x20, #0xfffffffffffffff0
   8e8e4:	b2407be2 	mov	x2, #0x7fffffff            	// #2147483647
   8e8e8:	eb02029f 	cmp	x20, x2
   8e8ec:	fa549022 	ccmp	x1, x20, #0x2, ls	// ls = plast
   8e8f0:	54000ca8 	b.hi	8ea84 <_malloc_r+0x354>  // b.pmore
   8e8f4:	9400039f 	bl	8f770 <__malloc_lock>
   8e8f8:	f107de9f 	cmp	x20, #0x1f7
   8e8fc:	54001c89 	b.ls	8ec8c <_malloc_r+0x55c>  // b.plast
   8e900:	d349fe81 	lsr	x1, x20, #9
   8e904:	b4000c81 	cbz	x1, 8ea94 <_malloc_r+0x364>
   8e908:	f100103f 	cmp	x1, #0x4
   8e90c:	540017a8 	b.hi	8ec00 <_malloc_r+0x4d0>  // b.pmore
   8e910:	d346fe81 	lsr	x1, x20, #6
   8e914:	1100e420 	add	w0, w1, #0x39
   8e918:	1100e025 	add	w5, w1, #0x38
   8e91c:	531f7804 	lsl	w4, w0, #1
   8e920:	937d7c84 	sbfiz	x4, x4, #3, #32
   8e924:	b0000036 	adrp	x22, 93000 <_impure_data+0x148>
   8e928:	910182d6 	add	x22, x22, #0x60
   8e92c:	8b0402c4 	add	x4, x22, x4
   8e930:	d1004084 	sub	x4, x4, #0x10
   8e934:	f9400c93 	ldr	x19, [x4, #24]
   8e938:	eb13009f 	cmp	x4, x19
   8e93c:	540000e1 	b.ne	8e958 <_malloc_r+0x228>  // b.any
   8e940:	17ffff92 	b	8e788 <_malloc_r+0x58>
   8e944:	f9400e63 	ldr	x3, [x19, #24]
   8e948:	b6f811c2 	tbz	x2, #63, 8eb80 <_malloc_r+0x450>
   8e94c:	aa0303f3 	mov	x19, x3
   8e950:	eb03009f 	cmp	x4, x3
   8e954:	54fff1a0 	b.eq	8e788 <_malloc_r+0x58>  // b.none
   8e958:	f9400661 	ldr	x1, [x19, #8]
   8e95c:	927ef421 	and	x1, x1, #0xfffffffffffffffc
   8e960:	cb140022 	sub	x2, x1, x20
   8e964:	f1007c5f 	cmp	x2, #0x1f
   8e968:	54fffeed 	b.le	8e944 <_malloc_r+0x214>
   8e96c:	f94012d3 	ldr	x19, [x22, #32]
   8e970:	b0000026 	adrp	x6, 93000 <_impure_data+0x148>
   8e974:	9101c0c6 	add	x6, x6, #0x70
   8e978:	2a0503e0 	mov	w0, w5
   8e97c:	eb06027f 	cmp	x19, x6
   8e980:	54fff0e1 	b.ne	8e79c <_malloc_r+0x6c>  // b.any
   8e984:	f94006c5 	ldr	x5, [x22, #8]
   8e988:	13027c01 	asr	w1, w0, #2
   8e98c:	d2800024 	mov	x4, #0x1                   	// #1
   8e990:	9ac12084 	lsl	x4, x4, x1
   8e994:	eb05009f 	cmp	x4, x5
   8e998:	54fff3a9 	b.ls	8e80c <_malloc_r+0xdc>  // b.plast
   8e99c:	f9400ad3 	ldr	x19, [x22, #16]
   8e9a0:	a90363f7 	stp	x23, x24, [sp, #48]
   8e9a4:	f9400677 	ldr	x23, [x19, #8]
   8e9a8:	927ef6f7 	and	x23, x23, #0xfffffffffffffffc
   8e9ac:	cb1402e0 	sub	x0, x23, x20
   8e9b0:	f1007c1f 	cmp	x0, #0x1f
   8e9b4:	fa54c2e0 	ccmp	x23, x20, #0x0, gt
   8e9b8:	54000a42 	b.cs	8eb00 <_malloc_r+0x3d0>  // b.hs, b.nlast
   8e9bc:	90000081 	adrp	x1, 9e000 <aligned_bufs+0x1d60>
   8e9c0:	a90573fb 	stp	x27, x28, [sp, #80]
   8e9c4:	b000003c 	adrp	x28, 93000 <_impure_data+0x148>
   8e9c8:	f9436821 	ldr	x1, [x1, #1744]
   8e9cc:	d28203e3 	mov	x3, #0x101f                	// #4127
   8e9d0:	f9402782 	ldr	x2, [x28, #72]
   8e9d4:	8b010281 	add	x1, x20, x1
   8e9d8:	8b030038 	add	x24, x1, x3
   8e9dc:	91008021 	add	x1, x1, #0x20
   8e9e0:	b100045f 	cmn	x2, #0x1
   8e9e4:	9274cf18 	and	x24, x24, #0xfffffffffffff000
   8e9e8:	9a811318 	csel	x24, x24, x1, ne	// ne = any
   8e9ec:	aa1503e0 	mov	x0, x21
   8e9f0:	aa1803e1 	mov	x1, x24
   8e9f4:	8b17027b 	add	x27, x19, x23
   8e9f8:	a9046bf9 	stp	x25, x26, [sp, #64]
   8e9fc:	94000305 	bl	8f610 <_sbrk_r>
   8ea00:	aa0003f9 	mov	x25, x0
   8ea04:	b100041f 	cmn	x0, #0x1
   8ea08:	540006a0 	b.eq	8eadc <_malloc_r+0x3ac>  // b.none
   8ea0c:	eb00037f 	cmp	x27, x0
   8ea10:	54000628 	b.hi	8ead4 <_malloc_r+0x3a4>  // b.pmore
   8ea14:	9000009a 	adrp	x26, 9e000 <aligned_bufs+0x1d60>
   8ea18:	b9469b41 	ldr	w1, [x26, #1688]
   8ea1c:	0b180021 	add	w1, w1, w24
   8ea20:	b9069b41 	str	w1, [x26, #1688]
   8ea24:	2a0103e0 	mov	w0, w1
   8ea28:	54001781 	b.ne	8ed18 <_malloc_r+0x5e8>  // b.any
   8ea2c:	f2402f7f 	tst	x27, #0xfff
   8ea30:	54001741 	b.ne	8ed18 <_malloc_r+0x5e8>  // b.any
   8ea34:	f9400ac2 	ldr	x2, [x22, #16]
   8ea38:	8b1802e0 	add	x0, x23, x24
   8ea3c:	b2400000 	orr	x0, x0, #0x1
   8ea40:	f9000440 	str	x0, [x2, #8]
   8ea44:	d503201f 	nop
   8ea48:	90000080 	adrp	x0, 9e000 <aligned_bufs+0x1d60>
   8ea4c:	93407c21 	sxtw	x1, w1
   8ea50:	f9436402 	ldr	x2, [x0, #1736]
   8ea54:	eb02003f 	cmp	x1, x2
   8ea58:	54000049 	b.ls	8ea60 <_malloc_r+0x330>  // b.plast
   8ea5c:	f9036401 	str	x1, [x0, #1736]
   8ea60:	90000080 	adrp	x0, 9e000 <aligned_bufs+0x1d60>
   8ea64:	f9400ad3 	ldr	x19, [x22, #16]
   8ea68:	f9436002 	ldr	x2, [x0, #1728]
   8ea6c:	eb02003f 	cmp	x1, x2
   8ea70:	54000049 	b.ls	8ea78 <_malloc_r+0x348>  // b.plast
   8ea74:	f9036001 	str	x1, [x0, #1728]
   8ea78:	f9400660 	ldr	x0, [x19, #8]
   8ea7c:	927ef400 	and	x0, x0, #0xfffffffffffffffc
   8ea80:	1400001a 	b	8eae8 <_malloc_r+0x3b8>
   8ea84:	52800180 	mov	w0, #0xc                   	// #12
   8ea88:	d2800013 	mov	x19, #0x0                   	// #0
   8ea8c:	b90002a0 	str	w0, [x21]
   8ea90:	1400000c 	b	8eac0 <_malloc_r+0x390>
   8ea94:	d2808004 	mov	x4, #0x400                 	// #1024
   8ea98:	52800800 	mov	w0, #0x40                  	// #64
   8ea9c:	528007e5 	mov	w5, #0x3f                  	// #63
   8eaa0:	17ffffa1 	b	8e924 <_malloc_r+0x1f4>
   8eaa4:	8b010261 	add	x1, x19, x1
   8eaa8:	aa1503e0 	mov	x0, x21
   8eaac:	91004273 	add	x19, x19, #0x10
   8eab0:	f9400422 	ldr	x2, [x1, #8]
   8eab4:	b2400042 	orr	x2, x2, #0x1
   8eab8:	f9000422 	str	x2, [x1, #8]
   8eabc:	94000331 	bl	8f780 <__malloc_unlock>
   8eac0:	a9425bf5 	ldp	x21, x22, [sp, #32]
   8eac4:	aa1303e0 	mov	x0, x19
   8eac8:	a94153f3 	ldp	x19, x20, [sp, #16]
   8eacc:	a8c67bfd 	ldp	x29, x30, [sp], #96
   8ead0:	d65f03c0 	ret
   8ead4:	eb16027f 	cmp	x19, x22
   8ead8:	54001180 	b.eq	8ed08 <_malloc_r+0x5d8>  // b.none
   8eadc:	f9400ad3 	ldr	x19, [x22, #16]
   8eae0:	f9400660 	ldr	x0, [x19, #8]
   8eae4:	927ef400 	and	x0, x0, #0xfffffffffffffffc
   8eae8:	eb00029f 	cmp	x20, x0
   8eaec:	cb140000 	sub	x0, x0, x20
   8eaf0:	fa5f9804 	ccmp	x0, #0x1f, #0x4, ls	// ls = plast
   8eaf4:	540019ad 	b.le	8ee28 <_malloc_r+0x6f8>
   8eaf8:	a9446bf9 	ldp	x25, x26, [sp, #64]
   8eafc:	a94573fb 	ldp	x27, x28, [sp, #80]
   8eb00:	8b140262 	add	x2, x19, x20
   8eb04:	b2400294 	orr	x20, x20, #0x1
   8eb08:	f9000674 	str	x20, [x19, #8]
   8eb0c:	b2400001 	orr	x1, x0, #0x1
   8eb10:	f9000ac2 	str	x2, [x22, #16]
   8eb14:	f9000441 	str	x1, [x2, #8]
   8eb18:	aa1503e0 	mov	x0, x21
   8eb1c:	91004273 	add	x19, x19, #0x10
   8eb20:	94000318 	bl	8f780 <__malloc_unlock>
   8eb24:	a9425bf5 	ldp	x21, x22, [sp, #32]
   8eb28:	aa1303e0 	mov	x0, x19
   8eb2c:	a94153f3 	ldp	x19, x20, [sp, #16]
   8eb30:	a94363f7 	ldp	x23, x24, [sp, #48]
   8eb34:	a8c67bfd 	ldp	x29, x30, [sp], #96
   8eb38:	d65f03c0 	ret
   8eb3c:	a9409261 	ldp	x1, x4, [x19, #8]
   8eb40:	aa1503e0 	mov	x0, x21
   8eb44:	f9400e63 	ldr	x3, [x19, #24]
   8eb48:	927ef421 	and	x1, x1, #0xfffffffffffffffc
   8eb4c:	8b010261 	add	x1, x19, x1
   8eb50:	f9400422 	ldr	x2, [x1, #8]
   8eb54:	f9000c83 	str	x3, [x4, #24]
   8eb58:	b2400042 	orr	x2, x2, #0x1
   8eb5c:	f9000864 	str	x4, [x3, #16]
   8eb60:	f9000422 	str	x2, [x1, #8]
   8eb64:	91004273 	add	x19, x19, #0x10
   8eb68:	94000306 	bl	8f780 <__malloc_unlock>
   8eb6c:	a9425bf5 	ldp	x21, x22, [sp, #32]
   8eb70:	aa1303e0 	mov	x0, x19
   8eb74:	a94153f3 	ldp	x19, x20, [sp, #16]
   8eb78:	a8c67bfd 	ldp	x29, x30, [sp], #96
   8eb7c:	d65f03c0 	ret
   8eb80:	f9400a64 	ldr	x4, [x19, #16]
   8eb84:	8b010261 	add	x1, x19, x1
   8eb88:	aa1503e0 	mov	x0, x21
   8eb8c:	f9400422 	ldr	x2, [x1, #8]
   8eb90:	f9000c83 	str	x3, [x4, #24]
   8eb94:	17fffff1 	b	8eb58 <_malloc_r+0x428>
   8eb98:	d349fc22 	lsr	x2, x1, #9
   8eb9c:	f127fc3f 	cmp	x1, #0x9ff
   8eba0:	54000989 	b.ls	8ecd0 <_malloc_r+0x5a0>  // b.plast
   8eba4:	f100505f 	cmp	x2, #0x14
   8eba8:	540014e8 	b.hi	8ee44 <_malloc_r+0x714>  // b.pmore
   8ebac:	11017044 	add	w4, w2, #0x5c
   8ebb0:	11016c43 	add	w3, w2, #0x5b
   8ebb4:	531f7884 	lsl	w4, w4, #1
   8ebb8:	937d7c84 	sbfiz	x4, x4, #3, #32
   8ebbc:	8b0402c4 	add	x4, x22, x4
   8ebc0:	f85f0482 	ldr	x2, [x4], #-16
   8ebc4:	eb02009f 	cmp	x4, x2
   8ebc8:	540000a1 	b.ne	8ebdc <_malloc_r+0x4ac>  // b.any
   8ebcc:	14000085 	b	8ede0 <_malloc_r+0x6b0>
   8ebd0:	f9400842 	ldr	x2, [x2, #16]
   8ebd4:	eb02009f 	cmp	x4, x2
   8ebd8:	540000a0 	b.eq	8ebec <_malloc_r+0x4bc>  // b.none
   8ebdc:	f9400443 	ldr	x3, [x2, #8]
   8ebe0:	927ef463 	and	x3, x3, #0xfffffffffffffffc
   8ebe4:	eb01007f 	cmp	x3, x1
   8ebe8:	54ffff48 	b.hi	8ebd0 <_malloc_r+0x4a0>  // b.pmore
   8ebec:	f9400c44 	ldr	x4, [x2, #24]
   8ebf0:	a9011262 	stp	x2, x4, [x19, #16]
   8ebf4:	f9000893 	str	x19, [x4, #16]
   8ebf8:	f9000c53 	str	x19, [x2, #24]
   8ebfc:	17fffeff 	b	8e7f8 <_malloc_r+0xc8>
   8ec00:	f100503f 	cmp	x1, #0x14
   8ec04:	54000729 	b.ls	8ece8 <_malloc_r+0x5b8>  // b.plast
   8ec08:	f101503f 	cmp	x1, #0x54
   8ec0c:	540012c8 	b.hi	8ee64 <_malloc_r+0x734>  // b.pmore
   8ec10:	d34cfe81 	lsr	x1, x20, #12
   8ec14:	1101bc20 	add	w0, w1, #0x6f
   8ec18:	1101b825 	add	w5, w1, #0x6e
   8ec1c:	531f7804 	lsl	w4, w0, #1
   8ec20:	937d7c84 	sbfiz	x4, x4, #3, #32
   8ec24:	17ffff40 	b	8e924 <_malloc_r+0x1f4>
   8ec28:	f9400a64 	ldr	x4, [x19, #16]
   8ec2c:	b2400280 	orr	x0, x20, #0x1
   8ec30:	f9000660 	str	x0, [x19, #8]
   8ec34:	8b140274 	add	x20, x19, x20
   8ec38:	b2400065 	orr	x5, x3, #0x1
   8ec3c:	aa1503e0 	mov	x0, x21
   8ec40:	f9000c81 	str	x1, [x4, #24]
   8ec44:	f9000824 	str	x4, [x1, #16]
   8ec48:	a90252d4 	stp	x20, x20, [x22, #32]
   8ec4c:	a9009a85 	stp	x5, x6, [x20, #8]
   8ec50:	f9000e86 	str	x6, [x20, #24]
   8ec54:	f8226a63 	str	x3, [x19, x2]
   8ec58:	91004273 	add	x19, x19, #0x10
   8ec5c:	940002c9 	bl	8f780 <__malloc_unlock>
   8ec60:	17ffff98 	b	8eac0 <_malloc_r+0x390>
   8ec64:	8b020262 	add	x2, x19, x2
   8ec68:	aa1503e0 	mov	x0, x21
   8ec6c:	f8410e64 	ldr	x4, [x19, #16]!
   8ec70:	f9400443 	ldr	x3, [x2, #8]
   8ec74:	b2400063 	orr	x3, x3, #0x1
   8ec78:	f9000443 	str	x3, [x2, #8]
   8ec7c:	f9000c81 	str	x1, [x4, #24]
   8ec80:	f9000824 	str	x4, [x1, #16]
   8ec84:	940002bf 	bl	8f780 <__malloc_unlock>
   8ec88:	17ffff8e 	b	8eac0 <_malloc_r+0x390>
   8ec8c:	d343fe80 	lsr	x0, x20, #3
   8ec90:	11000401 	add	w1, w0, #0x1
   8ec94:	531f7821 	lsl	w1, w1, #1
   8ec98:	937d7c21 	sbfiz	x1, x1, #3, #32
   8ec9c:	17fffeb3 	b	8e768 <_malloc_r+0x38>
   8eca0:	8b140263 	add	x3, x19, x20
   8eca4:	b2400294 	orr	x20, x20, #0x1
   8eca8:	f9000674 	str	x20, [x19, #8]
   8ecac:	b2400044 	orr	x4, x2, #0x1
   8ecb0:	a9020ec3 	stp	x3, x3, [x22, #32]
   8ecb4:	aa1503e0 	mov	x0, x21
   8ecb8:	a9009864 	stp	x4, x6, [x3, #8]
   8ecbc:	f9000c66 	str	x6, [x3, #24]
   8ecc0:	f8216a62 	str	x2, [x19, x1]
   8ecc4:	91004273 	add	x19, x19, #0x10
   8ecc8:	940002ae 	bl	8f780 <__malloc_unlock>
   8eccc:	17ffff7d 	b	8eac0 <_malloc_r+0x390>
   8ecd0:	d346fc22 	lsr	x2, x1, #6
   8ecd4:	1100e444 	add	w4, w2, #0x39
   8ecd8:	1100e043 	add	w3, w2, #0x38
   8ecdc:	531f7884 	lsl	w4, w4, #1
   8ece0:	937d7c84 	sbfiz	x4, x4, #3, #32
   8ece4:	17ffffb6 	b	8ebbc <_malloc_r+0x48c>
   8ece8:	11017020 	add	w0, w1, #0x5c
   8ecec:	11016c25 	add	w5, w1, #0x5b
   8ecf0:	531f7804 	lsl	w4, w0, #1
   8ecf4:	937d7c84 	sbfiz	x4, x4, #3, #32
   8ecf8:	17ffff0b 	b	8e924 <_malloc_r+0x1f4>
   8ecfc:	11000508 	add	w8, w8, #0x1
   8ed00:	910080a5 	add	x5, x5, #0x20
   8ed04:	17fffedf 	b	8e880 <_malloc_r+0x150>
   8ed08:	9000009a 	adrp	x26, 9e000 <aligned_bufs+0x1d60>
   8ed0c:	b9469b40 	ldr	w0, [x26, #1688]
   8ed10:	0b180000 	add	w0, w0, w24
   8ed14:	b9069b40 	str	w0, [x26, #1688]
   8ed18:	f9402781 	ldr	x1, [x28, #72]
   8ed1c:	b100043f 	cmn	x1, #0x1
   8ed20:	54000b20 	b.eq	8ee84 <_malloc_r+0x754>  // b.none
   8ed24:	cb1b033b 	sub	x27, x25, x27
   8ed28:	0b1b0000 	add	w0, w0, w27
   8ed2c:	b9069b40 	str	w0, [x26, #1688]
   8ed30:	f2400f3c 	ands	x28, x25, #0xf
   8ed34:	54000620 	b.eq	8edf8 <_malloc_r+0x6c8>  // b.none
   8ed38:	cb1c0339 	sub	x25, x25, x28
   8ed3c:	d282021b 	mov	x27, #0x1010                	// #4112
   8ed40:	91004339 	add	x25, x25, #0x10
   8ed44:	cb1c037b 	sub	x27, x27, x28
   8ed48:	8b180338 	add	x24, x25, x24
   8ed4c:	aa1503e0 	mov	x0, x21
   8ed50:	cb18037b 	sub	x27, x27, x24
   8ed54:	92402f7b 	and	x27, x27, #0xfff
   8ed58:	aa1b03e1 	mov	x1, x27
   8ed5c:	9400022d 	bl	8f610 <_sbrk_r>
   8ed60:	b100041f 	cmn	x0, #0x1
   8ed64:	54000b40 	b.eq	8eecc <_malloc_r+0x79c>  // b.none
   8ed68:	cb190000 	sub	x0, x0, x25
   8ed6c:	2a1b03e2 	mov	w2, w27
   8ed70:	8b1b0018 	add	x24, x0, x27
   8ed74:	b9469b40 	ldr	w0, [x26, #1688]
   8ed78:	b2400318 	orr	x24, x24, #0x1
   8ed7c:	f9000ad9 	str	x25, [x22, #16]
   8ed80:	0b000041 	add	w1, w2, w0
   8ed84:	b9069b41 	str	w1, [x26, #1688]
   8ed88:	f9000738 	str	x24, [x25, #8]
   8ed8c:	eb16027f 	cmp	x19, x22
   8ed90:	54ffe5c0 	b.eq	8ea48 <_malloc_r+0x318>  // b.none
   8ed94:	f1007eff 	cmp	x23, #0x1f
   8ed98:	54000449 	b.ls	8ee20 <_malloc_r+0x6f0>  // b.plast
   8ed9c:	f9400662 	ldr	x2, [x19, #8]
   8eda0:	90000023 	adrp	x3, 92000 <BitFont+0xbc0>
   8eda4:	d10062e0 	sub	x0, x23, #0x18
   8eda8:	3dc24c60 	ldr	q0, [x3, #2352]
   8edac:	927cec00 	and	x0, x0, #0xfffffffffffffff0
   8edb0:	8b000263 	add	x3, x19, x0
   8edb4:	92400042 	and	x2, x2, #0x1
   8edb8:	aa000042 	orr	x2, x2, x0
   8edbc:	f9000662 	str	x2, [x19, #8]
   8edc0:	3c808060 	stur	q0, [x3, #8]
   8edc4:	f1007c1f 	cmp	x0, #0x1f
   8edc8:	54ffe409 	b.ls	8ea48 <_malloc_r+0x318>  // b.plast
   8edcc:	91004261 	add	x1, x19, #0x10
   8edd0:	aa1503e0 	mov	x0, x21
   8edd4:	94000327 	bl	8fa70 <_free_r>
   8edd8:	b9469b41 	ldr	w1, [x26, #1688]
   8eddc:	17ffff1b 	b	8ea48 <_malloc_r+0x318>
   8ede0:	13027c63 	asr	w3, w3, #2
   8ede4:	d2800021 	mov	x1, #0x1                   	// #1
   8ede8:	9ac32021 	lsl	x1, x1, x3
   8edec:	aa0100a5 	orr	x5, x5, x1
   8edf0:	f90006c5 	str	x5, [x22, #8]
   8edf4:	17ffff7f 	b	8ebf0 <_malloc_r+0x4c0>
   8edf8:	8b18033b 	add	x27, x25, x24
   8edfc:	aa1503e0 	mov	x0, x21
   8ee00:	cb1b03fb 	neg	x27, x27
   8ee04:	92402f7b 	and	x27, x27, #0xfff
   8ee08:	aa1b03e1 	mov	x1, x27
   8ee0c:	94000201 	bl	8f610 <_sbrk_r>
   8ee10:	52800002 	mov	w2, #0x0                   	// #0
   8ee14:	b100041f 	cmn	x0, #0x1
   8ee18:	54fffa81 	b.ne	8ed68 <_malloc_r+0x638>  // b.any
   8ee1c:	17ffffd6 	b	8ed74 <_malloc_r+0x644>
   8ee20:	d2800020 	mov	x0, #0x1                   	// #1
   8ee24:	f9000720 	str	x0, [x25, #8]
   8ee28:	aa1503e0 	mov	x0, x21
   8ee2c:	d2800013 	mov	x19, #0x0                   	// #0
   8ee30:	94000254 	bl	8f780 <__malloc_unlock>
   8ee34:	a94363f7 	ldp	x23, x24, [sp, #48]
   8ee38:	a9446bf9 	ldp	x25, x26, [sp, #64]
   8ee3c:	a94573fb 	ldp	x27, x28, [sp, #80]
   8ee40:	17ffff20 	b	8eac0 <_malloc_r+0x390>
   8ee44:	f101505f 	cmp	x2, #0x54
   8ee48:	54000228 	b.hi	8ee8c <_malloc_r+0x75c>  // b.pmore
   8ee4c:	d34cfc22 	lsr	x2, x1, #12
   8ee50:	1101bc44 	add	w4, w2, #0x6f
   8ee54:	1101b843 	add	w3, w2, #0x6e
   8ee58:	531f7884 	lsl	w4, w4, #1
   8ee5c:	937d7c84 	sbfiz	x4, x4, #3, #32
   8ee60:	17ffff57 	b	8ebbc <_malloc_r+0x48c>
   8ee64:	f105503f 	cmp	x1, #0x154
   8ee68:	54000228 	b.hi	8eeac <_malloc_r+0x77c>  // b.pmore
   8ee6c:	d34ffe81 	lsr	x1, x20, #15
   8ee70:	1101e020 	add	w0, w1, #0x78
   8ee74:	1101dc25 	add	w5, w1, #0x77
   8ee78:	531f7804 	lsl	w4, w0, #1
   8ee7c:	937d7c84 	sbfiz	x4, x4, #3, #32
   8ee80:	17fffea9 	b	8e924 <_malloc_r+0x1f4>
   8ee84:	f9002799 	str	x25, [x28, #72]
   8ee88:	17ffffaa 	b	8ed30 <_malloc_r+0x600>
   8ee8c:	f105505f 	cmp	x2, #0x154
   8ee90:	54000288 	b.hi	8eee0 <_malloc_r+0x7b0>  // b.pmore
   8ee94:	d34ffc22 	lsr	x2, x1, #15
   8ee98:	1101e044 	add	w4, w2, #0x78
   8ee9c:	1101dc43 	add	w3, w2, #0x77
   8eea0:	531f7884 	lsl	w4, w4, #1
   8eea4:	937d7c84 	sbfiz	x4, x4, #3, #32
   8eea8:	17ffff45 	b	8ebbc <_malloc_r+0x48c>
   8eeac:	f115503f 	cmp	x1, #0x554
   8eeb0:	54000288 	b.hi	8ef00 <_malloc_r+0x7d0>  // b.pmore
   8eeb4:	d352fe81 	lsr	x1, x20, #18
   8eeb8:	1101f420 	add	w0, w1, #0x7d
   8eebc:	1101f025 	add	w5, w1, #0x7c
   8eec0:	531f7804 	lsl	w4, w0, #1
   8eec4:	937d7c84 	sbfiz	x4, x4, #3, #32
   8eec8:	17fffe97 	b	8e924 <_malloc_r+0x1f4>
   8eecc:	d100439c 	sub	x28, x28, #0x10
   8eed0:	52800002 	mov	w2, #0x0                   	// #0
   8eed4:	8b1c0318 	add	x24, x24, x28
   8eed8:	cb190318 	sub	x24, x24, x25
   8eedc:	17ffffa6 	b	8ed74 <_malloc_r+0x644>
   8eee0:	f115505f 	cmp	x2, #0x554
   8eee4:	54000168 	b.hi	8ef10 <_malloc_r+0x7e0>  // b.pmore
   8eee8:	d352fc22 	lsr	x2, x1, #18
   8eeec:	1101f444 	add	w4, w2, #0x7d
   8eef0:	1101f043 	add	w3, w2, #0x7c
   8eef4:	531f7884 	lsl	w4, w4, #1
   8eef8:	937d7c84 	sbfiz	x4, x4, #3, #32
   8eefc:	17ffff30 	b	8ebbc <_malloc_r+0x48c>
   8ef00:	d280fe04 	mov	x4, #0x7f0                 	// #2032
   8ef04:	52800fe0 	mov	w0, #0x7f                  	// #127
   8ef08:	52800fc5 	mov	w5, #0x7e                  	// #126
   8ef0c:	17fffe86 	b	8e924 <_malloc_r+0x1f4>
   8ef10:	d280fe04 	mov	x4, #0x7f0                 	// #2032
   8ef14:	52800fc3 	mov	w3, #0x7e                  	// #126
   8ef18:	17ffff29 	b	8ebbc <_malloc_r+0x48c>
   8ef1c:	f94006c0 	ldr	x0, [x22, #8]
   8ef20:	17fffe65 	b	8e8b4 <_malloc_r+0x184>
	...

000000000008ef30 <_mbtowc_r>:
   8ef30:	90000025 	adrp	x5, 92000 <BitFont+0xbc0>
   8ef34:	f946e4a5 	ldr	x5, [x5, #3528]
   8ef38:	aa0503f0 	mov	x16, x5
   8ef3c:	d61f0200 	br	x16

000000000008ef40 <__ascii_mbtowc>:
   8ef40:	d10043ff 	sub	sp, sp, #0x10
   8ef44:	f100003f 	cmp	x1, #0x0
   8ef48:	910033e0 	add	x0, sp, #0xc
   8ef4c:	9a810001 	csel	x1, x0, x1, eq	// eq = none
   8ef50:	b4000122 	cbz	x2, 8ef74 <__ascii_mbtowc+0x34>
   8ef54:	b4000163 	cbz	x3, 8ef80 <__ascii_mbtowc+0x40>
   8ef58:	39400040 	ldrb	w0, [x2]
   8ef5c:	b9000020 	str	w0, [x1]
   8ef60:	39400040 	ldrb	w0, [x2]
   8ef64:	7100001f 	cmp	w0, #0x0
   8ef68:	1a9f07e0 	cset	w0, ne	// ne = any
   8ef6c:	910043ff 	add	sp, sp, #0x10
   8ef70:	d65f03c0 	ret
   8ef74:	52800000 	mov	w0, #0x0                   	// #0
   8ef78:	910043ff 	add	sp, sp, #0x10
   8ef7c:	d65f03c0 	ret
   8ef80:	12800020 	mov	w0, #0xfffffffe            	// #-2
   8ef84:	17fffffa 	b	8ef6c <__ascii_mbtowc+0x2c>
	...

000000000008ef90 <__utf8_mbtowc>:
   8ef90:	d10043ff 	sub	sp, sp, #0x10
   8ef94:	f100003f 	cmp	x1, #0x0
   8ef98:	910033e5 	add	x5, sp, #0xc
   8ef9c:	9a8100a1 	csel	x1, x5, x1, eq	// eq = none
   8efa0:	b40004c2 	cbz	x2, 8f038 <__utf8_mbtowc+0xa8>
   8efa4:	b4001223 	cbz	x3, 8f1e8 <__utf8_mbtowc+0x258>
   8efa8:	b9400087 	ldr	w7, [x4]
   8efac:	aa0003e9 	mov	x9, x0
   8efb0:	350003a7 	cbnz	w7, 8f024 <__utf8_mbtowc+0x94>
   8efb4:	39400045 	ldrb	w5, [x2]
   8efb8:	52800026 	mov	w6, #0x1                   	// #1
   8efbc:	340003a5 	cbz	w5, 8f030 <__utf8_mbtowc+0xa0>
   8efc0:	7101fcbf 	cmp	w5, #0x7f
   8efc4:	5400082d 	b.le	8f0c8 <__utf8_mbtowc+0x138>
   8efc8:	510300a8 	sub	w8, w5, #0xc0
   8efcc:	71007d1f 	cmp	w8, #0x1f
   8efd0:	540003a8 	b.hi	8f044 <__utf8_mbtowc+0xb4>  // b.pmore
   8efd4:	39001085 	strb	w5, [x4, #4]
   8efd8:	350000a7 	cbnz	w7, 8efec <__utf8_mbtowc+0x5c>
   8efdc:	52800020 	mov	w0, #0x1                   	// #1
   8efe0:	b9000080 	str	w0, [x4]
   8efe4:	f100047f 	cmp	x3, #0x1
   8efe8:	54001000 	b.eq	8f1e8 <__utf8_mbtowc+0x258>  // b.none
   8efec:	3866c842 	ldrb	w2, [x2, w6, sxtw]
   8eff0:	110004c0 	add	w0, w6, #0x1
   8eff4:	51020043 	sub	w3, w2, #0x80
   8eff8:	7100fc7f 	cmp	w3, #0x3f
   8effc:	54000fe8 	b.hi	8f1f8 <__utf8_mbtowc+0x268>  // b.pmore
   8f000:	710304bf 	cmp	w5, #0xc1
   8f004:	54000fad 	b.le	8f1f8 <__utf8_mbtowc+0x268>
   8f008:	12001442 	and	w2, w2, #0x3f
   8f00c:	531a10a5 	ubfiz	w5, w5, #6, #5
   8f010:	b900009f 	str	wzr, [x4]
   8f014:	2a0200a5 	orr	w5, w5, w2
   8f018:	b9000025 	str	w5, [x1]
   8f01c:	910043ff 	add	sp, sp, #0x10
   8f020:	d65f03c0 	ret
   8f024:	39401085 	ldrb	w5, [x4, #4]
   8f028:	52800006 	mov	w6, #0x0                   	// #0
   8f02c:	35fffca5 	cbnz	w5, 8efc0 <__utf8_mbtowc+0x30>
   8f030:	b900003f 	str	wzr, [x1]
   8f034:	b900009f 	str	wzr, [x4]
   8f038:	52800000 	mov	w0, #0x0                   	// #0
   8f03c:	910043ff 	add	sp, sp, #0x10
   8f040:	d65f03c0 	ret
   8f044:	510380a0 	sub	w0, w5, #0xe0
   8f048:	71003c1f 	cmp	w0, #0xf
   8f04c:	54000488 	b.hi	8f0dc <__utf8_mbtowc+0x14c>  // b.pmore
   8f050:	39001085 	strb	w5, [x4, #4]
   8f054:	34000a07 	cbz	w7, 8f194 <__utf8_mbtowc+0x204>
   8f058:	b100047f 	cmn	x3, #0x1
   8f05c:	9a830463 	cinc	x3, x3, ne	// ne = any
   8f060:	710004ff 	cmp	w7, #0x1
   8f064:	54000a00 	b.eq	8f1a4 <__utf8_mbtowc+0x214>  // b.none
   8f068:	39401488 	ldrb	w8, [x4, #5]
   8f06c:	71027d1f 	cmp	w8, #0x9f
   8f070:	52801c00 	mov	w0, #0xe0                  	// #224
   8f074:	7a40d0a0 	ccmp	w5, w0, #0x0, le
   8f078:	54000c00 	b.eq	8f1f8 <__utf8_mbtowc+0x268>  // b.none
   8f07c:	51020100 	sub	w0, w8, #0x80
   8f080:	7100fc1f 	cmp	w0, #0x3f
   8f084:	54000ba8 	b.hi	8f1f8 <__utf8_mbtowc+0x268>  // b.pmore
   8f088:	39001488 	strb	w8, [x4, #5]
   8f08c:	710004ff 	cmp	w7, #0x1
   8f090:	54000a20 	b.eq	8f1d4 <__utf8_mbtowc+0x244>  // b.none
   8f094:	3866c843 	ldrb	w3, [x2, w6, sxtw]
   8f098:	110004c0 	add	w0, w6, #0x1
   8f09c:	51020062 	sub	w2, w3, #0x80
   8f0a0:	7100fc5f 	cmp	w2, #0x3f
   8f0a4:	54000aa8 	b.hi	8f1f8 <__utf8_mbtowc+0x268>  // b.pmore
   8f0a8:	53140ca2 	ubfiz	w2, w5, #12, #4
   8f0ac:	531a1508 	ubfiz	w8, w8, #6, #6
   8f0b0:	2a080042 	orr	w2, w2, w8
   8f0b4:	12001463 	and	w3, w3, #0x3f
   8f0b8:	b900009f 	str	wzr, [x4]
   8f0bc:	2a030042 	orr	w2, w2, w3
   8f0c0:	b9000022 	str	w2, [x1]
   8f0c4:	17ffffde 	b	8f03c <__utf8_mbtowc+0xac>
   8f0c8:	b900009f 	str	wzr, [x4]
   8f0cc:	52800020 	mov	w0, #0x1                   	// #1
   8f0d0:	b9000025 	str	w5, [x1]
   8f0d4:	910043ff 	add	sp, sp, #0x10
   8f0d8:	d65f03c0 	ret
   8f0dc:	5103c0a0 	sub	w0, w5, #0xf0
   8f0e0:	7100101f 	cmp	w0, #0x4
   8f0e4:	540008a8 	b.hi	8f1f8 <__utf8_mbtowc+0x268>  // b.pmore
   8f0e8:	39001085 	strb	w5, [x4, #4]
   8f0ec:	34000647 	cbz	w7, 8f1b4 <__utf8_mbtowc+0x224>
   8f0f0:	b100047f 	cmn	x3, #0x1
   8f0f4:	9a830463 	cinc	x3, x3, ne	// ne = any
   8f0f8:	710004ff 	cmp	w7, #0x1
   8f0fc:	54000640 	b.eq	8f1c4 <__utf8_mbtowc+0x234>  // b.none
   8f100:	39401488 	ldrb	w8, [x4, #5]
   8f104:	7103c0bf 	cmp	w5, #0xf0
   8f108:	54000740 	b.eq	8f1f0 <__utf8_mbtowc+0x260>  // b.none
   8f10c:	71023d1f 	cmp	w8, #0x8f
   8f110:	52801e80 	mov	w0, #0xf4                  	// #244
   8f114:	7a40c0a0 	ccmp	w5, w0, #0x0, gt
   8f118:	54000700 	b.eq	8f1f8 <__utf8_mbtowc+0x268>  // b.none
   8f11c:	51020100 	sub	w0, w8, #0x80
   8f120:	7100fc1f 	cmp	w0, #0x3f
   8f124:	540006a8 	b.hi	8f1f8 <__utf8_mbtowc+0x268>  // b.pmore
   8f128:	39001488 	strb	w8, [x4, #5]
   8f12c:	710004ff 	cmp	w7, #0x1
   8f130:	540006c0 	b.eq	8f208 <__utf8_mbtowc+0x278>  // b.none
   8f134:	b9400080 	ldr	w0, [x4]
   8f138:	b100047f 	cmn	x3, #0x1
   8f13c:	9a830463 	cinc	x3, x3, ne	// ne = any
   8f140:	7100081f 	cmp	w0, #0x2
   8f144:	540006a0 	b.eq	8f218 <__utf8_mbtowc+0x288>  // b.none
   8f148:	39401887 	ldrb	w7, [x4, #6]
   8f14c:	510200e0 	sub	w0, w7, #0x80
   8f150:	7100fc1f 	cmp	w0, #0x3f
   8f154:	54000528 	b.hi	8f1f8 <__utf8_mbtowc+0x268>  // b.pmore
   8f158:	3866c843 	ldrb	w3, [x2, w6, sxtw]
   8f15c:	110004c0 	add	w0, w6, #0x1
   8f160:	51020062 	sub	w2, w3, #0x80
   8f164:	7100fc5f 	cmp	w2, #0x3f
   8f168:	54000488 	b.hi	8f1f8 <__utf8_mbtowc+0x268>  // b.pmore
   8f16c:	530e08a2 	ubfiz	w2, w5, #18, #3
   8f170:	53141508 	ubfiz	w8, w8, #12, #6
   8f174:	531a14e7 	ubfiz	w7, w7, #6, #6
   8f178:	12001463 	and	w3, w3, #0x3f
   8f17c:	2a080042 	orr	w2, w2, w8
   8f180:	2a0300e7 	orr	w7, w7, w3
   8f184:	2a070042 	orr	w2, w2, w7
   8f188:	b9000022 	str	w2, [x1]
   8f18c:	b900009f 	str	wzr, [x4]
   8f190:	17ffffab 	b	8f03c <__utf8_mbtowc+0xac>
   8f194:	52800020 	mov	w0, #0x1                   	// #1
   8f198:	b9000080 	str	w0, [x4]
   8f19c:	f100047f 	cmp	x3, #0x1
   8f1a0:	54000240 	b.eq	8f1e8 <__utf8_mbtowc+0x258>  // b.none
   8f1a4:	3866c848 	ldrb	w8, [x2, w6, sxtw]
   8f1a8:	52800027 	mov	w7, #0x1                   	// #1
   8f1ac:	0b0700c6 	add	w6, w6, w7
   8f1b0:	17ffffaf 	b	8f06c <__utf8_mbtowc+0xdc>
   8f1b4:	52800020 	mov	w0, #0x1                   	// #1
   8f1b8:	b9000080 	str	w0, [x4]
   8f1bc:	f100047f 	cmp	x3, #0x1
   8f1c0:	54000140 	b.eq	8f1e8 <__utf8_mbtowc+0x258>  // b.none
   8f1c4:	3866c848 	ldrb	w8, [x2, w6, sxtw]
   8f1c8:	52800027 	mov	w7, #0x1                   	// #1
   8f1cc:	0b0700c6 	add	w6, w6, w7
   8f1d0:	17ffffcd 	b	8f104 <__utf8_mbtowc+0x174>
   8f1d4:	52800040 	mov	w0, #0x2                   	// #2
   8f1d8:	b9000080 	str	w0, [x4]
   8f1dc:	f100087f 	cmp	x3, #0x2
   8f1e0:	54fff5a1 	b.ne	8f094 <__utf8_mbtowc+0x104>  // b.any
   8f1e4:	d503201f 	nop
   8f1e8:	12800020 	mov	w0, #0xfffffffe            	// #-2
   8f1ec:	17ffff94 	b	8f03c <__utf8_mbtowc+0xac>
   8f1f0:	71023d1f 	cmp	w8, #0x8f
   8f1f4:	54fff94c 	b.gt	8f11c <__utf8_mbtowc+0x18c>
   8f1f8:	52801141 	mov	w1, #0x8a                  	// #138
   8f1fc:	12800000 	mov	w0, #0xffffffff            	// #-1
   8f200:	b9000121 	str	w1, [x9]
   8f204:	17ffff8e 	b	8f03c <__utf8_mbtowc+0xac>
   8f208:	52800040 	mov	w0, #0x2                   	// #2
   8f20c:	b9000080 	str	w0, [x4]
   8f210:	f100087f 	cmp	x3, #0x2
   8f214:	54fffea0 	b.eq	8f1e8 <__utf8_mbtowc+0x258>  // b.none
   8f218:	3866c847 	ldrb	w7, [x2, w6, sxtw]
   8f21c:	110004c6 	add	w6, w6, #0x1
   8f220:	510200e0 	sub	w0, w7, #0x80
   8f224:	7100fc1f 	cmp	w0, #0x3f
   8f228:	54fffe88 	b.hi	8f1f8 <__utf8_mbtowc+0x268>  // b.pmore
   8f22c:	52800060 	mov	w0, #0x3                   	// #3
   8f230:	b9000080 	str	w0, [x4]
   8f234:	39001887 	strb	w7, [x4, #6]
   8f238:	f1000c7f 	cmp	x3, #0x3
   8f23c:	54fff8e1 	b.ne	8f158 <__utf8_mbtowc+0x1c8>  // b.any
   8f240:	12800020 	mov	w0, #0xfffffffe            	// #-2
   8f244:	17ffff7e 	b	8f03c <__utf8_mbtowc+0xac>
	...

000000000008f250 <__sjis_mbtowc>:
   8f250:	d10043ff 	sub	sp, sp, #0x10
   8f254:	f100003f 	cmp	x1, #0x0
   8f258:	910033e5 	add	x5, sp, #0xc
   8f25c:	9a8100a1 	csel	x1, x5, x1, eq	// eq = none
   8f260:	b40004c2 	cbz	x2, 8f2f8 <__sjis_mbtowc+0xa8>
   8f264:	b4000503 	cbz	x3, 8f304 <__sjis_mbtowc+0xb4>
   8f268:	aa0003e6 	mov	x6, x0
   8f26c:	b9400080 	ldr	w0, [x4]
   8f270:	39400045 	ldrb	w5, [x2]
   8f274:	35000320 	cbnz	w0, 8f2d8 <__sjis_mbtowc+0x88>
   8f278:	510204a7 	sub	w7, w5, #0x81
   8f27c:	510380a0 	sub	w0, w5, #0xe0
   8f280:	710078ff 	cmp	w7, #0x1e
   8f284:	7a4f8800 	ccmp	w0, #0xf, #0x0, hi	// hi = pmore
   8f288:	540002c8 	b.hi	8f2e0 <__sjis_mbtowc+0x90>  // b.pmore
   8f28c:	52800020 	mov	w0, #0x1                   	// #1
   8f290:	b9000080 	str	w0, [x4]
   8f294:	39001085 	strb	w5, [x4, #4]
   8f298:	f100047f 	cmp	x3, #0x1
   8f29c:	54000340 	b.eq	8f304 <__sjis_mbtowc+0xb4>  // b.none
   8f2a0:	39400445 	ldrb	w5, [x2, #1]
   8f2a4:	52800040 	mov	w0, #0x2                   	// #2
   8f2a8:	510100a3 	sub	w3, w5, #0x40
   8f2ac:	510200a2 	sub	w2, w5, #0x80
   8f2b0:	7100f87f 	cmp	w3, #0x3e
   8f2b4:	52800f83 	mov	w3, #0x7c                  	// #124
   8f2b8:	7a438040 	ccmp	w2, w3, #0x0, hi	// hi = pmore
   8f2bc:	54000288 	b.hi	8f30c <__sjis_mbtowc+0xbc>  // b.pmore
   8f2c0:	39401082 	ldrb	w2, [x4, #4]
   8f2c4:	0b0220a2 	add	w2, w5, w2, lsl #8
   8f2c8:	b9000022 	str	w2, [x1]
   8f2cc:	b900009f 	str	wzr, [x4]
   8f2d0:	910043ff 	add	sp, sp, #0x10
   8f2d4:	d65f03c0 	ret
   8f2d8:	7100041f 	cmp	w0, #0x1
   8f2dc:	54fffe60 	b.eq	8f2a8 <__sjis_mbtowc+0x58>  // b.none
   8f2e0:	b9000025 	str	w5, [x1]
   8f2e4:	39400040 	ldrb	w0, [x2]
   8f2e8:	7100001f 	cmp	w0, #0x0
   8f2ec:	1a9f07e0 	cset	w0, ne	// ne = any
   8f2f0:	910043ff 	add	sp, sp, #0x10
   8f2f4:	d65f03c0 	ret
   8f2f8:	52800000 	mov	w0, #0x0                   	// #0
   8f2fc:	910043ff 	add	sp, sp, #0x10
   8f300:	d65f03c0 	ret
   8f304:	12800020 	mov	w0, #0xfffffffe            	// #-2
   8f308:	17fffffa 	b	8f2f0 <__sjis_mbtowc+0xa0>
   8f30c:	52801141 	mov	w1, #0x8a                  	// #138
   8f310:	12800000 	mov	w0, #0xffffffff            	// #-1
   8f314:	b90000c1 	str	w1, [x6]
   8f318:	17fffff6 	b	8f2f0 <__sjis_mbtowc+0xa0>
   8f31c:	00000000 	udf	#0

000000000008f320 <__eucjp_mbtowc>:
   8f320:	d10043ff 	sub	sp, sp, #0x10
   8f324:	f100003f 	cmp	x1, #0x0
   8f328:	910033e6 	add	x6, sp, #0xc
   8f32c:	9a8100c1 	csel	x1, x6, x1, eq	// eq = none
   8f330:	b4000782 	cbz	x2, 8f420 <__eucjp_mbtowc+0x100>
   8f334:	b40007c3 	cbz	x3, 8f42c <__eucjp_mbtowc+0x10c>
   8f338:	aa0003e5 	mov	x5, x0
   8f33c:	b9400080 	ldr	w0, [x4]
   8f340:	39400046 	ldrb	w6, [x2]
   8f344:	35000380 	cbnz	w0, 8f3b4 <__eucjp_mbtowc+0x94>
   8f348:	510284c7 	sub	w7, w6, #0xa1
   8f34c:	510238c0 	sub	w0, w6, #0x8e
   8f350:	710174ff 	cmp	w7, #0x5d
   8f354:	7a418800 	ccmp	w0, #0x1, #0x0, hi	// hi = pmore
   8f358:	54000388 	b.hi	8f3c8 <__eucjp_mbtowc+0xa8>  // b.pmore
   8f35c:	52800020 	mov	w0, #0x1                   	// #1
   8f360:	b9000080 	str	w0, [x4]
   8f364:	39001086 	strb	w6, [x4, #4]
   8f368:	f100047f 	cmp	x3, #0x1
   8f36c:	54000600 	b.eq	8f42c <__eucjp_mbtowc+0x10c>  // b.none
   8f370:	39400447 	ldrb	w7, [x2, #1]
   8f374:	52800040 	mov	w0, #0x2                   	// #2
   8f378:	510284e6 	sub	w6, w7, #0xa1
   8f37c:	710174df 	cmp	w6, #0x5d
   8f380:	540005a8 	b.hi	8f434 <__eucjp_mbtowc+0x114>  // b.pmore
   8f384:	39401086 	ldrb	w6, [x4, #4]
   8f388:	71023cdf 	cmp	w6, #0x8f
   8f38c:	54000401 	b.ne	8f40c <__eucjp_mbtowc+0xec>  // b.any
   8f390:	52800048 	mov	w8, #0x2                   	// #2
   8f394:	93407c06 	sxtw	x6, w0
   8f398:	b9000088 	str	w8, [x4]
   8f39c:	39001487 	strb	w7, [x4, #5]
   8f3a0:	eb0300df 	cmp	x6, x3
   8f3a4:	54000442 	b.cs	8f42c <__eucjp_mbtowc+0x10c>  // b.hs, b.nlast
   8f3a8:	38666847 	ldrb	w7, [x2, x6]
   8f3ac:	11000400 	add	w0, w0, #0x1
   8f3b0:	1400000d 	b	8f3e4 <__eucjp_mbtowc+0xc4>
   8f3b4:	2a0603e7 	mov	w7, w6
   8f3b8:	7100041f 	cmp	w0, #0x1
   8f3bc:	54fffde0 	b.eq	8f378 <__eucjp_mbtowc+0x58>  // b.none
   8f3c0:	7100081f 	cmp	w0, #0x2
   8f3c4:	540000e0 	b.eq	8f3e0 <__eucjp_mbtowc+0xc0>  // b.none
   8f3c8:	b9000026 	str	w6, [x1]
   8f3cc:	39400040 	ldrb	w0, [x2]
   8f3d0:	7100001f 	cmp	w0, #0x0
   8f3d4:	1a9f07e0 	cset	w0, ne	// ne = any
   8f3d8:	910043ff 	add	sp, sp, #0x10
   8f3dc:	d65f03c0 	ret
   8f3e0:	52800020 	mov	w0, #0x1                   	// #1
   8f3e4:	510284e2 	sub	w2, w7, #0xa1
   8f3e8:	7101745f 	cmp	w2, #0x5d
   8f3ec:	54000248 	b.hi	8f434 <__eucjp_mbtowc+0x114>  // b.pmore
   8f3f0:	39401482 	ldrb	w2, [x4, #5]
   8f3f4:	120018e7 	and	w7, w7, #0x7f
   8f3f8:	0b0220e2 	add	w2, w7, w2, lsl #8
   8f3fc:	b9000022 	str	w2, [x1]
   8f400:	b900009f 	str	wzr, [x4]
   8f404:	910043ff 	add	sp, sp, #0x10
   8f408:	d65f03c0 	ret
   8f40c:	0b0620e6 	add	w6, w7, w6, lsl #8
   8f410:	b9000026 	str	w6, [x1]
   8f414:	b900009f 	str	wzr, [x4]
   8f418:	910043ff 	add	sp, sp, #0x10
   8f41c:	d65f03c0 	ret
   8f420:	52800000 	mov	w0, #0x0                   	// #0
   8f424:	910043ff 	add	sp, sp, #0x10
   8f428:	d65f03c0 	ret
   8f42c:	12800020 	mov	w0, #0xfffffffe            	// #-2
   8f430:	17ffffea 	b	8f3d8 <__eucjp_mbtowc+0xb8>
   8f434:	52801141 	mov	w1, #0x8a                  	// #138
   8f438:	12800000 	mov	w0, #0xffffffff            	// #-1
   8f43c:	b90000a1 	str	w1, [x5]
   8f440:	17ffffe6 	b	8f3d8 <__eucjp_mbtowc+0xb8>
	...

000000000008f450 <__jis_mbtowc>:
   8f450:	d10043ff 	sub	sp, sp, #0x10
   8f454:	f100003f 	cmp	x1, #0x0
   8f458:	910033e5 	add	x5, sp, #0xc
   8f45c:	9a8100a1 	csel	x1, x5, x1, eq	// eq = none
   8f460:	b4000cc2 	cbz	x2, 8f5f8 <__jis_mbtowc+0x1a8>
   8f464:	b40008c3 	cbz	x3, 8f57c <__jis_mbtowc+0x12c>
   8f468:	39400085 	ldrb	w5, [x4]
   8f46c:	f000000c 	adrp	x12, 92000 <BitFont+0xbc0>
   8f470:	f000000b 	adrp	x11, 92000 <BitFont+0xbc0>
   8f474:	aa0003ed 	mov	x13, x0
   8f478:	9125018c 	add	x12, x12, #0x940
   8f47c:	9126416b 	add	x11, x11, #0x990
   8f480:	aa0203ef 	mov	x15, x2
   8f484:	52800009 	mov	w9, #0x0                   	// #0
   8f488:	d2800008 	mov	x8, #0x0                   	// #0
   8f48c:	38686847 	ldrb	w7, [x2, x8]
   8f490:	8b08004e 	add	x14, x2, x8
   8f494:	7100a0ff 	cmp	w7, #0x28
   8f498:	54000b80 	b.eq	8f608 <__jis_mbtowc+0x1b8>  // b.none
   8f49c:	54000388 	b.hi	8f50c <__jis_mbtowc+0xbc>  // b.pmore
   8f4a0:	52800006 	mov	w6, #0x0                   	// #0
   8f4a4:	71006cff 	cmp	w7, #0x1b
   8f4a8:	540000c0 	b.eq	8f4c0 <__jis_mbtowc+0x70>  // b.none
   8f4ac:	52800026 	mov	w6, #0x1                   	// #1
   8f4b0:	710090ff 	cmp	w7, #0x24
   8f4b4:	54000060 	b.eq	8f4c0 <__jis_mbtowc+0x70>  // b.none
   8f4b8:	528000c6 	mov	w6, #0x6                   	// #6
   8f4bc:	350003a7 	cbnz	w7, 8f530 <__jis_mbtowc+0xe0>
   8f4c0:	d37d1ca0 	ubfiz	x0, x5, #3, #8
   8f4c4:	8b250005 	add	x5, x0, w5, uxtb
   8f4c8:	8b050180 	add	x0, x12, x5
   8f4cc:	8b050165 	add	x5, x11, x5
   8f4d0:	3866c80a 	ldrb	w10, [x0, w6, sxtw]
   8f4d4:	3866c8a5 	ldrb	w5, [x5, w6, sxtw]
   8f4d8:	71000d5f 	cmp	w10, #0x3
   8f4dc:	54000420 	b.eq	8f560 <__jis_mbtowc+0x110>  // b.none
   8f4e0:	54000528 	b.hi	8f584 <__jis_mbtowc+0x134>  // b.pmore
   8f4e4:	7100055f 	cmp	w10, #0x1
   8f4e8:	54000600 	b.eq	8f5a8 <__jis_mbtowc+0x158>  // b.none
   8f4ec:	7100095f 	cmp	w10, #0x2
   8f4f0:	54000720 	b.eq	8f5d4 <__jis_mbtowc+0x184>  // b.none
   8f4f4:	b900009f 	str	wzr, [x4]
   8f4f8:	11000520 	add	w0, w9, #0x1
   8f4fc:	394001e2 	ldrb	w2, [x15]
   8f500:	b9000022 	str	w2, [x1]
   8f504:	910043ff 	add	sp, sp, #0x10
   8f508:	d65f03c0 	ret
   8f50c:	52800086 	mov	w6, #0x4                   	// #4
   8f510:	710108ff 	cmp	w7, #0x42
   8f514:	54fffd60 	b.eq	8f4c0 <__jis_mbtowc+0x70>  // b.none
   8f518:	528000a6 	mov	w6, #0x5                   	// #5
   8f51c:	710128ff 	cmp	w7, #0x4a
   8f520:	54fffd00 	b.eq	8f4c0 <__jis_mbtowc+0x70>  // b.none
   8f524:	52800066 	mov	w6, #0x3                   	// #3
   8f528:	710100ff 	cmp	w7, #0x40
   8f52c:	54fffca0 	b.eq	8f4c0 <__jis_mbtowc+0x70>  // b.none
   8f530:	510084e0 	sub	w0, w7, #0x21
   8f534:	7101741f 	cmp	w0, #0x5d
   8f538:	d37d1ca0 	ubfiz	x0, x5, #3, #8
   8f53c:	8b250005 	add	x5, x0, w5, uxtb
   8f540:	1a9f97e6 	cset	w6, hi	// hi = pmore
   8f544:	11001cc6 	add	w6, w6, #0x7
   8f548:	8b050180 	add	x0, x12, x5
   8f54c:	8b050165 	add	x5, x11, x5
   8f550:	3866c80a 	ldrb	w10, [x0, w6, sxtw]
   8f554:	3866c8a5 	ldrb	w5, [x5, w6, sxtw]
   8f558:	71000d5f 	cmp	w10, #0x3
   8f55c:	54fffc21 	b.ne	8f4e0 <__jis_mbtowc+0x90>  // b.any
   8f560:	91000508 	add	x8, x8, #0x1
   8f564:	8b08004f 	add	x15, x2, x8
   8f568:	11000528 	add	w8, w9, #0x1
   8f56c:	aa0803e9 	mov	x9, x8
   8f570:	eb03011f 	cmp	x8, x3
   8f574:	54fff8c3 	b.cc	8f48c <__jis_mbtowc+0x3c>  // b.lo, b.ul, b.last
   8f578:	b9000085 	str	w5, [x4]
   8f57c:	12800020 	mov	w0, #0xfffffffe            	// #-2
   8f580:	17ffffe1 	b	8f504 <__jis_mbtowc+0xb4>
   8f584:	7100115f 	cmp	w10, #0x4
   8f588:	54ffff00 	b.eq	8f568 <__jis_mbtowc+0x118>  // b.none
   8f58c:	7100155f 	cmp	w10, #0x5
   8f590:	54000181 	b.ne	8f5c0 <__jis_mbtowc+0x170>  // b.any
   8f594:	b900009f 	str	wzr, [x4]
   8f598:	52800000 	mov	w0, #0x0                   	// #0
   8f59c:	b900003f 	str	wzr, [x1]
   8f5a0:	910043ff 	add	sp, sp, #0x10
   8f5a4:	d65f03c0 	ret
   8f5a8:	11000528 	add	w8, w9, #0x1
   8f5ac:	39001087 	strb	w7, [x4, #4]
   8f5b0:	aa0803e9 	mov	x9, x8
   8f5b4:	eb03011f 	cmp	x8, x3
   8f5b8:	54fff6a3 	b.cc	8f48c <__jis_mbtowc+0x3c>  // b.lo, b.ul, b.last
   8f5bc:	17ffffef 	b	8f578 <__jis_mbtowc+0x128>
   8f5c0:	52801141 	mov	w1, #0x8a                  	// #138
   8f5c4:	b90001a1 	str	w1, [x13]
   8f5c8:	12800000 	mov	w0, #0xffffffff            	// #-1
   8f5cc:	910043ff 	add	sp, sp, #0x10
   8f5d0:	d65f03c0 	ret
   8f5d4:	52800020 	mov	w0, #0x1                   	// #1
   8f5d8:	b9000080 	str	w0, [x4]
   8f5dc:	39401082 	ldrb	w2, [x4, #4]
   8f5e0:	0b000120 	add	w0, w9, w0
   8f5e4:	394001c3 	ldrb	w3, [x14]
   8f5e8:	0b022062 	add	w2, w3, w2, lsl #8
   8f5ec:	b9000022 	str	w2, [x1]
   8f5f0:	910043ff 	add	sp, sp, #0x10
   8f5f4:	d65f03c0 	ret
   8f5f8:	b900009f 	str	wzr, [x4]
   8f5fc:	52800020 	mov	w0, #0x1                   	// #1
   8f600:	910043ff 	add	sp, sp, #0x10
   8f604:	d65f03c0 	ret
   8f608:	52800046 	mov	w6, #0x2                   	// #2
   8f60c:	17ffffad 	b	8f4c0 <__jis_mbtowc+0x70>

000000000008f610 <_sbrk_r>:
   8f610:	a9be7bfd 	stp	x29, x30, [sp, #-32]!
   8f614:	910003fd 	mov	x29, sp
   8f618:	a90153f3 	stp	x19, x20, [sp, #16]
   8f61c:	f0000074 	adrp	x20, 9e000 <aligned_bufs+0x1d60>
   8f620:	aa0003f3 	mov	x19, x0
   8f624:	b907229f 	str	wzr, [x20, #1824]
   8f628:	aa0103e0 	mov	x0, x1
   8f62c:	97ffd961 	bl	85bb0 <_sbrk>
   8f630:	b100041f 	cmn	x0, #0x1
   8f634:	54000080 	b.eq	8f644 <_sbrk_r+0x34>  // b.none
   8f638:	a94153f3 	ldp	x19, x20, [sp, #16]
   8f63c:	a8c27bfd 	ldp	x29, x30, [sp], #32
   8f640:	d65f03c0 	ret
   8f644:	b9472281 	ldr	w1, [x20, #1824]
   8f648:	34ffff81 	cbz	w1, 8f638 <_sbrk_r+0x28>
   8f64c:	b9000261 	str	w1, [x19]
   8f650:	a94153f3 	ldp	x19, x20, [sp, #16]
   8f654:	a8c27bfd 	ldp	x29, x30, [sp], #32
   8f658:	d65f03c0 	ret
   8f65c:	00000000 	udf	#0

000000000008f660 <_write_r>:
   8f660:	a9be7bfd 	stp	x29, x30, [sp, #-32]!
   8f664:	910003fd 	mov	x29, sp
   8f668:	a90153f3 	stp	x19, x20, [sp, #16]
   8f66c:	f0000074 	adrp	x20, 9e000 <aligned_bufs+0x1d60>
   8f670:	aa0003f3 	mov	x19, x0
   8f674:	2a0103e0 	mov	w0, w1
   8f678:	aa0203e1 	mov	x1, x2
   8f67c:	b907229f 	str	wzr, [x20, #1824]
   8f680:	aa0303e2 	mov	x2, x3
   8f684:	97ffce5f 	bl	83000 <_write>
   8f688:	93407c01 	sxtw	x1, w0
   8f68c:	3100041f 	cmn	w0, #0x1
   8f690:	540000a0 	b.eq	8f6a4 <_write_r+0x44>  // b.none
   8f694:	a94153f3 	ldp	x19, x20, [sp, #16]
   8f698:	aa0103e0 	mov	x0, x1
   8f69c:	a8c27bfd 	ldp	x29, x30, [sp], #32
   8f6a0:	d65f03c0 	ret
   8f6a4:	b9472280 	ldr	w0, [x20, #1824]
   8f6a8:	34ffff60 	cbz	w0, 8f694 <_write_r+0x34>
   8f6ac:	b9000260 	str	w0, [x19]
   8f6b0:	aa0103e0 	mov	x0, x1
   8f6b4:	a94153f3 	ldp	x19, x20, [sp, #16]
   8f6b8:	a8c27bfd 	ldp	x29, x30, [sp], #32
   8f6bc:	d65f03c0 	ret

000000000008f6c0 <__errno>:
   8f6c0:	f0000000 	adrp	x0, 92000 <BitFont+0xbc0>
   8f6c4:	f9475800 	ldr	x0, [x0, #3760]
   8f6c8:	d65f03c0 	ret
   8f6cc:	00000000 	udf	#0

000000000008f6d0 <_fwalk_sglue>:
   8f6d0:	a9bb7bfd 	stp	x29, x30, [sp, #-80]!
   8f6d4:	910003fd 	mov	x29, sp
   8f6d8:	a9025bf5 	stp	x21, x22, [sp, #32]
   8f6dc:	aa0203f6 	mov	x22, x2
   8f6e0:	52800015 	mov	w21, #0x0                   	// #0
   8f6e4:	a90363f7 	stp	x23, x24, [sp, #48]
   8f6e8:	aa0003f7 	mov	x23, x0
   8f6ec:	aa0103f8 	mov	x24, x1
   8f6f0:	a90153f3 	stp	x19, x20, [sp, #16]
   8f6f4:	f90023f9 	str	x25, [sp, #64]
   8f6f8:	52801719 	mov	w25, #0xb8                  	// #184
   8f6fc:	d503201f 	nop
   8f700:	b9400ad4 	ldr	w20, [x22, #8]
   8f704:	f9400ad3 	ldr	x19, [x22, #16]
   8f708:	7100029f 	cmp	w20, #0x0
   8f70c:	5400020d 	b.le	8f74c <_fwalk_sglue+0x7c>
   8f710:	9bb94e94 	umaddl	x20, w20, w25, x19
   8f714:	d503201f 	nop
   8f718:	79402263 	ldrh	w3, [x19, #16]
   8f71c:	7100047f 	cmp	w3, #0x1
   8f720:	54000109 	b.ls	8f740 <_fwalk_sglue+0x70>  // b.plast
   8f724:	79c02663 	ldrsh	w3, [x19, #18]
   8f728:	aa1303e1 	mov	x1, x19
   8f72c:	aa1703e0 	mov	x0, x23
   8f730:	3100047f 	cmn	w3, #0x1
   8f734:	54000060 	b.eq	8f740 <_fwalk_sglue+0x70>  // b.none
   8f738:	d63f0300 	blr	x24
   8f73c:	2a0002b5 	orr	w21, w21, w0
   8f740:	9102e273 	add	x19, x19, #0xb8
   8f744:	eb14027f 	cmp	x19, x20
   8f748:	54fffe81 	b.ne	8f718 <_fwalk_sglue+0x48>  // b.any
   8f74c:	f94002d6 	ldr	x22, [x22]
   8f750:	b5fffd96 	cbnz	x22, 8f700 <_fwalk_sglue+0x30>
   8f754:	a94153f3 	ldp	x19, x20, [sp, #16]
   8f758:	2a1503e0 	mov	w0, w21
   8f75c:	a9425bf5 	ldp	x21, x22, [sp, #32]
   8f760:	a94363f7 	ldp	x23, x24, [sp, #48]
   8f764:	f94023f9 	ldr	x25, [sp, #64]
   8f768:	a8c57bfd 	ldp	x29, x30, [sp], #80
   8f76c:	d65f03c0 	ret

000000000008f770 <__malloc_lock>:
   8f770:	f0000060 	adrp	x0, 9e000 <aligned_bufs+0x1d60>
   8f774:	911be000 	add	x0, x0, #0x6f8
   8f778:	1400005a 	b	8f8e0 <__retarget_lock_acquire_recursive>
   8f77c:	00000000 	udf	#0

000000000008f780 <__malloc_unlock>:
   8f780:	f0000060 	adrp	x0, 9e000 <aligned_bufs+0x1d60>
   8f784:	911be000 	add	x0, x0, #0x6f8
   8f788:	14000066 	b	8f920 <__retarget_lock_release_recursive>
   8f78c:	00000000 	udf	#0

000000000008f790 <strcasecmp>:
   8f790:	f0000006 	adrp	x6, 92000 <BitFont+0xbc0>
   8f794:	aa0003e8 	mov	x8, x0
   8f798:	912784c6 	add	x6, x6, #0x9e1
   8f79c:	d2800003 	mov	x3, #0x0                   	// #0
   8f7a0:	38636902 	ldrb	w2, [x8, x3]
   8f7a4:	38636820 	ldrb	w0, [x1, x3]
   8f7a8:	11008047 	add	w7, w2, #0x20
   8f7ac:	386248c5 	ldrb	w5, [x6, w2, uxtw]
   8f7b0:	386048c4 	ldrb	w4, [x6, w0, uxtw]
   8f7b4:	120004a5 	and	w5, w5, #0x3
   8f7b8:	710004bf 	cmp	w5, #0x1
   8f7bc:	12000484 	and	w4, w4, #0x3
   8f7c0:	1a8200e2 	csel	w2, w7, w2, eq	// eq = none
   8f7c4:	7100049f 	cmp	w4, #0x1
   8f7c8:	540000c0 	b.eq	8f7e0 <strcasecmp+0x50>  // b.none
   8f7cc:	6b000042 	subs	w2, w2, w0
   8f7d0:	54000121 	b.ne	8f7f4 <strcasecmp+0x64>  // b.any
   8f7d4:	91000463 	add	x3, x3, #0x1
   8f7d8:	35fffe40 	cbnz	w0, 8f7a0 <strcasecmp+0x10>
   8f7dc:	d65f03c0 	ret
   8f7e0:	11008000 	add	w0, w0, #0x20
   8f7e4:	91000463 	add	x3, x3, #0x1
   8f7e8:	6b000040 	subs	w0, w2, w0
   8f7ec:	54fffda0 	b.eq	8f7a0 <strcasecmp+0x10>  // b.none
   8f7f0:	d65f03c0 	ret
   8f7f4:	2a0203e0 	mov	w0, w2
   8f7f8:	d65f03c0 	ret
   8f7fc:	00000000 	udf	#0

000000000008f800 <strcat>:
   8f800:	a9be7bfd 	stp	x29, x30, [sp, #-32]!
   8f804:	910003fd 	mov	x29, sp
   8f808:	f9000bf3 	str	x19, [sp, #16]
   8f80c:	aa0003f3 	mov	x19, x0
   8f810:	f240081f 	tst	x0, #0x7
   8f814:	540001c1 	b.ne	8f84c <strcat+0x4c>  // b.any
   8f818:	f9400002 	ldr	x2, [x0]
   8f81c:	b207dbe4 	mov	x4, #0xfefefefefefefefe    	// #-72340172838076674
   8f820:	f29fdfe4 	movk	x4, #0xfeff
   8f824:	8b040043 	add	x3, x2, x4
   8f828:	8a220062 	bic	x2, x3, x2
   8f82c:	f201c05f 	tst	x2, #0x8080808080808080
   8f830:	540000e1 	b.ne	8f84c <strcat+0x4c>  // b.any
   8f834:	d503201f 	nop
   8f838:	f8408c02 	ldr	x2, [x0, #8]!
   8f83c:	8b040043 	add	x3, x2, x4
   8f840:	8a220062 	bic	x2, x3, x2
   8f844:	f201c05f 	tst	x2, #0x8080808080808080
   8f848:	54ffff80 	b.eq	8f838 <strcat+0x38>  // b.none
   8f84c:	39400002 	ldrb	w2, [x0]
   8f850:	34000082 	cbz	w2, 8f860 <strcat+0x60>
   8f854:	d503201f 	nop
   8f858:	38401c02 	ldrb	w2, [x0, #1]!
   8f85c:	35ffffe2 	cbnz	w2, 8f858 <strcat+0x58>
   8f860:	97fffaa8 	bl	8e300 <strcpy>
   8f864:	aa1303e0 	mov	x0, x19
   8f868:	f9400bf3 	ldr	x19, [sp, #16]
   8f86c:	a8c27bfd 	ldp	x29, x30, [sp], #32
   8f870:	d65f03c0 	ret
	...

000000000008f880 <__set_ctype>:
   8f880:	f0000001 	adrp	x1, 92000 <BitFont+0xbc0>
   8f884:	91278021 	add	x1, x1, #0x9e0
   8f888:	f9007c01 	str	x1, [x0, #248]
   8f88c:	d65f03c0 	ret

000000000008f890 <__retarget_lock_init>:
   8f890:	d65f03c0 	ret
	...

000000000008f8a0 <__retarget_lock_init_recursive>:
   8f8a0:	d65f03c0 	ret
	...

000000000008f8b0 <__retarget_lock_close>:
   8f8b0:	d65f03c0 	ret
	...

000000000008f8c0 <__retarget_lock_close_recursive>:
   8f8c0:	d65f03c0 	ret
	...

000000000008f8d0 <__retarget_lock_acquire>:
   8f8d0:	d65f03c0 	ret
	...

000000000008f8e0 <__retarget_lock_acquire_recursive>:
   8f8e0:	d65f03c0 	ret
	...

000000000008f8f0 <__retarget_lock_try_acquire>:
   8f8f0:	52800020 	mov	w0, #0x1                   	// #1
   8f8f4:	d65f03c0 	ret
	...

000000000008f900 <__retarget_lock_try_acquire_recursive>:
   8f900:	52800020 	mov	w0, #0x1                   	// #1
   8f904:	d65f03c0 	ret
	...

000000000008f910 <__retarget_lock_release>:
   8f910:	d65f03c0 	ret
	...

000000000008f920 <__retarget_lock_release_recursive>:
   8f920:	d65f03c0 	ret
	...

000000000008f930 <__env_lock>:
   8f930:	f0000060 	adrp	x0, 9e000 <aligned_bufs+0x1d60>
   8f934:	911bc000 	add	x0, x0, #0x6f0
   8f938:	17ffffea 	b	8f8e0 <__retarget_lock_acquire_recursive>
   8f93c:	00000000 	udf	#0

000000000008f940 <__env_unlock>:
   8f940:	f0000060 	adrp	x0, 9e000 <aligned_bufs+0x1d60>
   8f944:	911bc000 	add	x0, x0, #0x6f0
   8f948:	17fffff6 	b	8f920 <__retarget_lock_release_recursive>
   8f94c:	00000000 	udf	#0

000000000008f950 <_malloc_trim_r>:
   8f950:	a9bc7bfd 	stp	x29, x30, [sp, #-64]!
   8f954:	910003fd 	mov	x29, sp
   8f958:	a9025bf5 	stp	x21, x22, [sp, #32]
   8f95c:	90000036 	adrp	x22, 93000 <_impure_data+0x148>
   8f960:	910182d6 	add	x22, x22, #0x60
   8f964:	aa0003f5 	mov	x21, x0
   8f968:	a90153f3 	stp	x19, x20, [sp, #16]
   8f96c:	f9001bf7 	str	x23, [sp, #48]
   8f970:	aa0103f7 	mov	x23, x1
   8f974:	97ffff7f 	bl	8f770 <__malloc_lock>
   8f978:	f9400ac0 	ldr	x0, [x22, #16]
   8f97c:	f9400414 	ldr	x20, [x0, #8]
   8f980:	927ef694 	and	x20, x20, #0xfffffffffffffffc
   8f984:	913f7e93 	add	x19, x20, #0xfdf
   8f988:	cb170273 	sub	x19, x19, x23
   8f98c:	9274ce73 	and	x19, x19, #0xfffffffffffff000
   8f990:	d1400673 	sub	x19, x19, #0x1, lsl #12
   8f994:	f13ffe7f 	cmp	x19, #0xfff
   8f998:	5400010d 	b.le	8f9b8 <_malloc_trim_r+0x68>
   8f99c:	d2800001 	mov	x1, #0x0                   	// #0
   8f9a0:	aa1503e0 	mov	x0, x21
   8f9a4:	97ffff1b 	bl	8f610 <_sbrk_r>
   8f9a8:	f9400ac1 	ldr	x1, [x22, #16]
   8f9ac:	8b140021 	add	x1, x1, x20
   8f9b0:	eb01001f 	cmp	x0, x1
   8f9b4:	54000120 	b.eq	8f9d8 <_malloc_trim_r+0x88>  // b.none
   8f9b8:	aa1503e0 	mov	x0, x21
   8f9bc:	97ffff71 	bl	8f780 <__malloc_unlock>
   8f9c0:	a94153f3 	ldp	x19, x20, [sp, #16]
   8f9c4:	52800000 	mov	w0, #0x0                   	// #0
   8f9c8:	a9425bf5 	ldp	x21, x22, [sp, #32]
   8f9cc:	f9401bf7 	ldr	x23, [sp, #48]
   8f9d0:	a8c47bfd 	ldp	x29, x30, [sp], #64
   8f9d4:	d65f03c0 	ret
   8f9d8:	cb1303e1 	neg	x1, x19
   8f9dc:	aa1503e0 	mov	x0, x21
   8f9e0:	97ffff0c 	bl	8f610 <_sbrk_r>
   8f9e4:	b100041f 	cmn	x0, #0x1
   8f9e8:	54000220 	b.eq	8fa2c <_malloc_trim_r+0xdc>  // b.none
   8f9ec:	f0000062 	adrp	x2, 9e000 <aligned_bufs+0x1d60>
   8f9f0:	cb130294 	sub	x20, x20, x19
   8f9f4:	f9400ac3 	ldr	x3, [x22, #16]
   8f9f8:	b2400294 	orr	x20, x20, #0x1
   8f9fc:	b9469841 	ldr	w1, [x2, #1688]
   8fa00:	aa1503e0 	mov	x0, x21
   8fa04:	4b130021 	sub	w1, w1, w19
   8fa08:	f9000474 	str	x20, [x3, #8]
   8fa0c:	b9069841 	str	w1, [x2, #1688]
   8fa10:	97ffff5c 	bl	8f780 <__malloc_unlock>
   8fa14:	a94153f3 	ldp	x19, x20, [sp, #16]
   8fa18:	52800020 	mov	w0, #0x1                   	// #1
   8fa1c:	a9425bf5 	ldp	x21, x22, [sp, #32]
   8fa20:	f9401bf7 	ldr	x23, [sp, #48]
   8fa24:	a8c47bfd 	ldp	x29, x30, [sp], #64
   8fa28:	d65f03c0 	ret
   8fa2c:	d2800001 	mov	x1, #0x0                   	// #0
   8fa30:	aa1503e0 	mov	x0, x21
   8fa34:	97fffef7 	bl	8f610 <_sbrk_r>
   8fa38:	f9400ac2 	ldr	x2, [x22, #16]
   8fa3c:	cb020001 	sub	x1, x0, x2
   8fa40:	f1007c3f 	cmp	x1, #0x1f
   8fa44:	54fffbad 	b.le	8f9b8 <_malloc_trim_r+0x68>
   8fa48:	90000024 	adrp	x4, 93000 <_impure_data+0x148>
   8fa4c:	b2400021 	orr	x1, x1, #0x1
   8fa50:	f9000441 	str	x1, [x2, #8]
   8fa54:	f0000063 	adrp	x3, 9e000 <aligned_bufs+0x1d60>
   8fa58:	f9402481 	ldr	x1, [x4, #72]
   8fa5c:	cb010000 	sub	x0, x0, x1
   8fa60:	b9069860 	str	w0, [x3, #1688]
   8fa64:	17ffffd5 	b	8f9b8 <_malloc_trim_r+0x68>
	...

000000000008fa70 <_free_r>:
   8fa70:	b4000a21 	cbz	x1, 8fbb4 <_free_r+0x144>
   8fa74:	a9be7bfd 	stp	x29, x30, [sp, #-32]!
   8fa78:	910003fd 	mov	x29, sp
   8fa7c:	a90153f3 	stp	x19, x20, [sp, #16]
   8fa80:	aa0103f3 	mov	x19, x1
   8fa84:	aa0003f4 	mov	x20, x0
   8fa88:	97ffff3a 	bl	8f770 <__malloc_lock>
   8fa8c:	f85f8265 	ldur	x5, [x19, #-8]
   8fa90:	d1004263 	sub	x3, x19, #0x10
   8fa94:	90000020 	adrp	x0, 93000 <_impure_data+0x148>
   8fa98:	91018000 	add	x0, x0, #0x60
   8fa9c:	927ff8a2 	and	x2, x5, #0xfffffffffffffffe
   8faa0:	8b020064 	add	x4, x3, x2
   8faa4:	f9400806 	ldr	x6, [x0, #16]
   8faa8:	f9400481 	ldr	x1, [x4, #8]
   8faac:	927ef421 	and	x1, x1, #0xfffffffffffffffc
   8fab0:	eb0400df 	cmp	x6, x4
   8fab4:	54000c00 	b.eq	8fc34 <_free_r+0x1c4>  // b.none
   8fab8:	f9000481 	str	x1, [x4, #8]
   8fabc:	8b010086 	add	x6, x4, x1
   8fac0:	37000345 	tbnz	w5, #0, 8fb28 <_free_r+0xb8>
   8fac4:	f85f0267 	ldur	x7, [x19, #-16]
   8fac8:	90000025 	adrp	x5, 93000 <_impure_data+0x148>
   8facc:	f94004c6 	ldr	x6, [x6, #8]
   8fad0:	cb070063 	sub	x3, x3, x7
   8fad4:	8b070042 	add	x2, x2, x7
   8fad8:	9101c0a5 	add	x5, x5, #0x70
   8fadc:	924000c6 	and	x6, x6, #0x1
   8fae0:	f9400867 	ldr	x7, [x3, #16]
   8fae4:	eb0500ff 	cmp	x7, x5
   8fae8:	54000940 	b.eq	8fc10 <_free_r+0x1a0>  // b.none
   8faec:	f9400c68 	ldr	x8, [x3, #24]
   8faf0:	f9000ce8 	str	x8, [x7, #24]
   8faf4:	f9000907 	str	x7, [x8, #16]
   8faf8:	b50001c6 	cbnz	x6, 8fb30 <_free_r+0xc0>
   8fafc:	8b010042 	add	x2, x2, x1
   8fb00:	f9400881 	ldr	x1, [x4, #16]
   8fb04:	eb05003f 	cmp	x1, x5
   8fb08:	54000ea0 	b.eq	8fcdc <_free_r+0x26c>  // b.none
   8fb0c:	f9400c85 	ldr	x5, [x4, #24]
   8fb10:	f9000c25 	str	x5, [x1, #24]
   8fb14:	b2400044 	orr	x4, x2, #0x1
   8fb18:	f90008a1 	str	x1, [x5, #16]
   8fb1c:	f9000464 	str	x4, [x3, #8]
   8fb20:	f8226862 	str	x2, [x3, x2]
   8fb24:	14000006 	b	8fb3c <_free_r+0xcc>
   8fb28:	f94004c5 	ldr	x5, [x6, #8]
   8fb2c:	360006a5 	tbz	w5, #0, 8fc00 <_free_r+0x190>
   8fb30:	b2400041 	orr	x1, x2, #0x1
   8fb34:	f9000461 	str	x1, [x3, #8]
   8fb38:	f9000082 	str	x2, [x4]
   8fb3c:	f107fc5f 	cmp	x2, #0x1ff
   8fb40:	540003c9 	b.ls	8fbb8 <_free_r+0x148>  // b.plast
   8fb44:	d349fc41 	lsr	x1, x2, #9
   8fb48:	f127fc5f 	cmp	x2, #0x9ff
   8fb4c:	540009c8 	b.hi	8fc84 <_free_r+0x214>  // b.pmore
   8fb50:	d346fc41 	lsr	x1, x2, #6
   8fb54:	1100e424 	add	w4, w1, #0x39
   8fb58:	1100e025 	add	w5, w1, #0x38
   8fb5c:	531f7884 	lsl	w4, w4, #1
   8fb60:	937d7c84 	sbfiz	x4, x4, #3, #32
   8fb64:	8b040004 	add	x4, x0, x4
   8fb68:	f85f0481 	ldr	x1, [x4], #-16
   8fb6c:	eb01009f 	cmp	x4, x1
   8fb70:	540000a1 	b.ne	8fb84 <_free_r+0x114>  // b.any
   8fb74:	14000053 	b	8fcc0 <_free_r+0x250>
   8fb78:	f9400821 	ldr	x1, [x1, #16]
   8fb7c:	eb01009f 	cmp	x4, x1
   8fb80:	540000a0 	b.eq	8fb94 <_free_r+0x124>  // b.none
   8fb84:	f9400420 	ldr	x0, [x1, #8]
   8fb88:	927ef400 	and	x0, x0, #0xfffffffffffffffc
   8fb8c:	eb02001f 	cmp	x0, x2
   8fb90:	54ffff48 	b.hi	8fb78 <_free_r+0x108>  // b.pmore
   8fb94:	f9400c24 	ldr	x4, [x1, #24]
   8fb98:	a9011061 	stp	x1, x4, [x3, #16]
   8fb9c:	aa1403e0 	mov	x0, x20
   8fba0:	f9000883 	str	x3, [x4, #16]
   8fba4:	f9000c23 	str	x3, [x1, #24]
   8fba8:	a94153f3 	ldp	x19, x20, [sp, #16]
   8fbac:	a8c27bfd 	ldp	x29, x30, [sp], #32
   8fbb0:	17fffef4 	b	8f780 <__malloc_unlock>
   8fbb4:	d65f03c0 	ret
   8fbb8:	d343fc44 	lsr	x4, x2, #3
   8fbbc:	d2800022 	mov	x2, #0x1                   	// #1
   8fbc0:	11000481 	add	w1, w4, #0x1
   8fbc4:	f9400405 	ldr	x5, [x0, #8]
   8fbc8:	531f7821 	lsl	w1, w1, #1
   8fbcc:	13027c84 	asr	w4, w4, #2
   8fbd0:	8b21cc01 	add	x1, x0, w1, sxtw #3
   8fbd4:	9ac42042 	lsl	x2, x2, x4
   8fbd8:	aa050042 	orr	x2, x2, x5
   8fbdc:	f9000402 	str	x2, [x0, #8]
   8fbe0:	f85f0420 	ldr	x0, [x1], #-16
   8fbe4:	a9010460 	stp	x0, x1, [x3, #16]
   8fbe8:	f9000823 	str	x3, [x1, #16]
   8fbec:	f9000c03 	str	x3, [x0, #24]
   8fbf0:	aa1403e0 	mov	x0, x20
   8fbf4:	a94153f3 	ldp	x19, x20, [sp, #16]
   8fbf8:	a8c27bfd 	ldp	x29, x30, [sp], #32
   8fbfc:	17fffee1 	b	8f780 <__malloc_unlock>
   8fc00:	90000025 	adrp	x5, 93000 <_impure_data+0x148>
   8fc04:	8b010042 	add	x2, x2, x1
   8fc08:	9101c0a5 	add	x5, x5, #0x70
   8fc0c:	17ffffbd 	b	8fb00 <_free_r+0x90>
   8fc10:	b5000986 	cbnz	x6, 8fd40 <_free_r+0x2d0>
   8fc14:	a9410085 	ldp	x5, x0, [x4, #16]
   8fc18:	8b020021 	add	x1, x1, x2
   8fc1c:	f9000ca0 	str	x0, [x5, #24]
   8fc20:	b2400022 	orr	x2, x1, #0x1
   8fc24:	f9000805 	str	x5, [x0, #16]
   8fc28:	f9000462 	str	x2, [x3, #8]
   8fc2c:	f8216861 	str	x1, [x3, x1]
   8fc30:	17fffff0 	b	8fbf0 <_free_r+0x180>
   8fc34:	8b010041 	add	x1, x2, x1
   8fc38:	370000e5 	tbnz	w5, #0, 8fc54 <_free_r+0x1e4>
   8fc3c:	f85f0262 	ldur	x2, [x19, #-16]
   8fc40:	cb020063 	sub	x3, x3, x2
   8fc44:	8b020021 	add	x1, x1, x2
   8fc48:	a9410864 	ldp	x4, x2, [x3, #16]
   8fc4c:	f9000c82 	str	x2, [x4, #24]
   8fc50:	f9000844 	str	x4, [x2, #16]
   8fc54:	90000022 	adrp	x2, 93000 <_impure_data+0x148>
   8fc58:	b2400024 	orr	x4, x1, #0x1
   8fc5c:	f9000464 	str	x4, [x3, #8]
   8fc60:	f9402842 	ldr	x2, [x2, #80]
   8fc64:	f9000803 	str	x3, [x0, #16]
   8fc68:	eb01005f 	cmp	x2, x1
   8fc6c:	54fffc28 	b.hi	8fbf0 <_free_r+0x180>  // b.pmore
   8fc70:	f0000061 	adrp	x1, 9e000 <aligned_bufs+0x1d60>
   8fc74:	aa1403e0 	mov	x0, x20
   8fc78:	f9436821 	ldr	x1, [x1, #1744]
   8fc7c:	97ffff35 	bl	8f950 <_malloc_trim_r>
   8fc80:	17ffffdc 	b	8fbf0 <_free_r+0x180>
   8fc84:	f100503f 	cmp	x1, #0x14
   8fc88:	54000129 	b.ls	8fcac <_free_r+0x23c>  // b.plast
   8fc8c:	f101503f 	cmp	x1, #0x54
   8fc90:	54000328 	b.hi	8fcf4 <_free_r+0x284>  // b.pmore
   8fc94:	d34cfc41 	lsr	x1, x2, #12
   8fc98:	1101bc24 	add	w4, w1, #0x6f
   8fc9c:	1101b825 	add	w5, w1, #0x6e
   8fca0:	531f7884 	lsl	w4, w4, #1
   8fca4:	937d7c84 	sbfiz	x4, x4, #3, #32
   8fca8:	17ffffaf 	b	8fb64 <_free_r+0xf4>
   8fcac:	11017024 	add	w4, w1, #0x5c
   8fcb0:	11016c25 	add	w5, w1, #0x5b
   8fcb4:	531f7884 	lsl	w4, w4, #1
   8fcb8:	937d7c84 	sbfiz	x4, x4, #3, #32
   8fcbc:	17ffffaa 	b	8fb64 <_free_r+0xf4>
   8fcc0:	f9400406 	ldr	x6, [x0, #8]
   8fcc4:	13027ca5 	asr	w5, w5, #2
   8fcc8:	d2800022 	mov	x2, #0x1                   	// #1
   8fccc:	9ac52042 	lsl	x2, x2, x5
   8fcd0:	aa060042 	orr	x2, x2, x6
   8fcd4:	f9000402 	str	x2, [x0, #8]
   8fcd8:	17ffffb0 	b	8fb98 <_free_r+0x128>
   8fcdc:	a9020c03 	stp	x3, x3, [x0, #32]
   8fce0:	b2400041 	orr	x1, x2, #0x1
   8fce4:	a9009461 	stp	x1, x5, [x3, #8]
   8fce8:	f9000c65 	str	x5, [x3, #24]
   8fcec:	f8226862 	str	x2, [x3, x2]
   8fcf0:	17ffffc0 	b	8fbf0 <_free_r+0x180>
   8fcf4:	f105503f 	cmp	x1, #0x154
   8fcf8:	540000e8 	b.hi	8fd14 <_free_r+0x2a4>  // b.pmore
   8fcfc:	d34ffc41 	lsr	x1, x2, #15
   8fd00:	1101e024 	add	w4, w1, #0x78
   8fd04:	1101dc25 	add	w5, w1, #0x77
   8fd08:	531f7884 	lsl	w4, w4, #1
   8fd0c:	937d7c84 	sbfiz	x4, x4, #3, #32
   8fd10:	17ffff95 	b	8fb64 <_free_r+0xf4>
   8fd14:	f115503f 	cmp	x1, #0x554
   8fd18:	540000e8 	b.hi	8fd34 <_free_r+0x2c4>  // b.pmore
   8fd1c:	d352fc41 	lsr	x1, x2, #18
   8fd20:	1101f424 	add	w4, w1, #0x7d
   8fd24:	1101f025 	add	w5, w1, #0x7c
   8fd28:	531f7884 	lsl	w4, w4, #1
   8fd2c:	937d7c84 	sbfiz	x4, x4, #3, #32
   8fd30:	17ffff8d 	b	8fb64 <_free_r+0xf4>
   8fd34:	d280fe04 	mov	x4, #0x7f0                 	// #2032
   8fd38:	52800fc5 	mov	w5, #0x7e                  	// #126
   8fd3c:	17ffff8a 	b	8fb64 <_free_r+0xf4>
   8fd40:	b2400040 	orr	x0, x2, #0x1
   8fd44:	f9000460 	str	x0, [x3, #8]
   8fd48:	f9000082 	str	x2, [x4]
   8fd4c:	17ffffa9 	b	8fbf0 <_free_r+0x180>

000000000008fd50 <_close_r>:
   8fd50:	a9be7bfd 	stp	x29, x30, [sp, #-32]!
   8fd54:	910003fd 	mov	x29, sp
   8fd58:	a90153f3 	stp	x19, x20, [sp, #16]
   8fd5c:	f0000074 	adrp	x20, 9e000 <aligned_bufs+0x1d60>
   8fd60:	aa0003f3 	mov	x19, x0
   8fd64:	b907229f 	str	wzr, [x20, #1824]
   8fd68:	2a0103e0 	mov	w0, w1
   8fd6c:	97ffcca9 	bl	83010 <_close>
   8fd70:	3100041f 	cmn	w0, #0x1
   8fd74:	54000080 	b.eq	8fd84 <_close_r+0x34>  // b.none
   8fd78:	a94153f3 	ldp	x19, x20, [sp, #16]
   8fd7c:	a8c27bfd 	ldp	x29, x30, [sp], #32
   8fd80:	d65f03c0 	ret
   8fd84:	b9472281 	ldr	w1, [x20, #1824]
   8fd88:	34ffff81 	cbz	w1, 8fd78 <_close_r+0x28>
   8fd8c:	b9000261 	str	w1, [x19]
   8fd90:	a94153f3 	ldp	x19, x20, [sp, #16]
   8fd94:	a8c27bfd 	ldp	x29, x30, [sp], #32
   8fd98:	d65f03c0 	ret
   8fd9c:	00000000 	udf	#0

000000000008fda0 <_reclaim_reent>:
   8fda0:	a9bd7bfd 	stp	x29, x30, [sp, #-48]!
   8fda4:	f0000001 	adrp	x1, 92000 <BitFont+0xbc0>
   8fda8:	910003fd 	mov	x29, sp
   8fdac:	a90153f3 	stp	x19, x20, [sp, #16]
   8fdb0:	aa0003f4 	mov	x20, x0
   8fdb4:	f9475820 	ldr	x0, [x1, #3760]
   8fdb8:	eb14001f 	cmp	x0, x20
   8fdbc:	54000520 	b.eq	8fe60 <_reclaim_reent+0xc0>  // b.none
   8fdc0:	f9403681 	ldr	x1, [x20, #104]
   8fdc4:	b4000221 	cbz	x1, 8fe08 <_reclaim_reent+0x68>
   8fdc8:	f90013f5 	str	x21, [sp, #32]
   8fdcc:	d2800015 	mov	x21, #0x0                   	// #0
   8fdd0:	f8756833 	ldr	x19, [x1, x21]
   8fdd4:	b40000f3 	cbz	x19, 8fdf0 <_reclaim_reent+0x50>
   8fdd8:	aa1303e1 	mov	x1, x19
   8fddc:	aa1403e0 	mov	x0, x20
   8fde0:	f9400273 	ldr	x19, [x19]
   8fde4:	97ffff23 	bl	8fa70 <_free_r>
   8fde8:	b5ffff93 	cbnz	x19, 8fdd8 <_reclaim_reent+0x38>
   8fdec:	f9403681 	ldr	x1, [x20, #104]
   8fdf0:	910022b5 	add	x21, x21, #0x8
   8fdf4:	f10802bf 	cmp	x21, #0x200
   8fdf8:	54fffec1 	b.ne	8fdd0 <_reclaim_reent+0x30>  // b.any
   8fdfc:	aa1403e0 	mov	x0, x20
   8fe00:	97ffff1c 	bl	8fa70 <_free_r>
   8fe04:	f94013f5 	ldr	x21, [sp, #32]
   8fe08:	f9402a81 	ldr	x1, [x20, #80]
   8fe0c:	b4000061 	cbz	x1, 8fe18 <_reclaim_reent+0x78>
   8fe10:	aa1403e0 	mov	x0, x20
   8fe14:	97ffff17 	bl	8fa70 <_free_r>
   8fe18:	f9403293 	ldr	x19, [x20, #96]
   8fe1c:	b40000d3 	cbz	x19, 8fe34 <_reclaim_reent+0x94>
   8fe20:	aa1303e1 	mov	x1, x19
   8fe24:	aa1403e0 	mov	x0, x20
   8fe28:	f9400273 	ldr	x19, [x19]
   8fe2c:	97ffff11 	bl	8fa70 <_free_r>
   8fe30:	b5ffff93 	cbnz	x19, 8fe20 <_reclaim_reent+0x80>
   8fe34:	f9403e81 	ldr	x1, [x20, #120]
   8fe38:	b4000061 	cbz	x1, 8fe44 <_reclaim_reent+0xa4>
   8fe3c:	aa1403e0 	mov	x0, x20
   8fe40:	97ffff0c 	bl	8fa70 <_free_r>
   8fe44:	f9402681 	ldr	x1, [x20, #72]
   8fe48:	b40000c1 	cbz	x1, 8fe60 <_reclaim_reent+0xc0>
   8fe4c:	aa1403e0 	mov	x0, x20
   8fe50:	aa0103f0 	mov	x16, x1
   8fe54:	a94153f3 	ldp	x19, x20, [sp, #16]
   8fe58:	a8c37bfd 	ldp	x29, x30, [sp], #48
   8fe5c:	d61f0200 	br	x16
   8fe60:	a94153f3 	ldp	x19, x20, [sp, #16]
   8fe64:	a8c37bfd 	ldp	x29, x30, [sp], #48
   8fe68:	d65f03c0 	ret
   8fe6c:	00000000 	udf	#0

000000000008fe70 <_fclose_r>:
   8fe70:	a9bd7bfd 	stp	x29, x30, [sp, #-48]!
   8fe74:	910003fd 	mov	x29, sp
   8fe78:	f90013f5 	str	x21, [sp, #32]
   8fe7c:	b4000661 	cbz	x1, 8ff48 <_fclose_r+0xd8>
   8fe80:	a90153f3 	stp	x19, x20, [sp, #16]
   8fe84:	aa0103f3 	mov	x19, x1
   8fe88:	aa0003f4 	mov	x20, x0
   8fe8c:	b4000060 	cbz	x0, 8fe98 <_fclose_r+0x28>
   8fe90:	f9402401 	ldr	x1, [x0, #72]
   8fe94:	b4000641 	cbz	x1, 8ff5c <_fclose_r+0xec>
   8fe98:	b940b260 	ldr	w0, [x19, #176]
   8fe9c:	79c02261 	ldrsh	w1, [x19, #16]
   8fea0:	37000500 	tbnz	w0, #0, 8ff40 <_fclose_r+0xd0>
   8fea4:	36480601 	tbz	w1, #9, 8ff64 <_fclose_r+0xf4>
   8fea8:	aa1303e1 	mov	x1, x19
   8feac:	aa1403e0 	mov	x0, x20
   8feb0:	94000044 	bl	8ffc0 <__sflush_r>
   8feb4:	2a0003f5 	mov	w21, w0
   8feb8:	f9402a62 	ldr	x2, [x19, #80]
   8febc:	b40000c2 	cbz	x2, 8fed4 <_fclose_r+0x64>
   8fec0:	f9401a61 	ldr	x1, [x19, #48]
   8fec4:	aa1403e0 	mov	x0, x20
   8fec8:	d63f0040 	blr	x2
   8fecc:	7100001f 	cmp	w0, #0x0
   8fed0:	5a9fa2b5 	csinv	w21, w21, wzr, ge	// ge = tcont
   8fed4:	79402260 	ldrh	w0, [x19, #16]
   8fed8:	37380620 	tbnz	w0, #7, 8ff9c <_fclose_r+0x12c>
   8fedc:	f9402e61 	ldr	x1, [x19, #88]
   8fee0:	b40000e1 	cbz	x1, 8fefc <_fclose_r+0x8c>
   8fee4:	9101d260 	add	x0, x19, #0x74
   8fee8:	eb00003f 	cmp	x1, x0
   8feec:	54000060 	b.eq	8fef8 <_fclose_r+0x88>  // b.none
   8fef0:	aa1403e0 	mov	x0, x20
   8fef4:	97fffedf 	bl	8fa70 <_free_r>
   8fef8:	f9002e7f 	str	xzr, [x19, #88]
   8fefc:	f9403e61 	ldr	x1, [x19, #120]
   8ff00:	b4000081 	cbz	x1, 8ff10 <_fclose_r+0xa0>
   8ff04:	aa1403e0 	mov	x0, x20
   8ff08:	97fffeda 	bl	8fa70 <_free_r>
   8ff0c:	f9003e7f 	str	xzr, [x19, #120]
   8ff10:	97fff884 	bl	8e120 <__sfp_lock_acquire>
   8ff14:	7900227f 	strh	wzr, [x19, #16]
   8ff18:	b940b260 	ldr	w0, [x19, #176]
   8ff1c:	360003a0 	tbz	w0, #0, 8ff90 <_fclose_r+0x120>
   8ff20:	f9405260 	ldr	x0, [x19, #160]
   8ff24:	97fffe67 	bl	8f8c0 <__retarget_lock_close_recursive>
   8ff28:	97fff882 	bl	8e130 <__sfp_lock_release>
   8ff2c:	a94153f3 	ldp	x19, x20, [sp, #16]
   8ff30:	2a1503e0 	mov	w0, w21
   8ff34:	f94013f5 	ldr	x21, [sp, #32]
   8ff38:	a8c37bfd 	ldp	x29, x30, [sp], #48
   8ff3c:	d65f03c0 	ret
   8ff40:	35fffb41 	cbnz	w1, 8fea8 <_fclose_r+0x38>
   8ff44:	a94153f3 	ldp	x19, x20, [sp, #16]
   8ff48:	52800015 	mov	w21, #0x0                   	// #0
   8ff4c:	2a1503e0 	mov	w0, w21
   8ff50:	f94013f5 	ldr	x21, [sp, #32]
   8ff54:	a8c37bfd 	ldp	x29, x30, [sp], #48
   8ff58:	d65f03c0 	ret
   8ff5c:	97fff855 	bl	8e0b0 <__sinit>
   8ff60:	17ffffce 	b	8fe98 <_fclose_r+0x28>
   8ff64:	f9405260 	ldr	x0, [x19, #160]
   8ff68:	97fffe5e 	bl	8f8e0 <__retarget_lock_acquire_recursive>
   8ff6c:	79c02260 	ldrsh	w0, [x19, #16]
   8ff70:	35fff9c0 	cbnz	w0, 8fea8 <_fclose_r+0x38>
   8ff74:	b940b260 	ldr	w0, [x19, #176]
   8ff78:	3707fe60 	tbnz	w0, #0, 8ff44 <_fclose_r+0xd4>
   8ff7c:	f9405260 	ldr	x0, [x19, #160]
   8ff80:	52800015 	mov	w21, #0x0                   	// #0
   8ff84:	97fffe67 	bl	8f920 <__retarget_lock_release_recursive>
   8ff88:	a94153f3 	ldp	x19, x20, [sp, #16]
   8ff8c:	17fffff0 	b	8ff4c <_fclose_r+0xdc>
   8ff90:	f9405260 	ldr	x0, [x19, #160]
   8ff94:	97fffe63 	bl	8f920 <__retarget_lock_release_recursive>
   8ff98:	17ffffe2 	b	8ff20 <_fclose_r+0xb0>
   8ff9c:	f9400e61 	ldr	x1, [x19, #24]
   8ffa0:	aa1403e0 	mov	x0, x20
   8ffa4:	97fffeb3 	bl	8fa70 <_free_r>
   8ffa8:	17ffffcd 	b	8fedc <_fclose_r+0x6c>
   8ffac:	00000000 	udf	#0

000000000008ffb0 <fclose>:
   8ffb0:	f0000002 	adrp	x2, 92000 <BitFont+0xbc0>
   8ffb4:	aa0003e1 	mov	x1, x0
   8ffb8:	f9475840 	ldr	x0, [x2, #3760]
   8ffbc:	17ffffad 	b	8fe70 <_fclose_r>

000000000008ffc0 <__sflush_r>:
   8ffc0:	a9bd7bfd 	stp	x29, x30, [sp, #-48]!
   8ffc4:	910003fd 	mov	x29, sp
   8ffc8:	79c02022 	ldrsh	w2, [x1, #16]
   8ffcc:	a90153f3 	stp	x19, x20, [sp, #16]
   8ffd0:	aa0103f3 	mov	x19, x1
   8ffd4:	a9025bf5 	stp	x21, x22, [sp, #32]
   8ffd8:	aa0003f6 	mov	x22, x0
   8ffdc:	371807e2 	tbnz	w2, #3, 900d8 <__sflush_r+0x118>
   8ffe0:	32150040 	orr	w0, w2, #0x800
   8ffe4:	79002020 	strh	w0, [x1, #16]
   8ffe8:	b9400821 	ldr	w1, [x1, #8]
   8ffec:	7100003f 	cmp	w1, #0x0
   8fff0:	54000b8d 	b.le	90160 <__sflush_r+0x1a0>
   8fff4:	f9402664 	ldr	x4, [x19, #72]
   8fff8:	b4000664 	cbz	x4, 900c4 <__sflush_r+0x104>
   8fffc:	f9401a61 	ldr	x1, [x19, #48]
   90000:	b94002d4 	ldr	w20, [x22]
   90004:	b90002df 	str	wzr, [x22]
   90008:	37600b62 	tbnz	w2, #12, 90174 <__sflush_r+0x1b4>
   9000c:	d2800002 	mov	x2, #0x0                   	// #0
   90010:	aa1603e0 	mov	x0, x22
   90014:	52800023 	mov	w3, #0x1                   	// #1
   90018:	d63f0080 	blr	x4
   9001c:	aa0003e2 	mov	x2, x0
   90020:	b100041f 	cmn	x0, #0x1
   90024:	54000be0 	b.eq	901a0 <__sflush_r+0x1e0>  // b.none
   90028:	f9401a61 	ldr	x1, [x19, #48]
   9002c:	f9402664 	ldr	x4, [x19, #72]
   90030:	79c02260 	ldrsh	w0, [x19, #16]
   90034:	361000e0 	tbz	w0, #2, 90050 <__sflush_r+0x90>
   90038:	f9402e60 	ldr	x0, [x19, #88]
   9003c:	b9800a63 	ldrsw	x3, [x19, #8]
   90040:	cb030042 	sub	x2, x2, x3
   90044:	b4000060 	cbz	x0, 90050 <__sflush_r+0x90>
   90048:	b9807260 	ldrsw	x0, [x19, #112]
   9004c:	cb000042 	sub	x2, x2, x0
   90050:	aa1603e0 	mov	x0, x22
   90054:	52800003 	mov	w3, #0x0                   	// #0
   90058:	d63f0080 	blr	x4
   9005c:	b100041f 	cmn	x0, #0x1
   90060:	540008e1 	b.ne	9017c <__sflush_r+0x1bc>  // b.any
   90064:	b94002c3 	ldr	w3, [x22]
   90068:	79c02261 	ldrsh	w1, [x19, #16]
   9006c:	7100747f 	cmp	w3, #0x1d
   90070:	540006a8 	b.hi	90144 <__sflush_r+0x184>  // b.pmore
   90074:	d2800022 	mov	x2, #0x1                   	// #1
   90078:	f2a40802 	movk	x2, #0x2040, lsl #16
   9007c:	9ac32442 	lsr	x2, x2, x3
   90080:	36000622 	tbz	w2, #0, 90144 <__sflush_r+0x184>
   90084:	f9400e64 	ldr	x4, [x19, #24]
   90088:	12147822 	and	w2, w1, #0xfffff7ff
   9008c:	f9000264 	str	x4, [x19]
   90090:	b9000a7f 	str	wzr, [x19, #8]
   90094:	79002262 	strh	w2, [x19, #16]
   90098:	36600041 	tbz	w1, #12, 900a0 <__sflush_r+0xe0>
   9009c:	340007e3 	cbz	w3, 90198 <__sflush_r+0x1d8>
   900a0:	f9402e61 	ldr	x1, [x19, #88]
   900a4:	b90002d4 	str	w20, [x22]
   900a8:	b40000e1 	cbz	x1, 900c4 <__sflush_r+0x104>
   900ac:	9101d260 	add	x0, x19, #0x74
   900b0:	eb00003f 	cmp	x1, x0
   900b4:	54000060 	b.eq	900c0 <__sflush_r+0x100>  // b.none
   900b8:	aa1603e0 	mov	x0, x22
   900bc:	97fffe6d 	bl	8fa70 <_free_r>
   900c0:	f9002e7f 	str	xzr, [x19, #88]
   900c4:	52800000 	mov	w0, #0x0                   	// #0
   900c8:	a94153f3 	ldp	x19, x20, [sp, #16]
   900cc:	a9425bf5 	ldp	x21, x22, [sp, #32]
   900d0:	a8c37bfd 	ldp	x29, x30, [sp], #48
   900d4:	d65f03c0 	ret
   900d8:	f9400c35 	ldr	x21, [x1, #24]
   900dc:	b4ffff55 	cbz	x21, 900c4 <__sflush_r+0x104>
   900e0:	f9400021 	ldr	x1, [x1]
   900e4:	f9000275 	str	x21, [x19]
   900e8:	52800000 	mov	w0, #0x0                   	// #0
   900ec:	cb150021 	sub	x1, x1, x21
   900f0:	2a0103f4 	mov	w20, w1
   900f4:	f240045f 	tst	x2, #0x3
   900f8:	54000041 	b.ne	90100 <__sflush_r+0x140>  // b.any
   900fc:	b9402260 	ldr	w0, [x19, #32]
   90100:	b9000e60 	str	w0, [x19, #12]
   90104:	7100003f 	cmp	w1, #0x0
   90108:	540000ac 	b.gt	9011c <__sflush_r+0x15c>
   9010c:	17ffffee 	b	900c4 <__sflush_r+0x104>
   90110:	8b20c2b5 	add	x21, x21, w0, sxtw
   90114:	7100029f 	cmp	w20, #0x0
   90118:	54fffd6d 	b.le	900c4 <__sflush_r+0x104>
   9011c:	f9401a61 	ldr	x1, [x19, #48]
   90120:	2a1403e3 	mov	w3, w20
   90124:	f9402264 	ldr	x4, [x19, #64]
   90128:	aa1503e2 	mov	x2, x21
   9012c:	aa1603e0 	mov	x0, x22
   90130:	d63f0080 	blr	x4
   90134:	4b000294 	sub	w20, w20, w0
   90138:	7100001f 	cmp	w0, #0x0
   9013c:	54fffeac 	b.gt	90110 <__sflush_r+0x150>
   90140:	79c02261 	ldrsh	w1, [x19, #16]
   90144:	321a0021 	orr	w1, w1, #0x40
   90148:	79002261 	strh	w1, [x19, #16]
   9014c:	a94153f3 	ldp	x19, x20, [sp, #16]
   90150:	12800000 	mov	w0, #0xffffffff            	// #-1
   90154:	a9425bf5 	ldp	x21, x22, [sp, #32]
   90158:	a8c37bfd 	ldp	x29, x30, [sp], #48
   9015c:	d65f03c0 	ret
   90160:	b9407261 	ldr	w1, [x19, #112]
   90164:	7100003f 	cmp	w1, #0x0
   90168:	54fff46c 	b.gt	8fff4 <__sflush_r+0x34>
   9016c:	52800000 	mov	w0, #0x0                   	// #0
   90170:	17ffffd6 	b	900c8 <__sflush_r+0x108>
   90174:	f9404a62 	ldr	x2, [x19, #144]
   90178:	17ffffaf 	b	90034 <__sflush_r+0x74>
   9017c:	79c02261 	ldrsh	w1, [x19, #16]
   90180:	f9400e63 	ldr	x3, [x19, #24]
   90184:	12147822 	and	w2, w1, #0xfffff7ff
   90188:	f9000263 	str	x3, [x19]
   9018c:	b9000a7f 	str	wzr, [x19, #8]
   90190:	79002262 	strh	w2, [x19, #16]
   90194:	3667f861 	tbz	w1, #12, 900a0 <__sflush_r+0xe0>
   90198:	f9004a60 	str	x0, [x19, #144]
   9019c:	17ffffc1 	b	900a0 <__sflush_r+0xe0>
   901a0:	b94002c0 	ldr	w0, [x22]
   901a4:	34fff420 	cbz	w0, 90028 <__sflush_r+0x68>
   901a8:	7100741f 	cmp	w0, #0x1d
   901ac:	7a561804 	ccmp	w0, #0x16, #0x4, ne	// ne = any
   901b0:	54fffc81 	b.ne	90140 <__sflush_r+0x180>  // b.any
   901b4:	52800000 	mov	w0, #0x0                   	// #0
   901b8:	b90002d4 	str	w20, [x22]
   901bc:	17ffffc3 	b	900c8 <__sflush_r+0x108>

00000000000901c0 <_fflush_r>:
   901c0:	a9bd7bfd 	stp	x29, x30, [sp, #-48]!
   901c4:	910003fd 	mov	x29, sp
   901c8:	a90153f3 	stp	x19, x20, [sp, #16]
   901cc:	aa0103f3 	mov	x19, x1
   901d0:	aa0003f4 	mov	x20, x0
   901d4:	f90013f5 	str	x21, [sp, #32]
   901d8:	b4000060 	cbz	x0, 901e4 <_fflush_r+0x24>
   901dc:	f9402401 	ldr	x1, [x0, #72]
   901e0:	b4000481 	cbz	x1, 90270 <_fflush_r+0xb0>
   901e4:	79c02260 	ldrsh	w0, [x19, #16]
   901e8:	52800015 	mov	w21, #0x0                   	// #0
   901ec:	34000180 	cbz	w0, 9021c <_fflush_r+0x5c>
   901f0:	b940b261 	ldr	w1, [x19, #176]
   901f4:	37000041 	tbnz	w1, #0, 901fc <_fflush_r+0x3c>
   901f8:	364801c0 	tbz	w0, #9, 90230 <_fflush_r+0x70>
   901fc:	aa1303e1 	mov	x1, x19
   90200:	aa1403e0 	mov	x0, x20
   90204:	97ffff6f 	bl	8ffc0 <__sflush_r>
   90208:	2a0003f5 	mov	w21, w0
   9020c:	b940b261 	ldr	w1, [x19, #176]
   90210:	37000061 	tbnz	w1, #0, 9021c <_fflush_r+0x5c>
   90214:	79402260 	ldrh	w0, [x19, #16]
   90218:	364801e0 	tbz	w0, #9, 90254 <_fflush_r+0x94>
   9021c:	a94153f3 	ldp	x19, x20, [sp, #16]
   90220:	2a1503e0 	mov	w0, w21
   90224:	f94013f5 	ldr	x21, [sp, #32]
   90228:	a8c37bfd 	ldp	x29, x30, [sp], #48
   9022c:	d65f03c0 	ret
   90230:	f9405260 	ldr	x0, [x19, #160]
   90234:	97fffdab 	bl	8f8e0 <__retarget_lock_acquire_recursive>
   90238:	aa1303e1 	mov	x1, x19
   9023c:	aa1403e0 	mov	x0, x20
   90240:	97ffff60 	bl	8ffc0 <__sflush_r>
   90244:	2a0003f5 	mov	w21, w0
   90248:	b940b261 	ldr	w1, [x19, #176]
   9024c:	3707fe81 	tbnz	w1, #0, 9021c <_fflush_r+0x5c>
   90250:	17fffff1 	b	90214 <_fflush_r+0x54>
   90254:	f9405260 	ldr	x0, [x19, #160]
   90258:	97fffdb2 	bl	8f920 <__retarget_lock_release_recursive>
   9025c:	a94153f3 	ldp	x19, x20, [sp, #16]
   90260:	2a1503e0 	mov	w0, w21
   90264:	f94013f5 	ldr	x21, [sp, #32]
   90268:	a8c37bfd 	ldp	x29, x30, [sp], #48
   9026c:	d65f03c0 	ret
   90270:	97fff790 	bl	8e0b0 <__sinit>
   90274:	17ffffdc 	b	901e4 <_fflush_r+0x24>
	...

0000000000090280 <fflush>:
   90280:	b40004e0 	cbz	x0, 9031c <fflush+0x9c>
   90284:	a9bd7bfd 	stp	x29, x30, [sp, #-48]!
   90288:	910003fd 	mov	x29, sp
   9028c:	a90153f3 	stp	x19, x20, [sp, #16]
   90290:	aa0003f3 	mov	x19, x0
   90294:	d0000000 	adrp	x0, 92000 <BitFont+0xbc0>
   90298:	f90013f5 	str	x21, [sp, #32]
   9029c:	f9475815 	ldr	x21, [x0, #3760]
   902a0:	b4000075 	cbz	x21, 902ac <fflush+0x2c>
   902a4:	f94026a0 	ldr	x0, [x21, #72]
   902a8:	b4000280 	cbz	x0, 902f8 <fflush+0x78>
   902ac:	79c02260 	ldrsh	w0, [x19, #16]
   902b0:	52800014 	mov	w20, #0x0                   	// #0
   902b4:	34000180 	cbz	w0, 902e4 <fflush+0x64>
   902b8:	b940b261 	ldr	w1, [x19, #176]
   902bc:	37000041 	tbnz	w1, #0, 902c4 <fflush+0x44>
   902c0:	36480220 	tbz	w0, #9, 90304 <fflush+0x84>
   902c4:	aa1303e1 	mov	x1, x19
   902c8:	aa1503e0 	mov	x0, x21
   902cc:	97ffff3d 	bl	8ffc0 <__sflush_r>
   902d0:	2a0003f4 	mov	w20, w0
   902d4:	b940b261 	ldr	w1, [x19, #176]
   902d8:	37000061 	tbnz	w1, #0, 902e4 <fflush+0x64>
   902dc:	79402260 	ldrh	w0, [x19, #16]
   902e0:	36480180 	tbz	w0, #9, 90310 <fflush+0x90>
   902e4:	f94013f5 	ldr	x21, [sp, #32]
   902e8:	2a1403e0 	mov	w0, w20
   902ec:	a94153f3 	ldp	x19, x20, [sp, #16]
   902f0:	a8c37bfd 	ldp	x29, x30, [sp], #48
   902f4:	d65f03c0 	ret
   902f8:	aa1503e0 	mov	x0, x21
   902fc:	97fff76d 	bl	8e0b0 <__sinit>
   90300:	17ffffeb 	b	902ac <fflush+0x2c>
   90304:	f9405260 	ldr	x0, [x19, #160]
   90308:	97fffd76 	bl	8f8e0 <__retarget_lock_acquire_recursive>
   9030c:	17ffffee 	b	902c4 <fflush+0x44>
   90310:	f9405260 	ldr	x0, [x19, #160]
   90314:	97fffd83 	bl	8f920 <__retarget_lock_release_recursive>
   90318:	17fffff3 	b	902e4 <fflush+0x64>
   9031c:	f0000002 	adrp	x2, 93000 <_impure_data+0x148>
   90320:	90000001 	adrp	x1, 90000 <__sflush_r+0x40>
   90324:	d0000000 	adrp	x0, 92000 <BitFont+0xbc0>
   90328:	9100c042 	add	x2, x2, #0x30
   9032c:	91070021 	add	x1, x1, #0x1c0
   90330:	913ae000 	add	x0, x0, #0xeb8
   90334:	17fffce7 	b	8f6d0 <_fwalk_sglue>
	...

0000000000090340 <_lseek_r>:
   90340:	a9be7bfd 	stp	x29, x30, [sp, #-32]!
   90344:	910003fd 	mov	x29, sp
   90348:	a90153f3 	stp	x19, x20, [sp, #16]
   9034c:	d0000074 	adrp	x20, 9e000 <aligned_bufs+0x1d60>
   90350:	aa0003f3 	mov	x19, x0
   90354:	b907229f 	str	wzr, [x20, #1824]
   90358:	2a0103e0 	mov	w0, w1
   9035c:	aa0203e1 	mov	x1, x2
   90360:	2a0303e2 	mov	w2, w3
   90364:	97ffcb2f 	bl	83020 <_lseek>
   90368:	b100041f 	cmn	x0, #0x1
   9036c:	54000080 	b.eq	9037c <_lseek_r+0x3c>  // b.none
   90370:	a94153f3 	ldp	x19, x20, [sp, #16]
   90374:	a8c27bfd 	ldp	x29, x30, [sp], #32
   90378:	d65f03c0 	ret
   9037c:	b9472281 	ldr	w1, [x20, #1824]
   90380:	34ffff81 	cbz	w1, 90370 <_lseek_r+0x30>
   90384:	b9000261 	str	w1, [x19]
   90388:	a94153f3 	ldp	x19, x20, [sp, #16]
   9038c:	a8c27bfd 	ldp	x29, x30, [sp], #32
   90390:	d65f03c0 	ret
	...

00000000000903a0 <_read_r>:
   903a0:	a9be7bfd 	stp	x29, x30, [sp, #-32]!
   903a4:	910003fd 	mov	x29, sp
   903a8:	a90153f3 	stp	x19, x20, [sp, #16]
   903ac:	d0000074 	adrp	x20, 9e000 <aligned_bufs+0x1d60>
   903b0:	aa0003f3 	mov	x19, x0
   903b4:	2a0103e0 	mov	w0, w1
   903b8:	aa0203e1 	mov	x1, x2
   903bc:	b907229f 	str	wzr, [x20, #1824]
   903c0:	aa0303e2 	mov	x2, x3
   903c4:	97ffcb0b 	bl	82ff0 <_read>
   903c8:	93407c01 	sxtw	x1, w0
   903cc:	3100041f 	cmn	w0, #0x1
   903d0:	540000a0 	b.eq	903e4 <_read_r+0x44>  // b.none
   903d4:	a94153f3 	ldp	x19, x20, [sp, #16]
   903d8:	aa0103e0 	mov	x0, x1
   903dc:	a8c27bfd 	ldp	x29, x30, [sp], #32
   903e0:	d65f03c0 	ret
   903e4:	b9472280 	ldr	w0, [x20, #1824]
   903e8:	34ffff60 	cbz	w0, 903d4 <_read_r+0x34>
   903ec:	b9000260 	str	w0, [x19]
   903f0:	aa0103e0 	mov	x0, x1
   903f4:	a94153f3 	ldp	x19, x20, [sp, #16]
   903f8:	a8c27bfd 	ldp	x29, x30, [sp], #32
   903fc:	d65f03c0 	ret
